
/tmp/aosp-cache-pin/assets/arm64-v8a/libllama.so:
                 U abort
                 U aligned_alloc
                 U atoi
                 U bcmp
                 U btowc
                 U calloc
                 U catclose
                 U catgets
                 U catopen
                 U clock_gettime
                 U close
                 U __ctype_get_mb_cur_max
                 U __cxa_atexit
                 U __errno_location
                 U exp
                 U exp2f
                 U expf
                 U fclose
                 U ferror
                 U fflush
                 U fileno
000000000010ca0c T _fini
                 U fopen
                 U fprintf
                 U fputc
                 U fputs
                 U fread
                 U free
                 U freelocale
                 U fseek
                 U fseeko
                 U fstat
                 U ftell
                 U ftello
                 U fwrite
                 U getenv
                 U getrlimit
                 U ggml_abort
                 U ggml_add
                 U ggml_add_id
                 U ggml_are_same_shape
                 U ggml_argmax
                 U ggml_argsort
                 U ggml_argsort_top_k
                 U ggml_backend_alloc_ctx_tensors_from_buft
                 U ggml_backend_alloc_ctx_tensors_from_buft_size
                 U ggml_backend_buffer_clear
                 U ggml_backend_buffer_free
                 U ggml_backend_buffer_get_base
                 U ggml_backend_buffer_get_size
                 U ggml_backend_buffer_get_type
                 U ggml_backend_buffer_is_host
                 U ggml_backend_buffer_name
                 U ggml_backend_buffer_set_usage
                 U ggml_backend_buft_alloc_buffer
                 U ggml_backend_buft_get_device
                 U ggml_backend_buft_is_host
                 U ggml_backend_buft_name
                 U ggml_backend_cpu_buffer_type
                 U ggml_backend_dev_backend_reg
                 U ggml_backend_dev_buffer_from_host_ptr
                 U ggml_backend_dev_buffer_type
                 U ggml_backend_dev_by_type
                 U ggml_backend_dev_count
                 U ggml_backend_dev_description
                 U ggml_backend_dev_get
                 U ggml_backend_dev_get_props
                 U ggml_backend_dev_host_buffer_type
                 U ggml_backend_dev_init
                 U ggml_backend_dev_memory
                 U ggml_backend_dev_name
                 U ggml_backend_dev_supports_op
                 U ggml_backend_dev_type
                 U ggml_backend_event_free
                 U ggml_backend_event_new
                 U ggml_backend_event_record
                 U ggml_backend_event_synchronize
                 U ggml_backend_free
                 U ggml_backend_get_default_buffer_type
                 U ggml_backend_get_device
                 U ggml_backend_init_by_type
                 U ggml_backend_name
                 U ggml_backend_reg_by_name
                 U ggml_backend_reg_count
                 U ggml_backend_reg_dev_count
                 U ggml_backend_reg_dev_get
                 U ggml_backend_reg_get
                 U ggml_backend_reg_get_proc_address
                 U ggml_backend_reg_name
                 U ggml_backend_sched_alloc_graph
                 U ggml_backend_sched_free
                 U ggml_backend_sched_get_buffer_size
                 U ggml_backend_sched_get_buffer_type
                 U ggml_backend_sched_get_n_copies
                 U ggml_backend_sched_get_n_splits
                 U ggml_backend_sched_get_tensor_backend
                 U ggml_backend_sched_graph_compute_async
                 U ggml_backend_sched_new
                 U ggml_backend_sched_reserve
                 U ggml_backend_sched_reserve_size
                 U ggml_backend_sched_reset
                 U ggml_backend_sched_set_eval_callback
                 U ggml_backend_sched_set_tensor_backend
                 U ggml_backend_sched_split_graph
                 U ggml_backend_sched_synchronize
                 U ggml_backend_supports_op
                 U ggml_backend_tensor_alloc
                 U ggml_backend_tensor_copy
                 U ggml_backend_tensor_get
                 U ggml_backend_tensor_get_async
                 U ggml_backend_tensor_set
                 U ggml_backend_tensor_set_async
                 U ggml_bf16_to_fp32_row
                 U ggml_blck_size
                 U ggml_build_forward_expand
                 U ggml_build_forward_select
                 U ggml_cast
                 U ggml_clamp
                 U ggml_concat
                 U ggml_cont
                 U ggml_cont_2d
                 U ggml_cont_3d
                 U ggml_cont_4d
                 U ggml_conv_1d_dw_ph
                 U ggml_conv_1d_ph
                 U ggml_cpy
                 U ggml_cumsum
                 U ggml_diag
                 U ggml_div
                 U ggml_dup_tensor
                 U ggml_element_size
                 U ggml_exp
                 U ggml_fill
                 U ggml_flash_attn_ext
                 U ggml_flash_attn_ext_add_sinks
                 U ggml_flash_attn_ext_set_prec
                 U ggml_fopen
                 U ggml_format_name
                 U ggml_fp16_to_fp32_row
                 U ggml_free
                 U ggml_gated_linear_attn
                 U ggml_geglu
                 U ggml_geglu_split
                 U ggml_gelu
                 U ggml_get_first_tensor
                 U ggml_get_max_tensor_size
                 U ggml_get_name
                 U ggml_get_next_tensor
                 U ggml_get_rows
                 U ggml_get_tensor
                 U ggml_get_type_traits
                 U ggml_graph_n_nodes
                 U ggml_graph_node
                 U ggml_graph_overhead
                 U ggml_graph_overhead_custom
                 U ggml_graph_size
                 U ggml_group_norm
                 U ggml_im2col
                 U ggml_init
                 U ggml_is_contiguous
                 U ggml_is_quantized
                 U ggml_l2_norm
                 U ggml_log
                 U ggml_log_get
                 U ggml_log_set
                 U ggml_mean
                 U ggml_mul
                 U ggml_mul_mat
                 U ggml_mul_mat_id
                 U ggml_mul_mat_set_prec
                 U ggml_nbytes
                 U ggml_n_dims
                 U ggml_neg
                 U ggml_nelements
                 U ggml_new_graph
                 U ggml_new_graph_custom
                 U ggml_new_tensor_1d
                 U ggml_new_tensor_2d
                 U ggml_new_tensor_3d
                 U ggml_new_tensor_4d
                 U ggml_norm
                 U ggml_nrows
                 U ggml_op_name
                 U ggml_opt_alloc
                 U ggml_opt_dataset_get_batch_host
                 U ggml_opt_dataset_ndata
                 U ggml_opt_default_params
                 U ggml_opt_eval
                 U ggml_opt_free
                 U ggml_opt_init
                 U ggml_opt_labels
                 U ggml_opt_prepare_alloc
                 U ggml_pad
                 U ggml_permute
                 U ggml_quantize_chunk
                 U ggml_quantize_free
                 U ggml_reglu
                 U ggml_reglu_split
                 U ggml_relu
                 U ggml_repeat
                 U ggml_repeat_4d
                 U ggml_reshape_1d
                 U ggml_reshape_2d
                 U ggml_reshape_3d
                 U ggml_reshape_4d
                 U ggml_rms_norm
                 U ggml_rope
                 U ggml_rope_ext
                 U ggml_rope_ext_inplace
                 U ggml_rope_multi
                 U ggml_row_size
                 U ggml_rwkv_wkv6
                 U ggml_rwkv_wkv7
                 U ggml_scale
                 U ggml_scale_bias
                 U ggml_scale_inplace
                 U ggml_set_1d
                 U ggml_set_inplace
                 U ggml_set_input
                 U ggml_set_name
                 U ggml_set_output
                 U ggml_set_param
                 U ggml_set_rows
                 U ggml_set_zero
                 U ggml_sigmoid
                 U ggml_silu
                 U ggml_soft_max
                 U ggml_soft_max_add_sinks
                 U ggml_soft_max_ext
                 U ggml_softplus
                 U ggml_solve_tri
                 U ggml_sqr
                 U ggml_sqrt
                 U ggml_ssm_conv
                 U ggml_ssm_scan
                 U ggml_step
                 U ggml_sub
                 U ggml_sum
                 U ggml_sum_rows
                 U ggml_swiglu
                 U ggml_swiglu_oai
                 U ggml_swiglu_split
                 U ggml_tanh
                 U ggml_tensor_overhead
                 U ggml_time_init
                 U ggml_time_us
                 U ggml_top_k
                 U ggml_transpose
                 U ggml_tri
                 U ggml_type_name
                 U ggml_type_size
                 U ggml_validate_row_data
                 U ggml_view_1d
                 U ggml_view_2d
                 U ggml_view_3d
                 U ggml_view_4d
                 U ggml_xielu
                 U gguf_add_tensor
                 U gguf_find_key
                 U gguf_find_tensor
                 U gguf_free
                 U gguf_get_arr_data
                 U gguf_get_arr_n
                 U gguf_get_arr_str
                 U gguf_get_arr_type
                 U gguf_get_data_offset
                 U gguf_get_key
                 U gguf_get_kv_type
                 U gguf_get_meta_data
                 U gguf_get_meta_size
                 U gguf_get_n_kv
                 U gguf_get_n_tensors
                 U gguf_get_tensor_offset
                 U gguf_get_tensor_size
                 U gguf_get_val_bool
                 U gguf_get_val_data
                 U gguf_get_val_f32
                 U gguf_get_val_i32
                 U gguf_get_val_str
                 U gguf_get_val_u16
                 U gguf_get_val_u32
                 U gguf_get_version
                 U gguf_init_empty
                 U gguf_init_from_file
                 U gguf_remove_key
                 U gguf_set_arr_data
                 U gguf_set_arr_str
                 U gguf_set_kv
                 U gguf_set_tensor_data
                 U gguf_set_tensor_type
                 U gguf_set_val_bool
                 U gguf_set_val_f32
                 U gguf_set_val_i32
                 U gguf_set_val_str
                 U gguf_set_val_u16
                 U gguf_set_val_u32
                 U gguf_type_name
                 U gguf_write_to_file
000000000010c9fc T _init
                 U ioctl
                 U isdigit_l
                 U islower_l
                 U isspace
                 U isupper_l
                 U iswalpha_l
                 U iswblank_l
                 U iswcntrl_l
                 U iswdigit_l
                 U iswlower_l
                 U iswprint_l
                 U iswpunct_l
                 U iswspace_l
                 U iswupper_l
                 U iswxdigit_l
                 U isxdigit
                 U isxdigit_l
0000000000115ec0 T llama_adapter_get_alora_invocation_tokens
0000000000115eac T llama_adapter_get_alora_n_invocation_tokens
0000000000115ea8 T llama_adapter_lora_free
0000000000113e20 T llama_adapter_lora_init
0000000000115dc0 T llama_adapter_meta_count
0000000000115dc8 T llama_adapter_meta_key_by_index
0000000000115c8c T llama_adapter_meta_val_str
0000000000115e38 T llama_adapter_meta_val_str_by_index
00000000001e9cf0 T llama_add_bos_token
00000000001e9cfc T llama_add_eos_token
000000000012fe8c T llama_attach_threadpool
000000000010f4e0 T llama_backend_free
000000000010f450 T llama_backend_init
000000000011e7b0 T llama_batch_free
000000000011e6c8 T llama_batch_get_one
000000000011e6e4 T llama_batch_init
0000000000110864 T llama_chat_apply_template
0000000000125d4c T llama_chat_builtin_templates
000000000012fb50 T llama_context_default_params
0000000000130414 T llama_copy_state_data
00000000001308e0 T llama_decode
000000000012fed4 T llama_detach_threadpool
00000000001e9d5c T llama_detokenize
00000000001308a8 T llama_encode
000000000010ca1c T llama_flash_attn_type_name
000000000012fe34 T llama_free
00000000001c0764 T llama_free_model
0000000000130098 T llama_get_embeddings
00000000001300b8 T llama_get_embeddings_ith
00000000001300e0 T llama_get_embeddings_seq
0000000000130034 T llama_get_logits
0000000000130054 T llama_get_logits_ith
0000000000130340 T llama_get_memory
000000000012fe7c T llama_get_model
00000000001301f0 T llama_get_sampled_candidates_count_ith
00000000001301c8 T llama_get_sampled_candidates_ith
000000000013021c T llama_get_sampled_logits_count_ith
00000000001301a0 T llama_get_sampled_logits_ith
0000000000130248 T llama_get_sampled_probs_count_ith
0000000000130178 T llama_get_sampled_probs_ith
0000000000130150 T llama_get_sampled_token_ith
000000000013040c T llama_get_state_size
000000000012fb84 T llama_init_from_model
000000000010f4e4 T llama_load_model_from_file
00000000001304cc T llama_load_session_file
0000000000155f60 T llama_log_get
0000000000155f64 T llama_log_set
000000000010f3b8 T llama_max_devices
00000000001348d0 T llama_max_parallel_sequences
000000000010f3c0 T llama_max_tensor_buft_overrides
0000000000130b14 T llama_memory_breakdown_print
00000000001303f8 T llama_memory_can_shift
0000000000130348 T llama_memory_clear
00000000001303a0 T llama_memory_seq_add
0000000000130378 T llama_memory_seq_cp
00000000001303b4 T llama_memory_seq_div
000000000013038c T llama_memory_seq_keep
00000000001303e0 T llama_memory_seq_pos_max
00000000001303c8 T llama_memory_seq_pos_min
0000000000130360 T llama_memory_seq_rm
00000000001c0b6c T llama_model_chat_template
00000000001c07f4 T llama_model_cls_label
00000000001c0c90 T llama_model_decoder_start_token
00000000001c072c T llama_model_default_params
00000000001c0ac4 T llama_model_desc
00000000001c0784 T llama_model_free
00000000001c0758 T llama_model_get_vocab
00000000001c0c80 T llama_model_has_decoder
00000000001c0c6c T llama_model_has_encoder
00000000001c0cac T llama_model_is_diffusion
00000000001c0ca4 T llama_model_is_hybrid
00000000001c0c9c T llama_model_is_recurrent
000000000010f518 T llama_model_load_from_file
0000000000110544 T llama_model_load_from_splits
00000000001c09ac T llama_model_meta_count
00000000001c09dc T llama_model_meta_key_by_index
00000000001c09b8 T llama_model_meta_key_str
00000000001c086c T llama_model_meta_val_str
00000000001c0a50 T llama_model_meta_val_str_by_index
00000000001c07ec T llama_model_n_cls_out
00000000001c07a4 T llama_model_n_ctx_train
00000000001c07ac T llama_model_n_embd
00000000001c07b4 T llama_model_n_embd_inp
00000000001c07bc T llama_model_n_embd_out
00000000001c07cc T llama_model_n_head
00000000001c07d8 T llama_model_n_head_kv
00000000001c07c4 T llama_model_n_layer
00000000001c0c60 T llama_model_n_params
00000000001c07e4 T llama_model_n_swa
00000000001c9ab4 T llama_model_quantize
00000000001c9a84 T llama_model_quantize_default_params
00000000001c0864 T llama_model_rope_freq_scale_train
0000000000186208 T llama_model_rope_type
000000000011074c T llama_model_save_to_file
00000000001c0b60 T llama_model_size
000000000012fe64 T llama_n_batch
000000000012fe54 T llama_n_ctx
000000000012fe5c T llama_n_ctx_seq
00000000001c0840 T llama_n_ctx_train
00000000001c0848 T llama_n_embd
000000000012fdf0 T llama_new_context_with_model
00000000001c0858 T llama_n_head
00000000001c0850 T llama_n_layer
000000000012fe74 T llama_n_seq_max
000000000012ff4c T llama_n_threads
000000000012ff54 T llama_n_threads_batch
000000000012fe6c T llama_n_ubatch
000000000010f47c T llama_numa_init
00000000001e9858 T llama_n_vocab
00000000001324d4 T llama_opt_epoch
00000000001324a8 T llama_opt_init
00000000001324a0 T llama_opt_param_filter_all
000000000010ca58 T llama_params_fit
000000000013091c T llama_perf_context
000000000013097c T llama_perf_context_print
0000000000130ae8 T llama_perf_context_reset
00000000001d4284 T llama_perf_sampler
00000000001d42e8 T llama_perf_sampler_print
00000000001d435c T llama_perf_sampler_reset
000000000012fe84 T llama_pooling_type
0000000000110cfc T llama_print_system_info
00000000001d1c68 T llama_sampler_accept
00000000001d1c80 T llama_sampler_apply
00000000001d214c T llama_sampler_chain_add
000000000010f3b0 T llama_sampler_chain_default_params
00000000001d2248 T llama_sampler_chain_get
00000000001d1d50 T llama_sampler_chain_init
00000000001d2310 T llama_sampler_chain_n
00000000001d2298 T llama_sampler_chain_remove
00000000001d1cd4 T llama_sampler_clone
00000000001d1d24 T llama_sampler_free
00000000001d41dc T llama_sampler_get_seed
00000000001d1c24 T llama_sampler_init
00000000001d3ed4 T llama_sampler_init_adaptive_p
00000000001d2378 T llama_sampler_init_dist
00000000001d3360 T llama_sampler_init_dry
00000000001d2b58 T llama_sampler_init_grammar
00000000001d3164 T llama_sampler_init_grammar_lazy
00000000001d3194 T llama_sampler_init_grammar_lazy_patterns
00000000001d2324 T llama_sampler_init_greedy
00000000001d40bc T llama_sampler_init_infill
00000000001d3fd0 T llama_sampler_init_logit_bias
00000000001d2698 T llama_sampler_init_min_p
00000000001d29fc T llama_sampler_init_mirostat
00000000001d2ab8 T llama_sampler_init_mirostat_v2
00000000001d31cc T llama_sampler_init_penalties
00000000001d27bc T llama_sampler_init_temp
00000000001d2858 T llama_sampler_init_temp_ext
00000000001d2560 T llama_sampler_init_top_k
00000000001d32f0 T llama_sampler_init_top_n_sigma
00000000001d25f0 T llama_sampler_init_top_p
00000000001d2738 T llama_sampler_init_typical
00000000001d2910 T llama_sampler_init_xtc
00000000001d1c4c T llama_sampler_name
00000000001d1cbc T llama_sampler_reset
00000000001d1da4 T llama_sampler_sample
000000000013057c T llama_save_session_file
00000000001286c0 T llama_set_abort_callback
00000000001302bc T llama_set_adapter_cvec
0000000000130274 T llama_set_adapters_lora
000000000012ff98 T llama_set_causal_attn
000000000012ff5c T llama_set_embeddings
000000000012ff08 T llama_set_n_threads
000000000013014c T llama_set_sampler
0000000000130470 T llama_set_state_data
000000000012ffe8 T llama_set_warmup
0000000000110a7c T llama_split_path
0000000000110abc T llama_split_prefix
0000000000130440 T llama_state_get_data
0000000000130410 T llama_state_get_size
00000000001304d0 T llama_state_load_file
0000000000130580 T llama_state_save_file
0000000000130630 T llama_state_seq_get_data
0000000000130674 T llama_state_seq_get_data_ext
0000000000130624 T llama_state_seq_get_size
000000000013062c T llama_state_seq_get_size_ext
00000000001307f0 T llama_state_seq_load_file
0000000000130748 T llama_state_seq_save_file
00000000001306bc T llama_state_seq_set_data
0000000000130700 T llama_state_seq_set_data_ext
000000000013049c T llama_state_set_data
000000000010f3e8 T llama_supports_gpu_offload
000000000010f3d8 T llama_supports_mlock
000000000010f3c8 T llama_supports_mmap
000000000010f430 T llama_supports_rpc
0000000000130030 T llama_synchronize
000000000010cbc8 T llama_time_us
00000000001e9c9c T llama_token_bos
00000000001e9cc0 T llama_token_cls
00000000001e9ca8 T llama_token_eos
00000000001e9cb4 T llama_token_eot
00000000001e9d20 T llama_token_fim_mid
00000000001e9d2c T llama_token_fim_pad
00000000001e9d08 T llama_token_fim_pre
00000000001e9d38 T llama_token_fim_rep
00000000001e9d44 T llama_token_fim_sep
00000000001e9d14 T llama_token_fim_suf
00000000001e9bac T llama_token_get_attr
00000000001e9b54 T llama_token_get_score
00000000001e9af0 T llama_token_get_text
00000000001e9c54 T llama_token_is_control
00000000001e9c04 T llama_token_is_eog
00000000001e9d50 T llama_tokenize
00000000001e9cd8 T llama_token_nl
00000000001e9ce4 T llama_token_pad
00000000001e9ccc T llama_token_sep
00000000001e9d54 T llama_token_to_piece
00000000001e9a24 T llama_vocab_bos
00000000001e9a48 T llama_vocab_cls
00000000001e9a30 T llama_vocab_eos
00000000001e9a3c T llama_vocab_eot
00000000001e9ab4 T llama_vocab_fim_mid
00000000001e9ac0 T llama_vocab_fim_pad
00000000001e9a9c T llama_vocab_fim_pre
00000000001e9acc T llama_vocab_fim_rep
00000000001e9ad8 T llama_vocab_fim_sep
00000000001e9aa8 T llama_vocab_fim_suf
00000000001e9a78 T llama_vocab_get_add_bos
00000000001e9a84 T llama_vocab_get_add_eos
00000000001e9a90 T llama_vocab_get_add_sep
00000000001e9934 T llama_vocab_get_attr
00000000001e98dc T llama_vocab_get_score
00000000001e9878 T llama_vocab_get_text
00000000001e99dc T llama_vocab_is_control
00000000001e998c T llama_vocab_is_eog
00000000001e9ae4 T llama_vocab_mask
00000000001e9a60 T llama_vocab_nl
00000000001e9844 T llama_vocab_n_tokens
00000000001e9a6c T llama_vocab_pad
00000000001e9a54 T llama_vocab_sep
00000000001e986c T llama_vocab_type
                 U localeconv
                 U log
                 U log2f
                 U logf
                 U lseek
                 U malloc
                 U mbrlen
                 U mbrtowc
                 U mbsnrtowcs
                 U mbsrtowcs
                 U mbtowc
                 U memchr
                 U memcmp
                 U memcpy
                 U memmove
                 U memset
                 U mlock
                 U mmap
                 U munmap
                 U nanosleep
                 U newlocale
                 U open
                 U posix_fadvise
                 U posix_madvise
                 U posix_memalign
                 U pow
                 U powf
                 U pthread_cond_broadcast
                 U pthread_cond_destroy
                 U pthread_cond_signal
                 U pthread_cond_timedwait
                 U pthread_cond_wait
                 U pthread_create
                 U pthread_detach
                 U pthread_getspecific
                 U pthread_join
                 U pthread_key_create
                 U pthread_mutexattr_destroy
                 U pthread_mutexattr_init
                 U pthread_mutexattr_settype
                 U pthread_mutex_destroy
                 U pthread_mutex_init
                 U pthread_mutex_lock
                 U pthread_mutex_trylock
                 U pthread_mutex_unlock
                 U pthread_once
                 U pthread_self
                 U pthread_setspecific
                 U read
                 U realloc
                 U setlocale
                 U snprintf
                 U sscanf
                 U stderr
                 U stdout
                 U strcmp
                 U strcoll_l
                 U strerror
                 U strerror_r
                 U strftime_l
                 U strlen
                 U strncmp
                 U strncpy
                 U strstr
                 U strtod
                 U strtod_l
                 U strtof
                 U strtof_l
                 U strtol
                 U strtold
                 U strtold_l
                 U strtoll
                 U strtoul
                 U strtoull
                 U strxfrm_l
                 U swprintf
                 U syscall
                 U sysconf
                 U tolower
                 U tolower_l
                 U toupper
                 U toupper_l
                 U towlower_l
                 U towupper_l
00000000002b6fa0 D unicode_map_lowercase
00000000002b6fb0 D unicode_map_uppercase
00000000002b6f90 D unicode_ranges_flags
00000000002b6fc0 D unicode_ranges_nfd
00000000002ecdf0 B unicode_set_whitespace
                 U _Unwind_DeleteException
                 U _Unwind_GetIP
                 U _Unwind_GetLanguageSpecificData
                 U _Unwind_GetRegionStart
                 U _Unwind_RaiseException
                 U _Unwind_Resume
                 U _Unwind_SetGR
                 U _Unwind_SetIP
                 U uselocale
                 U vasprintf
                 U vfprintf
                 U vsnprintf
                 U vsscanf
                 U wcrtomb
                 U wcscoll_l
                 U wcslen
                 U wcsnrtombs
                 U wcstod
                 U wcstof
                 U wcstol
                 U wcstold
                 U wcstoll
                 U wcstoul
                 U wcstoull
                 U wcsxfrm_l
                 U wctob
                 U wmemchr
                 U wmemcmp
00000000001560e0 T _Z11replace_allRNSt3__112basic_stringIcNS_11char_traitsIcEENS_9allocatorIcEEEERKS5_S8_
0000000000119750 T _Z13llm_arch_name8llm_arch
000000000017f9a4 T _Z13llm_type_name8llm_type
00000000001566f8 T _Z14gguf_kv_to_strPK12gguf_contexti
0000000000171600 T _Z14llama_path_maxv
00000000001f8490 T _Z15unicode_tolowerj
00000000001f7224 T _Z16unicode_len_utf8c
0000000000155fcc T _Z18llama_log_internal14ggml_log_levelPKcz
0000000000119918 T _Z18llm_arch_is_hybridRK8llm_arch
00000000001f84f8 T _Z18unicode_cpt_is_hanj
00000000001198a8 T _Z19llm_tensor_info_for10llm_tensor
00000000001f74cc T _Z19unicode_cpt_to_utf8j
00000000001f8550 T _Z19unicode_regex_splitRKNSt3__112basic_stringIcNS_11char_traitsIcEENS_9allocatorIcEEEERKNS_6vectorIS5_NS3_IS5_EEEE
0000000000138fac T _Z20llama_grammar_acceptP13llama_grammarj
00000000001197c4 T _Z20llm_arch_from_stringRKNSt3__112basic_stringIcNS_11char_traitsIcEENS_9allocatorIcEEEE
00000000001f7cc8 T _Z20unicode_byte_to_utf8h
00000000001f817c T _Z20unicode_utf8_to_byteRKNSt3__112basic_stringIcNS_11char_traitsIcEENS_9allocatorIcEEEE
000000000011997c T _Z21llm_arch_is_diffusionRK8llm_arch
00000000001198f4 T _Z21llm_arch_is_recurrentRK8llm_arch
00000000001f7238 T _Z21unicode_cpt_from_utf8RKNSt3__112basic_stringIcNS_11char_traitsIcEENS_9allocatorIcEEEERm
00000000001f773c T _Z22unicode_cpts_from_utf8RKNSt3__112basic_stringIcNS_11char_traitsIcEENS_9allocatorIcEEEE
0000000000172ac8 T _Z23llama_file_version_name10llama_fver
000000000013be90 T _Z23llama_grammar_free_implP13llama_grammar
0000000000138f9c T _Z23llama_grammar_get_rulesPK13llama_grammar
000000000013afbc T _Z23llama_grammar_init_implPK11llama_vocabPKcS3_bPS3_mPKim
000000000013a6d0 T _Z23llama_grammar_init_implPK11llama_vocabPPK21llama_grammar_elementmm
000000000012117c T _Z23llm_chat_apply_template17llm_chat_templateRKNSt3__16vectorIPK18llama_chat_messageNS0_9allocatorIS4_EEEERNS0_12basic_stringIcNS0_11char_traitsIcEENS5_IcEEEEb
000000000013db14 T _Z24llama_grammar_accept_strR13llama_grammarRKNSt3__112basic_stringIcNS1_11char_traitsIcEENS1_9allocatorIcEEEE
000000000013c398 T _Z24llama_grammar_apply_implRK13llama_grammarP22llama_token_data_array
000000000013beb0 T _Z24llama_grammar_clone_implRK13llama_grammar
0000000000138fa4 T _Z24llama_grammar_get_stacksP13llama_grammar
0000000000120900 T _Z24llm_chat_detect_templateRKNSt3__112basic_stringIcNS_11char_traitsIcEENS_9allocatorIcEEEE
00000000001565d0 T _Z25llama_format_tensor_shapePK11ggml_tensor
000000000015649c T _Z25llama_format_tensor_shapeRKNSt3__16vectorIlNS_9allocatorIlEEEE
000000000013cd9c T _Z25llama_grammar_accept_implR13llama_grammari
000000000013d2fc T _Z26llama_grammar_accept_tokenR13llama_grammariRKNSt3__112basic_stringIcNS1_11char_traitsIcEENS1_9allocatorIcEEEE
0000000000155fa4 T _Z26llama_log_callback_default14ggml_log_levelPKcPv
00000000001208c8 T _Z26llm_chat_template_from_strRKNSt3__112basic_stringIcNS_11char_traitsIcEENS_9allocatorIcEEEE
00000000001f799c T _Z26unicode_cpt_flags_from_cptj
00000000001f760c T _Z26unicode_cpts_normalize_nfdRKNSt3__16vectorIjNS_9allocatorIjEEEE
0000000000169c98 T _Z27llama_memory_status_combine19llama_memory_statusS_
0000000000169cd8 T _Z27llama_memory_status_is_fail19llama_memory_status
00000000001f7c2c T _Z27unicode_cpt_flags_from_utf8RKNSt3__112basic_stringIcNS_11char_traitsIcEENS_9allocatorIcEEEE
000000000017f9d0 T _Z28llama_rope_scaling_type_name23llama_rope_scaling_type
00000000001c0cb4 T _Z29llama_internal_get_tensor_mapPK11llama_model
000000000014b628 T _Z30llama_relative_position_bucketiimb
00000000001d3c80 T _Z30llama_sampler_init_dry_testingiffiiRKNSt3__16vectorINS0_IiNS_9allocatorIiEEEENS1_IS3_EEEE
000000000013936c T _Z41llama_grammar_reject_candidates_for_stackRKNSt3__16vectorINS0_I21llama_grammar_elementNS_9allocatorIS1_EEEENS2_IS4_EEEERKNS0_IPKS1_NS2_ISA_EEEERKNS0_I23llama_grammar_candidateNS2_ISF_EEEE
00000000001562f8 T _Z6formatPKcz
                 U _ZdaPv
                 U _ZdlPv
00000000001713d8 T _ZN10llama_file15read_raw_unsafeEPvm
0000000000171820 W _ZN10llama_file4impl15read_raw_unsafeEPvm
00000000001721ac W _ZN10llama_file4impl18read_aligned_chunkEPvm
0000000000172624 W _ZN10llama_file4impl7init_fdEv
0000000000172300 W _ZN10llama_file4impl7init_fpEPKc
00000000001724e4 W _ZN10llama_file4implC2EPKcS2_b
00000000001713b8 T _ZN10llama_file8read_rawEPvm
00000000001713e0 T _ZN10llama_file8read_u32Ev
000000000017129c T _ZN10llama_fileC1EPKcS1_b
000000000017129c T _ZN10llama_fileC2EPKcS1_b
00000000001712fc T _ZN10llama_fileD1Ev
00000000001712fc T _ZN10llama_fileD2Ev
00000000001714e8 T _ZN10llama_mmap14unmap_fragmentEmm
0000000000171c3c W _ZN10llama_mmap4impl14unmap_fragmentEmm
0000000000172750 W _ZN10llama_mmap4implC2EP10llama_filemb
0000000000172a28 W _ZN10llama_mmap4implD2Ev
000000000009d083 R _ZN10llama_mmap9SUPPORTEDE
0000000000171444 T _ZN10llama_mmapC1EP10llama_filemb
0000000000171444 T _ZN10llama_mmapC2EP10llama_filemb
00000000001714a4 T _ZN10llama_mmapD1Ev
00000000001714a4 T _ZN10llama_mmapD2Ev
00000000001f2e3c W _ZN10naive_trie6insertEPKcmi
0000000000132790 W _ZN11llama_crossD2Ev
000000000017152c T _ZN11llama_mlock4initEPv
000000000017156c T _ZN11llama_mlock7grow_toEm
000000000009d084 R _ZN11llama_mlock9SUPPORTEDE
00000000001714f0 T _ZN11llama_mlockC1Ev
00000000001714f0 T _ZN11llama_mlockC2Ev
0000000000171514 T _ZN11llama_mlockD1Ev
0000000000171514 T _ZN11llama_mlockD2Ev
000000000017ff30 T _ZN11llama_model10load_statsER18llama_model_loader
00000000001862c0 T _ZN11llama_model10load_vocabER18llama_model_loader
00000000001800a4 T _ZN11llama_model12load_hparamsER18llama_model_loader
000000000018630c T _ZN11llama_model12load_tensorsER18llama_model_loader
00000000001c7d40 W _ZN11llama_model4implD2Ev
000000000017ff40 T _ZN11llama_model9load_archER18llama_model_loader
000000000017faa8 T _ZN11llama_modelC1ERK18llama_model_params
000000000017faa8 T _ZN11llama_modelC2ERK18llama_model_params
000000000017fd7c T _ZN11llama_modelD1Ev
000000000017fd7c T _ZN11llama_modelD2Ev
00000000001e3d60 T _ZN11llama_vocab4impl14init_tokenizerE16llama_vocab_type
00000000001df7cc T _ZN11llama_vocab4impl4loadER18llama_model_loaderRK6LLM_KV
00000000001f6928 W _ZN11llama_vocab4implD2Ev
00000000001e88f0 T _ZN11llama_vocab4loadER18llama_model_loaderRK6LLM_KV
00000000001e8814 T _ZN11llama_vocabC1Ev
00000000001e8814 T _ZN11llama_vocabC2Ev
00000000001e88c4 T _ZN11llama_vocabD1Ev
00000000001e88c4 T _ZN11llama_vocabD2Ev
0000000000118ba0 T _ZN11LLM_TN_IMPLC1E8llm_arch10llm_tensorPKcii
0000000000118ba0 T _ZN11LLM_TN_IMPLC2E8llm_arch10llm_tensorPKcii
00000000001200d8 W _ZN12llama_ubatch6data_tD2Ev
000000000011ed54 W _ZN12llama_ubatchD2Ev
0000000000129e0c T _ZN13llama_context10get_logitsEv
000000000012e770 T _ZN13llama_context10perf_resetEv
000000000012ae68 T _ZN13llama_context10set_warmupEb
0000000000128394 T _ZN13llama_context11set_samplerEiP13llama_sampler
0000000000129708 T _ZN13llama_context11synchronizeEv
000000000012b55c T _ZN13llama_context13graph_computeEP11ggml_cgraphb
0000000000129878 T _ZN13llama_context13graph_reserveEjjjPK22llama_memory_context_ibPm
0000000000129c44 T _ZN13llama_context13memory_updateEb
0000000000132738 W _ZN13llama_context13sampling_infoD2Ev
0000000000128aa0 T _ZN13llama_context13sched_reserveEv
000000000012acf8 T _ZN13llama_context13set_n_threadsEii
000000000012a5a8 T _ZN13llama_context14get_embeddingsEv
000000000012a49c T _ZN13llama_context14get_logits_ithEi
000000000012f268 T _ZN13llama_context14opt_epoch_iterEP16ggml_opt_datasetP15ggml_opt_resultRKNSt3__16vectorIiNS4_9allocatorIiEEEESA_R11llama_batchPFvbP16ggml_opt_contextS1_S3_lllEblll
0000000000129e24 T _ZN13llama_context14output_reorderEv
0000000000128760 T _ZN13llama_context14output_reserveEi
000000000012b19c T _ZN13llama_context14process_ubatchERK12llama_ubatch14llm_graph_typeP22llama_memory_context_iR11ggml_status
000000000012addc T _ZN13llama_context14set_embeddingsEb
000000000012da1c T _ZN13llama_context14state_get_dataEPhm
000000000012d820 T _ZN13llama_context14state_get_sizeEv
000000000012daa8 T _ZN13llama_context14state_set_dataEPKhm
000000000012ae18 T _ZN13llama_context15set_causal_attnEb
000000000012e0a4 T _ZN13llama_context15state_load_fileEPKcPimPm
000000000012db34 T _ZN13llama_context15state_read_dataER15llama_io_read_i
000000000012e260 T _ZN13llama_context15state_save_fileEPKcPKim
000000000012b124 T _ZN13llama_context16set_adapter_cvecEPKfmiii
000000000012d8a8 T _ZN13llama_context16state_write_dataER16llama_io_write_i
000000000012ac7c T _ZN13llama_context17attach_threadpoolEP15ggml_threadpoolS1_
000000000012acc4 T _ZN13llama_context17detach_threadpoolEv
000000000012aeb0 T _ZN13llama_context17set_adapters_loraEPP18llama_adapter_loramPf
000000000012a5c8 T _ZN13llama_context18get_embeddings_ithEi
000000000012a6d4 T _ZN13llama_context18get_embeddings_seqEi
000000000012ad3c T _ZN13llama_context18set_abort_callbackEPFbPvES0_
000000000012def8 T _ZN13llama_context18state_seq_get_dataEiPhmj
000000000012de14 T _ZN13llama_context18state_seq_get_sizeEij
000000000012dfb4 T _ZN13llama_context18state_seq_set_dataEiPKhmj
000000000012e350 T _ZN13llama_context19state_seq_load_fileEiPKcPimPm
000000000012e070 T _ZN13llama_context19state_seq_read_dataER15llama_io_read_iij
000000000012e5a4 T _ZN13llama_context19state_seq_save_fileEiPKcPKim
000000000012dec4 T _ZN13llama_context20state_seq_write_dataER16llama_io_write_iij
000000000012a7f8 T _ZN13llama_context21get_sampled_probs_ithEi
000000000012a724 T _ZN13llama_context21get_sampled_token_ithEi
000000000012afbc T _ZN13llama_context22adapters_lora_are_sameEPP18llama_adapter_loramPf
000000000012a8d8 T _ZN13llama_context22get_sampled_logits_ithEi
000000000012abc8 T _ZN13llama_context23get_sampled_probs_countEi
000000000012ab00 T _ZN13llama_context24get_sampled_logits_countEi
000000000012a9b8 T _ZN13llama_context26get_sampled_candidates_ithEi
000000000012aa4c T _ZN13llama_context28get_sampled_candidates_countEi
000000000012c044 T _ZN13llama_context6decodeERK11llama_batch
000000000012b62c T _ZN13llama_context6encodeERK11llama_batch
000000000012ec3c T _ZN13llama_context8opt_initEP11llama_model16llama_opt_params
000000000012f880 T _ZN13llama_context9opt_epochEP16ggml_opt_datasetP15ggml_opt_resultS3_lPFvbP16ggml_opt_contextS1_S3_lllES7_
0000000000126d74 T _ZN13llama_contextC1ERK11llama_model20llama_context_params
0000000000126d74 T _ZN13llama_contextC2ERK11llama_model20llama_context_params
00000000001293a8 T _ZN13llama_contextD1Ev
00000000001293a8 T _ZN13llama_contextD2Ev
000000000013e314 W _ZN13llama_grammarD2Ev
000000000015573c T _ZN13llama_hparams15set_swa_patternEjb
000000000022e06c T _ZN13llm_build_mptC1ERK11llama_modelRK16llm_graph_params
000000000022e06c T _ZN13llm_build_mptC2ERK11llama_modelRK16llm_graph_params
000000000022e6b4 W _ZN13llm_build_mptD0Ev
0000000000236b48 T _ZN13llm_build_plmC1ERK11llama_modelRK16llm_graph_params
0000000000236b48 T _ZN13llm_build_plmC2ERK11llama_modelRK16llm_graph_params
000000000023742c W _ZN13llm_build_plmD0Ev
00000000001f2b80 W _ZN13llm_tokenizerD2Ev
0000000000159250 T _ZN14llama_kv_cache10init_batchER18llama_batch_allocrjb
00000000001623e8 T _ZN14llama_kv_cache10state_readER15llama_io_read_iij
0000000000159de4 T _ZN14llama_kv_cache11init_updateEP13llama_contextb
000000000015ada0 T _ZN14llama_kv_cache12apply_ubatchERKNS_9slot_infoERK12llama_ubatch
0000000000162dd0 T _ZN14llama_kv_cache15state_read_dataER15llama_io_read_ijjRKNS_9slot_infoE
0000000000162658 T _ZN14llama_kv_cache15state_read_metaER15llama_io_read_ijjRNS_9slot_infoEi
0000000000164134 W _ZN14llama_kv_cache16stream_copy_infoD2Ev
0000000000157fd0 T _ZN14llama_kv_cache5clearEb
0000000000158388 T _ZN14llama_kv_cache6seq_cpEiiii
0000000000158120 T _ZN14llama_kv_cache6seq_rmEiii
000000000015b260 T _ZN14llama_kv_cache6updateEP13llama_contextbRKNS_16stream_copy_infoE
00000000001594dc T _ZN14llama_kv_cache7prepareERKNSt3__16vectorI12llama_ubatchNS0_9allocatorIS2_EEEE
0000000000158bc0 T _ZN14llama_kv_cache7seq_addEiiii
0000000000158d94 T _ZN14llama_kv_cache7seq_divEiiii
0000000000164040 W _ZN14llama_kv_cache8kv_layerD2Ev
0000000000158ad4 T _ZN14llama_kv_cache8seq_keepEi
0000000000159d9c T _ZN14llama_kv_cache9init_fullEv
000000000016500c W _ZN14llama_kv_cache9slot_info6resizeEm
0000000000164b6c W _ZN14llama_kv_cache9slot_infoC2ERKS0_
0000000000164cb8 W _ZN14llama_kv_cache9slot_infoD2Ev
0000000000156d70 T _ZN14llama_kv_cacheC1ERK11llama_model9ggml_typeS3_bbbjjjj14llama_swa_typeRKNSt3__18functionIFbiEEERKNS6_IFiiEEE
0000000000156d70 T _ZN14llama_kv_cacheC2ERK11llama_model9ggml_typeS3_bbbjjjj14llama_swa_typeRKNSt3__18functionIFbiEEERKNS6_IFiiEEE
00000000001652e0 W _ZN14llama_kv_cacheD0Ev
00000000001651a0 W _ZN14llama_kv_cacheD2Ev
0000000000165614 W _ZN14llama_kv_cells10seq_pos_rmEj
0000000000165734 W _ZN14llama_kv_cells11seq_pos_addEj
0000000000164424 W _ZN14llama_kv_cells2rmEj
0000000000164db8 W _ZN14llama_kv_cells3setERKNSt3__16vectorIjNS0_9allocatorIjEEEERKS_
0000000000163ed0 W _ZN14llama_kv_cells6resizeEj
00000000001641d4 W _ZN14llama_kv_cells6seq_rmEji
0000000000164628 W _ZN14llama_kv_cells7pos_addEji
0000000000164520 W _ZN14llama_kv_cells7seq_addEji
000000000016475c W _ZN14llama_kv_cells8seq_keepEji
0000000000164d34 W _ZN14llama_kv_cellsD2Ev
000000000020fc0c T _ZN14llm_build_bertC1ERK11llama_modelRK16llm_graph_params
000000000020fc0c T _ZN14llm_build_bertC2ERK11llama_modelRK16llm_graph_params
000000000021055c W _ZN14llm_build_bertD0Ev
00000000002137a4 T _ZN14llm_build_dbrxC1ERK11llama_modelRK16llm_graph_params
00000000002137a4 T _ZN14llm_build_dbrxC2ERK11llama_modelRK16llm_graph_params
0000000000213d1c W _ZN14llm_build_dbrxD0Ev
0000000000213d48 T _ZN14llm_build_deciC1ERK11llama_modelRK16llm_graph_params
0000000000213d48 T _ZN14llm_build_deciC2ERK11llama_modelRK16llm_graph_params
0000000000214434 W _ZN14llm_build_deciD0Ev
000000000021f954 T _ZN14llm_build_glm4C1ERK11llama_modelRK16llm_graph_params
000000000021f954 T _ZN14llm_build_glm4C2ERK11llama_modelRK16llm_graph_params
00000000002200e0 W _ZN14llm_build_glm4D0Ev
000000000022010c T _ZN14llm_build_gpt2C1ERK11llama_modelRK16llm_graph_params
000000000022010c T _ZN14llm_build_gpt2C2ERK11llama_modelRK16llm_graph_params
0000000000220644 W _ZN14llm_build_gpt2D0Ev
0000000000221f04 T _ZN14llm_build_grokC1ERK11llama_modelRK16llm_graph_params
0000000000221f04 T _ZN14llm_build_grokC2ERK11llama_modelRK16llm_graph_params
000000000022268c W _ZN14llm_build_grokD0Ev
00000000002241f4 T _ZN14llm_build_jaisC1ERK11llama_modelRK16llm_graph_params
00000000002241f4 T _ZN14llm_build_jaisC2ERK11llama_modelRK16llm_graph_params
00000000002246b0 W _ZN14llm_build_jaisD0Ev
000000000022731c W _ZN14llm_build_lfm2ILb0EEC1ERK11llama_modelRK16llm_graph_params
000000000022731c W _ZN14llm_build_lfm2ILb0EEC2ERK11llama_modelRK16llm_graph_params
0000000000227f7c W _ZN14llm_build_lfm2ILb0EED0Ev
00000000002266e8 W _ZN14llm_build_lfm2ILb1EEC1ERK11llama_modelRK16llm_graph_params
00000000002266e8 W _ZN14llm_build_lfm2ILb1EEC2ERK11llama_modelRK16llm_graph_params
0000000000227f50 W _ZN14llm_build_lfm2ILb1EED0Ev
000000000022f950 T _ZN14llm_build_olmoC1ERK11llama_modelRK16llm_graph_params
000000000022f950 T _ZN14llm_build_olmoC2ERK11llama_modelRK16llm_graph_params
000000000022ff64 W _ZN14llm_build_olmoD0Ev
0000000000233024 T _ZN14llm_build_phi2C1ERK11llama_modelRK16llm_graph_params
0000000000233024 T _ZN14llm_build_phi2C2ERK11llama_modelRK16llm_graph_params
0000000000233654 W _ZN14llm_build_phi2D0Ev
0000000000233680 W _ZN14llm_build_phi3ILb0EEC1ERK11llama_modelRK16llm_graph_params
0000000000233680 W _ZN14llm_build_phi3ILb0EEC2ERK11llama_modelRK16llm_graph_params
0000000000234420 W _ZN14llm_build_phi3ILb0EED0Ev
0000000000233d50 W _ZN14llm_build_phi3ILb1EEC1ERK11llama_modelRK16llm_graph_params
0000000000233d50 W _ZN14llm_build_phi3ILb1EEC2ERK11llama_modelRK16llm_graph_params
000000000023444c W _ZN14llm_build_phi3ILb1EED0Ev
0000000000237458 T _ZN14llm_build_qwenC1ERK11llama_modelRK16llm_graph_params
0000000000237458 T _ZN14llm_build_qwenC2ERK11llama_modelRK16llm_graph_params
0000000000237974 W _ZN14llm_build_qwenD0Ev
000000000023f15c T _ZN14llm_build_rnd1C1ERK11llama_modelRK16llm_graph_params
000000000023f15c T _ZN14llm_build_rnd1C2ERK11llama_modelRK16llm_graph_params
000000000023f724 W _ZN14llm_build_rnd1D0Ev
0000000000156d1c T _ZN15llama_io_read_i11read_stringERNSt3__112basic_stringIcNS0_11char_traitsIcEENS0_9allocatorIcEEEE
0000000000132c04 W _ZN15llama_io_read_iD2Ev
000000000020c7fc T _ZN15llm_build_afmoeC1ERK11llama_modelRK16llm_graph_params
000000000020c7fc T _ZN15llm_build_afmoeC2ERK11llama_modelRK16llm_graph_params
000000000020d0a8 W _ZN15llm_build_afmoeD0Ev
000000000020d770 T _ZN15llm_build_arceeC1ERK11llama_modelRK16llm_graph_params
000000000020d770 T _ZN15llm_build_arceeC2ERK11llama_modelRK16llm_graph_params
000000000020ddb8 W _ZN15llm_build_arceeD0Ev
0000000000210d08 T _ZN15llm_build_bloomC1ERK11llama_modelRK16llm_graph_params
0000000000210d08 T _ZN15llm_build_bloomC2ERK11llama_modelRK16llm_graph_params
0000000000211210 W _ZN15llm_build_bloomD0Ev
000000000021703c T _ZN15llm_build_dots1C1ERK11llama_modelRK16llm_graph_params
000000000021703c T _ZN15llm_build_dots1C2ERK11llama_modelRK16llm_graph_params
0000000000217714 W _ZN15llm_build_dots1D0Ev
0000000000217740 T _ZN15llm_build_dreamC1ERK11llama_modelRK16llm_graph_params
0000000000217740 T _ZN15llm_build_dreamC2ERK11llama_modelRK16llm_graph_params
0000000000217cc4 W _ZN15llm_build_dreamD0Ev
000000000021bc38 T _ZN15llm_build_gemmaC1ERK11llama_modelRK16llm_graph_params
000000000021bc38 T _ZN15llm_build_gemmaC2ERK11llama_modelRK16llm_graph_params
000000000021c188 W _ZN15llm_build_gemmaD0Ev
00000000002246dc T _ZN15llm_build_jais2C1ERK11llama_modelRK16llm_graph_params
00000000002246dc T _ZN15llm_build_jais2C2ERK11llama_modelRK16llm_graph_params
0000000000224c9c W _ZN15llm_build_jais2D0Ev
0000000000224cc8 T _ZN15llm_build_jambaC1ERK11llama_modelRK16llm_graph_params
0000000000224cc8 T _ZN15llm_build_jambaC2ERK11llama_modelRK16llm_graph_params
00000000002251f4 W _ZN15llm_build_jambaD0Ev
0000000000228598 T _ZN15llm_build_lladaC1ERK11llama_modelRK16llm_graph_params
0000000000228598 T _ZN15llm_build_lladaC2ERK11llama_modelRK16llm_graph_params
0000000000228ad4 W _ZN15llm_build_lladaD0Ev
00000000002293ac W _ZN15llm_build_llamaILb0EEC1ERK11llama_modelRK16llm_graph_params
00000000002293ac W _ZN15llm_build_llamaILb0EEC2ERK11llama_modelRK16llm_graph_params
000000000022a230 W _ZN15llm_build_llamaILb0EED0Ev
0000000000229b08 W _ZN15llm_build_llamaILb1EEC1ERK11llama_modelRK16llm_graph_params
0000000000229b08 W _ZN15llm_build_llamaILb1EEC2ERK11llama_modelRK16llm_graph_params
000000000022a25c W _ZN15llm_build_llamaILb1EED0Ev
000000000022baf4 T _ZN15llm_build_mambaC1ERK11llama_modelRK16llm_graph_params
000000000022baf4 T _ZN15llm_build_mambaC2ERK11llama_modelRK16llm_graph_params
000000000022bd50 W _ZN15llm_build_mambaD0Ev
000000000022ff90 W _ZN15llm_build_olmo2ILb0EEC1ERK11llama_modelRK16llm_graph_params
000000000022ff90 W _ZN15llm_build_olmo2ILb0EEC2ERK11llama_modelRK16llm_graph_params
0000000000230c38 W _ZN15llm_build_olmo2ILb0EED0Ev
00000000002305e4 W _ZN15llm_build_olmo2ILb1EEC1ERK11llama_modelRK16llm_graph_params
00000000002305e4 W _ZN15llm_build_olmo2ILb1EEC2ERK11llama_modelRK16llm_graph_params
0000000000230c64 W _ZN15llm_build_olmo2ILb1EED0Ev
0000000000230c90 T _ZN15llm_build_olmoeC1ERK11llama_modelRK16llm_graph_params
0000000000230c90 T _ZN15llm_build_olmoeC2ERK11llama_modelRK16llm_graph_params
0000000000231254 W _ZN15llm_build_olmoeD0Ev
0000000000231ed0 T _ZN15llm_build_orionC1ERK11llama_modelRK16llm_graph_params
0000000000231ed0 T _ZN15llm_build_orionC2ERK11llama_modelRK16llm_graph_params
0000000000232408 W _ZN15llm_build_orionD0Ev
0000000000234478 T _ZN15llm_build_plamoC1ERK11llama_modelRK16llm_graph_params
0000000000234478 T _ZN15llm_build_plamoC2ERK11llama_modelRK16llm_graph_params
000000000023498c W _ZN15llm_build_plamoD0Ev
00000000002379a0 T _ZN15llm_build_qwen2C1ERK11llama_modelRK16llm_graph_params
00000000002379a0 T _ZN15llm_build_qwen2C2ERK11llama_modelRK16llm_graph_params
0000000000237f9c W _ZN15llm_build_qwen2D0Ev
0000000000238ce8 T _ZN15llm_build_qwen3C1ERK11llama_modelRK16llm_graph_params
0000000000238ce8 T _ZN15llm_build_qwen3C2ERK11llama_modelRK16llm_graph_params
00000000002392a4 W _ZN15llm_build_qwen3D0Ev
00000000002403fc T _ZN15llm_build_rwkv6C1ERK11llama_modelRK16llm_graph_params
00000000002403fc T _ZN15llm_build_rwkv6C2ERK11llama_modelRK16llm_graph_params
00000000002409b8 W _ZN15llm_build_rwkv6D0Ev
00000000002418a4 T _ZN15llm_build_rwkv7C1ERK11llama_modelRK16llm_graph_params
00000000002418a4 T _ZN15llm_build_rwkv7C2ERK11llama_modelRK16llm_graph_params
0000000000241e20 W _ZN15llm_build_rwkv7D0Ev
0000000000156cb0 T _ZN16llama_io_write_i12write_stringERKNSt3__112basic_stringIcNS0_11char_traitsIcEENS0_9allocatorIcEEEE
0000000000132c00 W _ZN16llama_io_write_iD2Ev
000000000020dde4 T _ZN16llm_build_arcticC1ERK11llama_modelRK16llm_graph_params
000000000020dde4 T _ZN16llm_build_arcticC2ERK11llama_modelRK16llm_graph_params
000000000020e418 W _ZN16llm_build_arcticD0Ev
000000000020e444 T _ZN16llm_build_arwkv7C1ERK11llama_modelRK16llm_graph_params
000000000020e444 T _ZN16llm_build_arwkv7C2ERK11llama_modelRK16llm_graph_params
000000000020e8b4 W _ZN16llm_build_arwkv7D0Ev
0000000000210588 T _ZN16llm_build_bitnetC1ERK11llama_modelRK16llm_graph_params
0000000000210588 T _ZN16llm_build_bitnetC2ERK11llama_modelRK16llm_graph_params
0000000000210cdc W _ZN16llm_build_bitnetD0Ev
0000000000212660 T _ZN16llm_build_cogvlmC1ERK11llama_modelRK16llm_graph_params
0000000000212660 T _ZN16llm_build_cogvlmC2ERK11llama_modelRK16llm_graph_params
0000000000212b0c W _ZN16llm_build_cogvlmD0Ev
0000000000219700 T _ZN16llm_build_exaoneC1ERK11llama_modelRK16llm_graph_params
0000000000219700 T _ZN16llm_build_exaoneC2ERK11llama_modelRK16llm_graph_params
0000000000219d1c W _ZN16llm_build_exaoneD0Ev
000000000021b038 T _ZN16llm_build_falconC1ERK11llama_modelRK16llm_graph_params
000000000021b038 T _ZN16llm_build_falconC2ERK11llama_modelRK16llm_graph_params
000000000021b5a8 W _ZN16llm_build_falconD0Ev
000000000021c7f8 W _ZN16llm_build_gemma3ILb0EEC1ERK11llama_modelRK16llm_graph_params
000000000021c7f8 W _ZN16llm_build_gemma3ILb0EEC2ERK11llama_modelRK16llm_graph_params
000000000021d534 W _ZN16llm_build_gemma3ILb0EED0Ev
000000000021ce84 W _ZN16llm_build_gemma3ILb1EEC1ERK11llama_modelRK16llm_graph_params
000000000021ce84 W _ZN16llm_build_gemma3ILb1EEC2ERK11llama_modelRK16llm_graph_params
000000000021d560 W _ZN16llm_build_gemma3ILb1EED0Ev
000000000023593c T _ZN16llm_build_plamo223build_plamo2_attn_layerEP23llm_graph_input_attn_kvP11ggml_tensorS3_RK11llama_modeli
0000000000234d80 T _ZN16llm_build_plamo224build_plamo2_mamba_layerEP18llm_graph_input_rsP11ggml_tensorRK11llama_modelRK12llama_ubatchi
00000000002349b8 T _ZN16llm_build_plamo2C1ERK11llama_modelRK16llm_graph_params
00000000002349b8 T _ZN16llm_build_plamo2C2ERK11llama_modelRK16llm_graph_params
0000000000235da8 W _ZN16llm_build_plamo2D0Ev
0000000000235dd4 W _ZN16llm_build_plamo3ILb0EEC1ERK11llama_modelRK16llm_graph_params
0000000000235dd4 W _ZN16llm_build_plamo3ILb0EEC2ERK11llama_modelRK16llm_graph_params
0000000000236af0 W _ZN16llm_build_plamo3ILb0EED0Ev
000000000023644c W _ZN16llm_build_plamo3ILb1EEC1ERK11llama_modelRK16llm_graph_params
000000000023644c W _ZN16llm_build_plamo3ILb1EEC2ERK11llama_modelRK16llm_graph_params
0000000000236b1c W _ZN16llm_build_plamo3ILb1EED0Ev
000000000023a744 T _ZN16llm_build_qwen3510build_qkvzEP11ggml_tensori
000000000023a688 T _ZN16llm_build_qwen3515build_layer_ffnEP11ggml_tensori
000000000023a1dc T _ZN16llm_build_qwen3516build_layer_attnEP23llm_graph_input_attn_kvP11ggml_tensorS3_Pii
000000000023a810 T _ZN16llm_build_qwen3516build_norm_gatedEP11ggml_tensorS1_S1_i
00000000002396b4 T _ZN16llm_build_qwen3523build_layer_attn_linearEP18llm_graph_input_rsP11ggml_tensori
00000000002392d0 T _ZN16llm_build_qwen35C1ERK11llama_modelRK16llm_graph_params
00000000002392d0 T _ZN16llm_build_qwen35C2ERK11llama_modelRK16llm_graph_params
000000000023a860 W _ZN16llm_build_qwen35D0Ev
000000000023ec80 T _ZN16llm_build_refactC1ERK11llama_modelRK16llm_graph_params
000000000023ec80 T _ZN16llm_build_refactC2ERK11llama_modelRK16llm_graph_params
000000000023f130 W _ZN16llm_build_refactD0Ev
0000000000245268 T _ZN16llm_build_t5_decC1ERK11llama_modelRK16llm_graph_params
0000000000245268 T _ZN16llm_build_t5_decC2ERK11llama_modelRK16llm_graph_params
0000000000245960 W _ZN16llm_build_t5_decD0Ev
000000000024598c T _ZN16llm_build_t5_encC1ERK11llama_modelRK16llm_graph_params
000000000024598c T _ZN16llm_build_t5_encC2ERK11llama_modelRK16llm_graph_params
0000000000245e48 W _ZN16llm_build_t5_encD0Ev
00000000002464b0 T _ZN16llm_build_xverseC1ERK11llama_modelRK16llm_graph_params
00000000002464b0 T _ZN16llm_build_xverseC2ERK11llama_modelRK16llm_graph_params
00000000002469ec W _ZN16llm_build_xverseD0Ev
0000000000154500 W _ZN16llm_graph_paramsaSERKS_
000000000013289c W _ZN16llm_graph_paramsD2Ev
000000000014dcdc T _ZN16llm_graph_result10set_inputsEPK12llama_ubatch
000000000014e030 T _ZN16llm_graph_result10set_paramsERK16llm_graph_params
000000000014dd1c T _ZN16llm_graph_result11set_outputsEv
000000000014d7e0 T _ZN16llm_graph_result5resetEv
000000000014dff0 T _ZN16llm_graph_result9add_inputENSt3__110unique_ptrI17llm_graph_input_iNS0_14default_deleteIS2_EEEE
000000000014deb8 T _ZN16llm_graph_result9can_reuseERK16llm_graph_params
000000000014d590 T _ZN16llm_graph_resultC1El
000000000014d590 T _ZN16llm_graph_resultC2El
0000000000154b64 W _ZN16llm_graph_resultD0Ev
0000000000154a24 W _ZN16llm_graph_resultD2Ev
000000000017d494 T _ZN17llama_model_saver10add_tensorEPK11ggml_tensor
000000000017d618 T _ZN17llama_model_saver17add_kv_from_modelEv
000000000017f158 T _ZN17llama_model_saver22add_tensors_from_modelEv
000000000017f4a0 T _ZN17llama_model_saver4saveERKNSt3__112basic_stringIcNS0_11char_traitsIcEENS0_9allocatorIcEEEE
000000000017ce40 T _ZN17llama_model_saver6add_kvE6llm_kvb
000000000017cf38 T _ZN17llama_model_saver6add_kvE6llm_kvc
000000000017cdbc T _ZN17llama_model_saver6add_kvE6llm_kvf
000000000017cd40 T _ZN17llama_model_saver6add_kvE6llm_kvi
000000000017ccc4 T _ZN17llama_model_saver6add_kvE6llm_kvj
000000000017cebc T _ZN17llama_model_saver6add_kvE6llm_kvPKc
000000000017cf54 T _ZN17llama_model_saver6add_kvE6llm_kvRKNSt3__16vectorINS1_12basic_stringIcNS1_11char_traitsIcEENS1_9allocatorIcEEEENS6_IS8_EEEE
000000000017f4bc W _ZN17llama_model_saver6add_kvINSt3__112basic_stringIcNS1_11char_traitsIcEENS1_9allocatorIcEEEEEEv6llm_kvRKT_b
000000000017f5e0 W _ZN17llama_model_saver6add_kvINSt3__15arrayIjLm512EEEEEv6llm_kvRKT_b
000000000017f848 W _ZN17llama_model_saver6add_kvINSt3__16vectorIfNS1_9allocatorIfEEEEEEv6llm_kvRKT_b
000000000017f708 W _ZN17llama_model_saver6add_kvINSt3__16vectorIiNS1_9allocatorIiEEEEEEv6llm_kvRKT_b
000000000017cc80 T _ZN17llama_model_saverC1ERK11llama_model
000000000017cc80 T _ZN17llama_model_saverC2ERK11llama_model
000000000017ccac T _ZN17llama_model_saverD1Ev
000000000017ccac T _ZN17llama_model_saverD2Ev
00000000001df398 W _ZN17llama_sampler_dryD2Ev
000000000020d0d4 T _ZN17llm_build_apertusC1ERK11llama_modelRK16llm_graph_params
000000000020d0d4 T _ZN17llm_build_apertusC2ERK11llama_modelRK16llm_graph_params
000000000020d744 W _ZN17llm_build_apertusD0Ev
0000000000211a78 T _ZN17llm_build_chatglmC1ERK11llama_modelRK16llm_graph_params
0000000000211a78 T _ZN17llm_build_chatglmC2ERK11llama_modelRK16llm_graph_params
00000000002120ac W _ZN17llm_build_chatglmD0Ev
0000000000219d48 W _ZN17llm_build_exaone4ILb0EEC1ERK11llama_modelRK16llm_graph_params
0000000000219d48 W _ZN17llm_build_exaone4ILb0EEC2ERK11llama_modelRK16llm_graph_params
000000000021a9e0 W _ZN17llm_build_exaone4ILb0EED0Ev
000000000021a394 W _ZN17llm_build_exaone4ILb1EEC1ERK11llama_modelRK16llm_graph_params
000000000021a394 W _ZN17llm_build_exaone4ILb1EEC2ERK11llama_modelRK16llm_graph_params
000000000021aa0c W _ZN17llm_build_exaone4ILb1EED0Ev
0000000000220670 T _ZN17llm_build_gptneoxC1ERK11llama_modelRK16llm_graph_params
0000000000220670 T _ZN17llm_build_gptneoxC2ERK11llama_modelRK16llm_graph_params
0000000000220cd8 W _ZN17llm_build_gptneoxD0Ev
0000000000221c34 T _ZN17llm_build_granite15build_layer_ffnEP11ggml_tensorS1_RK11llama_modeli
00000000002218b8 T _ZN17llm_build_granite21build_attention_layerEP11ggml_tensorS1_P23llm_graph_input_attn_kvRK11llama_modelli
0000000000221614 T _ZN17llm_build_graniteC1ERK11llama_modelRK16llm_graph_params
0000000000221614 T _ZN17llm_build_graniteC2ERK11llama_modelRK16llm_graph_params
0000000000221ed8 W _ZN17llm_build_graniteD0Ev
00000000002318b8 T _ZN17llm_build_openelmC1ERK11llama_modelRK16llm_graph_params
00000000002318b8 T _ZN17llm_build_openelmC2ERK11llama_modelRK16llm_graph_params
0000000000231ea4 W _ZN17llm_build_openelmD0Ev
0000000000238720 T _ZN17llm_build_qwen2vlC1ERK11llama_modelRK16llm_graph_params
0000000000238720 T _ZN17llm_build_qwen2vlC2ERK11llama_modelRK16llm_graph_params
0000000000238cbc W _ZN17llm_build_qwen2vlD0Ev
000000000023e5fc T _ZN17llm_build_qwen3vlC1ERK11llama_modelRK16llm_graph_params
000000000023e5fc T _ZN17llm_build_qwen3vlC2ERK11llama_modelRK16llm_graph_params
000000000023ec54 W _ZN17llm_build_qwen3vlD0Ev
00000000002430fc T _ZN17llm_build_smollm3C1ERK11llama_modelRK16llm_graph_params
00000000002430fc T _ZN17llm_build_smollm3C2ERK11llama_modelRK16llm_graph_params
0000000000243740 W _ZN17llm_build_smollm3D0Ev
000000000014e038 T _ZN17llm_graph_contextC1ERK16llm_graph_params
000000000014e038 T _ZN17llm_graph_contextC2ERK16llm_graph_params
0000000000154b9c W _ZN17llm_graph_contextD0Ev
0000000000154b7c W _ZN17llm_graph_contextD2Ev
00000000001547a4 W _ZN17llm_graph_input_i9can_reuseERK16llm_graph_params
000000000015500c W _ZN17llm_graph_input_iD0Ev
00000000001547d8 W _ZN17llm_graph_input_iD2Ev
00000000001f165c W _ZN17llm_tokenizer_bpeC2ERK11llama_vocab
00000000001f283c W _ZN17llm_tokenizer_bpeD0Ev
00000000001f27c0 W _ZN17llm_tokenizer_bpeD2Ev
00000000001f1658 W _ZN17llm_tokenizer_spmD0Ev
00000000001f2b88 W _ZN17llm_tokenizer_ugmC2ERK11llama_vocabRKNSt3__16vectorIcNS3_9allocatorIcEEEE
00000000001f2fac W _ZN17llm_tokenizer_ugmD0Ev
00000000001f2f64 W _ZN17llm_tokenizer_ugmD2Ev
00000000001f2b84 W _ZN17llm_tokenizer_wpmD0Ev
00000000001135c0 T _ZN18llama_adapter_cvec4initERK11llama_model
0000000000113c18 T _ZN18llama_adapter_cvec5applyERK11llama_modelPKfmiii
000000000013349c W _ZN18llama_adapter_cvecD2Ev
0000000000113d2c T _ZN18llama_adapter_lora10get_weightEP11ggml_tensor
000000000011611c W _ZN18llama_adapter_loraD2Ev
000000000011d22c T _ZN18llama_batch_allocr10ubatch_addERKNSt3__16vectorIiNS0_9allocatorIiEEEEjb
000000000011cf50 T _ZN18llama_batch_allocr11get_out_idsEv
000000000011dc14 T _ZN18llama_batch_allocr11split_equalEjb
000000000011cb08 T _ZN18llama_batch_allocr11split_resetEv
000000000011cf58 T _ZN18llama_batch_allocr12split_simpleEj
000000000011c250 T _ZN18llama_batch_allocr12ubatch_printERK12llama_ubatchi
000000000011cb2c T _ZN18llama_batch_allocr14ubatch_reserveEjj
000000000011abdc T _ZN18llama_batch_allocr4initERK11llama_batchRK11llama_vocabPK14llama_memory_ijjb
000000000011c0b8 T _ZN18llama_batch_allocr5clearEv
000000000011e328 T _ZN18llama_batch_allocr9split_seqEj
000000000011a964 T _ZN18llama_batch_allocrC1Ej
000000000011a964 T _ZN18llama_batch_allocrC2Ej
0000000000132a98 W _ZN18llama_batch_allocrD2Ev
00000000001332cc W _ZN18llama_io_read_file4readEm
0000000000133364 W _ZN18llama_io_read_file7n_bytesEv
0000000000133334 W _ZN18llama_io_read_file7read_toEPvm
0000000000133294 W _ZN18llama_io_read_fileD0Ev
0000000000132c08 W _ZN18llama_io_read_fileD2Ev
00000000001750ec T _ZN18llama_model_loader13create_tensorEP12ggml_contextRKNSt3__112basic_stringIcNS2_11char_traitsIcEENS2_9allocatorIcEEEERKSt16initializer_listIlEi
0000000000175554 T _ZN18llama_model_loader13init_mappingsEbPNSt3__16vectorINS0_10unique_ptrI11llama_mlockNS0_14default_deleteIS3_EEEENS0_9allocatorIS6_EEEE
0000000000175c24 T _ZN18llama_model_loader13load_all_dataEP12ggml_contextRNSt3__113unordered_mapIjP19ggml_backend_bufferNS2_4hashIjEENS2_8equal_toIjEENS2_9allocatorINS2_4pairIKjS5_EEEEEEPNS2_6vectorINS2_10unique_ptrI11llama_mlockNS2_14default_deleteISJ_EEEENSA_ISM_EEEEPFbfPvESQ_
0000000000172b78 T _ZN18llama_model_loader14get_key_or_arrE6llm_kvRjb
0000000000178ce0 W _ZN18llama_model_loader14get_key_or_arrIfLm512EEEbRKNSt3__112basic_stringIcNS1_11char_traitsIcEENS1_9allocatorIcEEEERNS1_5arrayIT_XT0_EEEjb
00000000001785e8 W _ZN18llama_model_loader14get_key_or_arrIiLm4EEEbRKNSt3__112basic_stringIcNS1_11char_traitsIcEENS1_9allocatorIcEEEERNS1_5arrayIT_XT0_EEEjb
0000000000178974 W _ZN18llama_model_loader14get_key_or_arrIjLm512EEEbRKNSt3__112basic_stringIcNS1_11char_traitsIcEENS1_9allocatorIcEEEERNS1_5arrayIT_XT0_EEEjb
0000000000178c54 W _ZN18llama_model_loader14get_key_or_arrINSt3__15arrayIfLm512EEEEEb6llm_kvRT_jb
000000000017855c W _ZN18llama_model_loader14get_key_or_arrINSt3__15arrayIiLm4EEEEEb6llm_kvRT_jb
00000000001788e8 W _ZN18llama_model_loader14get_key_or_arrINSt3__15arrayIjLm512EEEEEb6llm_kvRT_jb
0000000000178fc0 W _ZN18llama_model_loader19llama_tensor_weightC2EPK10llama_filetPK12gguf_contextP11ggml_tensor
0000000000175248 T _ZN18llama_model_loader21create_tensor_as_viewEP12ggml_contextP11ggml_tensorRKNSt3__112basic_stringIcNS4_11char_traitsIcEENS4_9allocatorIcEEEERKSt16initializer_listIlEmb
000000000017b080 W _ZN18llama_model_loader7get_arrIfLm512EEEbRKNSt3__112basic_stringIcNS1_11char_traitsIcEENS1_9allocatorIcEEEERNS1_5arrayIT_XT0_EEEb
000000000017a9f4 W _ZN18llama_model_loader7get_arrIiLm4EEEbRKNSt3__112basic_stringIcNS1_11char_traitsIcEENS1_9allocatorIcEEEERNS1_5arrayIT_XT0_EEEb
000000000017acd4 W _ZN18llama_model_loader7get_arrIjLm512EEEbRKNSt3__112basic_stringIcNS1_11char_traitsIcEENS1_9allocatorIcEEEERNS1_5arrayIT_XT0_EEEb
0000000000177b20 W _ZN18llama_model_loader7get_arrINSt3__112basic_stringIcNS1_11char_traitsIcEENS1_9allocatorIcEEEEEEbRKS7_RNS1_6vectorIT_NS5_ISB_EEEEb
0000000000177aa4 W _ZN18llama_model_loader7get_arrINSt3__16vectorINS1_12basic_stringIcNS1_11char_traitsIcEENS1_9allocatorIcEEEENS6_IS8_EEEEEEb6llm_kvRT_b
0000000000172af0 T _ZN18llama_model_loader7get_keyI18llama_pooling_typeEEb6llm_kvRT_b
0000000000177ea8 W _ZN18llama_model_loader7get_keyIbEEb6llm_kvRT_b
0000000000177f24 W _ZN18llama_model_loader7get_keyIbEEbRKNSt3__112basic_stringIcNS1_11char_traitsIcEENS1_9allocatorIcEEEERT_b
0000000000178068 W _ZN18llama_model_loader7get_keyIfEEb6llm_kvRT_b
00000000001780e4 W _ZN18llama_model_loader7get_keyIfEEbRKNSt3__112basic_stringIcNS1_11char_traitsIcEENS1_9allocatorIcEEEERT_b
00000000001792a0 W _ZN18llama_model_loader7get_keyIiEEbRKNSt3__112basic_stringIcNS1_11char_traitsIcEENS1_9allocatorIcEEEERT_b
0000000000178228 W _ZN18llama_model_loader7get_keyIjEEb6llm_kvRT_b
00000000001782a4 W _ZN18llama_model_loader7get_keyIjEEbRKNSt3__112basic_stringIcNS1_11char_traitsIcEENS1_9allocatorIcEEEERT_b
00000000001783e4 W _ZN18llama_model_loader7get_keyINSt3__112basic_stringIcNS1_11char_traitsIcEENS1_9allocatorIcEEEEEEb6llm_kvRT_b
0000000000178460 W _ZN18llama_model_loader7get_keyINSt3__112basic_stringIcNS1_11char_traitsIcEENS1_9allocatorIcEEEEEEbRKS7_RT_b
0000000000179160 W _ZN18llama_model_loader7get_keyItEEbRKNSt3__112basic_stringIcNS1_11char_traitsIcEENS1_9allocatorIcEEEERT_b
0000000000177918 W _ZN18llama_model_loader9get_arr_nIjEENSt3__19enable_ifIXsr3std11is_integralIT_EE5valueEbE4typeE6llm_kvRS3_b
0000000000177994 W _ZN18llama_model_loader9get_arr_nIjEENSt3__19enable_ifIXsr3std11is_integralIT_EE5valueEbE4typeERKNS1_12basic_stringIcNS1_11char_traitsIcEENS1_9allocatorIcEEEERS3_b
0000000000172d40 T _ZN18llama_model_loaderC1ERKNSt3__112basic_stringIcNS0_11char_traitsIcEENS0_9allocatorIcEEEERNS0_6vectorIS6_NS4_IS6_EEEEbbbbPK23llama_model_kv_overridePK32llama_model_tensor_buft_override
0000000000172d40 T _ZN18llama_model_loaderC2ERKNSt3__112basic_stringIcNS0_11char_traitsIcEENS0_9allocatorIcEEEERNS0_6vectorIS6_NS4_IS6_EEEEbbbbPK23llama_model_kv_overridePK32llama_model_tensor_buft_override
0000000000113030 W _ZN18llama_model_loaderD2Ev
000000000020e8e0 T _ZN18llm_build_baichuanC1ERK11llama_modelRK16llm_graph_params
000000000020e8e0 T _ZN18llm_build_baichuanC2ERK11llama_modelRK16llm_graph_params
000000000020ee64 W _ZN18llm_build_baichuanD0Ev
0000000000214460 T _ZN18llm_build_deepseekC1ERK11llama_modelRK16llm_graph_params
0000000000214460 T _ZN18llm_build_deepseekC2ERK11llama_modelRK16llm_graph_params
0000000000214b80 W _ZN18llm_build_deepseekD0Ev
00000000002184e4 T _ZN18llm_build_ernie4_5C1ERK11llama_modelRK16llm_graph_params
00000000002184e4 T _ZN18llm_build_ernie4_5C2ERK11llama_modelRK16llm_graph_params
0000000000218ac4 W _ZN18llm_build_ernie4_5D0Ev
0000000000218af0 T _ZN18llm_build_eurobertC1ERK11llama_modelRK16llm_graph_params
0000000000218af0 T _ZN18llm_build_eurobertC2ERK11llama_modelRK16llm_graph_params
0000000000218f78 W _ZN18llm_build_eurobertD0Ev
000000000021f13c T _ZN18llm_build_glm4_moeC1ERK11llama_modelRK16llm_graph_params
000000000021f13c T _ZN18llm_build_glm4_moeC2ERK11llama_modelRK16llm_graph_params
000000000021f928 W _ZN18llm_build_glm4_moeD0Ev
00000000002226b8 T _ZN18llm_build_grovemoeC1ERK11llama_modelRK16llm_graph_params
00000000002226b8 T _ZN18llm_build_grovemoeC2ERK11llama_modelRK16llm_graph_params
0000000000222d88 W _ZN18llm_build_grovemoeD0Ev
000000000022c384 T _ZN18llm_build_minicpm3C1ERK11llama_modelRK16llm_graph_params
000000000022c384 T _ZN18llm_build_minicpm3C2ERK11llama_modelRK16llm_graph_params
000000000022cd6c W _ZN18llm_build_minicpm3D0Ev
000000000022d374 T _ZN18llm_build_mistral3C1ERK11llama_modelRK16llm_graph_params
000000000022d374 T _ZN18llm_build_mistral3C2ERK11llama_modelRK16llm_graph_params
000000000022dac0 W _ZN18llm_build_mistral3D0Ev
000000000022ee94 T _ZN18llm_build_nemotronC1ERK11llama_modelRK16llm_graph_params
000000000022ee94 T _ZN18llm_build_nemotronC2ERK11llama_modelRK16llm_graph_params
000000000022f45c W _ZN18llm_build_nemotronD0Ev
000000000022f488 T _ZN18llm_build_neo_bertC1ERK11llama_modelRK16llm_graph_params
000000000022f488 T _ZN18llm_build_neo_bertC2ERK11llama_modelRK16llm_graph_params
000000000022f924 W _ZN18llm_build_neo_bertD0Ev
0000000000237fc8 T _ZN18llm_build_qwen2moeC1ERK11llama_modelRK16llm_graph_params
0000000000237fc8 T _ZN18llm_build_qwen2moeC2ERK11llama_modelRK16llm_graph_params
00000000002386f4 W _ZN18llm_build_qwen2moeD0Ev
000000000023bf14 T _ZN18llm_build_qwen3moeC1ERK11llama_modelRK16llm_graph_params
000000000023bf14 T _ZN18llm_build_qwen3moeC2ERK11llama_modelRK16llm_graph_params
000000000023c4dc W _ZN18llm_build_qwen3moeD0Ev
0000000000241e4c T _ZN18llm_build_seed_ossC1ERK11llama_modelRK16llm_graph_params
0000000000241e4c T _ZN18llm_build_seed_ossC2ERK11llama_modelRK16llm_graph_params
0000000000242480 W _ZN18llm_build_seed_ossD0Ev
000000000024376c T _ZN18llm_build_stablelmC1ERK11llama_modelRK16llm_graph_params
000000000024376c T _ZN18llm_build_stablelmC2ERK11llama_modelRK16llm_graph_params
0000000000243de0 W _ZN18llm_build_stablelmD0Ev
000000000014be98 T _ZN18llm_graph_input_rs9can_reuseERK16llm_graph_params
000000000014be08 T _ZN18llm_graph_input_rs9set_inputEPK12llama_ubatch
00000000001547c0 W _ZN18llm_graph_input_rsD0Ev
00000000001f3150 W _ZN18llm_tokenizer_rwkvC2ERK11llama_vocab
00000000001f32a4 W _ZN18llm_tokenizer_rwkvD0Ev
00000000001f3284 W _ZN18llm_tokenizer_rwkvD2Ev
00000000001333d4 W _ZN19llama_io_write_file12write_tensorEPK11ggml_tensormm
00000000001333a4 W _ZN19llama_io_write_file5writeEPKvm
0000000000132c58 W _ZN19llama_io_write_file7n_bytesEv
000000000013336c W _ZN19llama_io_write_fileD0Ev
0000000000132c30 W _ZN19llama_io_write_fileD2Ev
0000000000168910 T _ZN19llama_kv_cache_iswa10init_batchER18llama_batch_allocrjb
0000000000168f60 T _ZN19llama_kv_cache_iswa10state_readER15llama_io_read_iij
0000000000168e44 T _ZN19llama_kv_cache_iswa11init_updateEP13llama_contextb
0000000000168564 T _ZN19llama_kv_cache_iswa5clearEb
0000000000168608 T _ZN19llama_kv_cache_iswa6seq_cpEiiii
00000000001685a0 T _ZN19llama_kv_cache_iswa6seq_rmEiii
00000000001686a0 T _ZN19llama_kv_cache_iswa7seq_addEiiii
00000000001686fc T _ZN19llama_kv_cache_iswa7seq_divEiiii
0000000000168664 T _ZN19llama_kv_cache_iswa8seq_keepEi
0000000000168dfc T _ZN19llama_kv_cache_iswa9init_fullEv
0000000000168238 T _ZN19llama_kv_cache_iswaC1ERK11llama_model9ggml_typeS3_bbbbjjjjRKNSt3__18functionIFbiEEERKNS5_IFiiEEE
0000000000168238 T _ZN19llama_kv_cache_iswaC2ERK11llama_model9ggml_typeS3_bbbbjjjjRKNSt3__18functionIFbiEEERKNS5_IFiiEEE
0000000000169b94 W _ZN19llama_kv_cache_iswaD0Ev
0000000000169b40 W _ZN19llama_kv_cache_iswaD2Ev
000000000016a024 T _ZN19llama_memory_hybrid10init_batchER18llama_batch_allocrjb
000000000016a9e0 T _ZN19llama_memory_hybrid10state_readER15llama_io_read_iij
000000000016a4e8 T _ZN19llama_memory_hybrid11init_updateEP13llama_contextb
000000000016a558 T _ZN19llama_memory_hybrid5clearEb
000000000016a600 T _ZN19llama_memory_hybrid6seq_cpEiiii
000000000016a594 T _ZN19llama_memory_hybrid6seq_rmEiii
000000000016a698 T _ZN19llama_memory_hybrid7seq_addEiiii
000000000016a6f4 T _ZN19llama_memory_hybrid7seq_divEiiii
000000000016a65c T _ZN19llama_memory_hybrid8seq_keepEi
000000000016a4a0 T _ZN19llama_memory_hybrid9init_fullEv
0000000000169ce8 T _ZN19llama_memory_hybridC1ERK11llama_model9ggml_typeS3_bjjj14llama_swa_typeS3_S3_jjbbRKNSt3__18functionIFbiEEESA_
0000000000169ce8 T _ZN19llama_memory_hybridC2ERK11llama_model9ggml_typeS3_bjjj14llama_swa_typeS3_S3_jjbbRKNSt3__18functionIFbiEEESA_
000000000016b400 W _ZN19llama_memory_hybridD0Ev
000000000016b3ac W _ZN19llama_memory_hybridD2Ev
000000000021123c T _ZN19llm_build_chameleonC1ERK11llama_modelRK16llm_graph_params
000000000021123c T _ZN19llm_build_chameleonC2ERK11llama_modelRK16llm_graph_params
0000000000211a4c W _ZN19llm_build_chameleonD0Ev
00000000002120d8 T _ZN19llm_build_codeshellC1ERK11llama_modelRK16llm_graph_params
00000000002120d8 T _ZN19llm_build_codeshellC2ERK11llama_modelRK16llm_graph_params
0000000000212634 W _ZN19llm_build_codeshellD0Ev
0000000000213144 T _ZN19llm_build_command_rC1ERK11llama_modelRK16llm_graph_params
0000000000213144 T _ZN19llm_build_command_rC2ERK11llama_modelRK16llm_graph_params
0000000000213778 W _ZN19llm_build_command_rD0Ev
0000000000214bac T _ZN19llm_build_deepseek2C1ERK11llama_modelRK16llm_graph_params
0000000000214bac T _ZN19llm_build_deepseek2C2ERK11llama_modelRK16llm_graph_params
0000000000215944 W _ZN19llm_build_deepseek2D0Ev
000000000021aa38 T _ZN19llm_build_falcon_h1C1ERK11llama_modelRK16llm_graph_params
000000000021aa38 T _ZN19llm_build_falcon_h1C2ERK11llama_modelRK16llm_graph_params
000000000021b00c W _ZN19llm_build_falcon_h1D0Ev
0000000000223be4 T _ZN19llm_build_internlm2C1ERK11llama_modelRK16llm_graph_params
0000000000223be4 T _ZN19llm_build_internlm2C2ERK11llama_modelRK16llm_graph_params
00000000002241c8 W _ZN19llm_build_internlm2D0Ev
0000000000227fa8 T _ZN19llm_build_llada_moeC1ERK11llama_modelRK16llm_graph_params
0000000000227fa8 T _ZN19llm_build_llada_moeC2ERK11llama_modelRK16llm_graph_params
000000000022856c W _ZN19llm_build_llada_moeD0Ev
000000000022a288 T _ZN19llm_build_maincoderC1ERK11llama_modelRK16llm_graph_params
000000000022a288 T _ZN19llm_build_maincoderC2ERK11llama_modelRK16llm_graph_params
000000000022a844 W _ZN19llm_build_maincoderD0Ev
0000000000232434 T _ZN19llm_build_paddleocrC1ERK11llama_modelRK16llm_graph_params
0000000000232434 T _ZN19llm_build_paddleocrC2ERK11llama_modelRK16llm_graph_params
0000000000232a2c W _ZN19llm_build_paddleocrD0Ev
000000000023bdcc T _ZN19llm_build_qwen35moe10build_qkvzEP11ggml_tensori
000000000023bbcc T _ZN19llm_build_qwen35moe15build_layer_ffnEP11ggml_tensori
000000000023b720 T _ZN19llm_build_qwen35moe16build_layer_attnEP23llm_graph_input_attn_kvP11ggml_tensorS3_Pii
000000000023be98 T _ZN19llm_build_qwen35moe16build_norm_gatedEP11ggml_tensorS1_S1_i
000000000023abf8 T _ZN19llm_build_qwen35moe23build_layer_attn_linearEP18llm_graph_input_rsP11ggml_tensori
000000000023a88c T _ZN19llm_build_qwen35moeC1ERK11llama_modelRK16llm_graph_params
000000000023a88c T _ZN19llm_build_qwen35moeC2ERK11llama_modelRK16llm_graph_params
000000000023bee8 W _ZN19llm_build_qwen35moeD0Ev
000000000023db3c T _ZN19llm_build_qwen3next10build_qkvzEP11ggml_tensori
000000000023d8bc T _ZN19llm_build_qwen3next15build_layer_ffnEP11ggml_tensori
000000000023d418 T _ZN19llm_build_qwen3next16build_layer_attnEP23llm_graph_input_attn_kvP11ggml_tensorS3_i
000000000023daec T _ZN19llm_build_qwen3next16build_norm_gatedEP11ggml_tensorS1_S1_i
000000000023c830 T _ZN19llm_build_qwen3next23build_layer_attn_linearEP18llm_graph_input_rsP11ggml_tensori
000000000023c508 T _ZN19llm_build_qwen3nextC1ERK11llama_modelRK16llm_graph_params
000000000023c508 T _ZN19llm_build_qwen3nextC2ERK11llama_modelRK16llm_graph_params
000000000023df40 W _ZN19llm_build_qwen3nextD0Ev
0000000000243e0c T _ZN19llm_build_starcoderC1ERK11llama_modelRK16llm_graph_params
0000000000243e0c T _ZN19llm_build_starcoderC2ERK11llama_modelRK16llm_graph_params
0000000000244348 W _ZN19llm_build_starcoderD0Ev
000000000014bb18 T _ZN19llm_graph_input_cls9set_inputEPK12llama_ubatch
00000000001547bc W _ZN19llm_graph_input_clsD0Ev
000000000014afa4 T _ZN19llm_graph_input_pos9can_reuseERK16llm_graph_params
000000000014adb8 T _ZN19llm_graph_input_pos9set_inputEPK12llama_ubatch
000000000015479c W _ZN19llm_graph_input_posD0Ev
0000000000137d78 T _ZN20llama_grammar_parser10parse_ruleEPKc
0000000000134bfc T _ZN20llama_grammar_parser13get_symbol_idEPKcm
00000000001354f4 T _ZN20llama_grammar_parser14parse_sequenceEPKcRKNSt3__112basic_stringIcNS2_11char_traitsIcEENS2_9allocatorIcEEEERNS2_6vectorI21llama_grammar_elementNS6_ISC_EEEEb
00000000001350a8 T _ZN20llama_grammar_parser16parse_alternatesEPKcRKNSt3__112basic_stringIcNS2_11char_traitsIcEENS2_9allocatorIcEEEEjb
0000000000134d5c T _ZN20llama_grammar_parser18generate_symbol_idERKNSt3__112basic_stringIcNS0_11char_traitsIcEENS0_9allocatorIcEEEE
0000000000138188 T _ZN20llama_grammar_parser5parseEPKc
0000000000138498 T _ZN20llama_grammar_parser5printEP8_IO_FILE
0000000000134fc8 T _ZN20llama_grammar_parser8add_ruleEjRKNSt3__16vectorI21llama_grammar_elementNS0_9allocatorIS2_EEEE
000000000013e2a8 W _ZN20llama_grammar_parserD2Ev
00000000001331d4 W _ZN20llama_io_read_buffer4readEm
000000000013328c W _ZN20llama_io_read_buffer7n_bytesEv
0000000000133254 W _ZN20llama_io_read_buffer7read_toEPvm
00000000001331d0 W _ZN20llama_io_read_bufferD0Ev
0000000000133084 W _ZN20llama_io_write_dummy12write_tensorEPK11ggml_tensormm
0000000000133074 W _ZN20llama_io_write_dummy5writeEPKvm
0000000000133094 W _ZN20llama_io_write_dummy7n_bytesEv
0000000000133070 W _ZN20llama_io_write_dummyD0Ev
000000000020ee90 T _ZN20llm_build_bailingmoeC1ERK11llama_modelRK16llm_graph_params
000000000020ee90 T _ZN20llm_build_bailingmoeC2ERK11llama_modelRK16llm_graph_params
000000000020f4ec W _ZN20llm_build_bailingmoeD0Ev
0000000000218fa4 T _ZN20llm_build_exaone_moeC1ERK11llama_modelRK16llm_graph_params
0000000000218fa4 T _ZN20llm_build_exaone_moeC2ERK11llama_modelRK16llm_graph_params
00000000002196d4 W _ZN20llm_build_exaone_moeD0Ev
0000000000228b00 T _ZN20llm_build_llama_iswaC1ERK11llama_modelRK16llm_graph_params
0000000000228b00 T _ZN20llm_build_llama_iswaC2ERK11llama_modelRK16llm_graph_params
0000000000229380 W _ZN20llm_build_llama_iswaD0Ev
000000000022a894 T _ZN20llm_build_mamba_base17build_mamba_layerEP18llm_graph_input_rsP11ggml_tensorRK11llama_modelRK12llama_ubatchi
000000000022a870 T _ZN20llm_build_mamba_baseC1ERK16llm_graph_params
000000000022a870 T _ZN20llm_build_mamba_baseC2ERK16llm_graph_params
000000000022bac8 W _ZN20llm_build_mamba_baseD0Ev
000000000022bd7c T _ZN20llm_build_mimo2_iswaC1ERK11llama_modelRK16llm_graph_params
000000000022bd7c T _ZN20llm_build_mimo2_iswaC2ERK11llama_modelRK16llm_graph_params
000000000022c358 W _ZN20llm_build_mimo2_iswaD0Ev
000000000022cd98 T _ZN20llm_build_minimax_m2C1ERK11llama_modelRK16llm_graph_params
000000000022cd98 T _ZN20llm_build_minimax_m2C2ERK11llama_modelRK16llm_graph_params
000000000022d348 W _ZN20llm_build_minimax_m2D0Ev
000000000022ec8c T _ZN20llm_build_nemotron_h15build_ffn_layerEP11ggml_tensorRK11llama_modeli
000000000022e99c T _ZN20llm_build_nemotron_h21build_attention_layerEP11ggml_tensorP23llm_graph_input_attn_kvRK11llama_modelli
000000000022e6e0 T _ZN20llm_build_nemotron_hC1ERK11llama_modelRK16llm_graph_params
000000000022e6e0 T _ZN20llm_build_nemotron_hC2ERK11llama_modelRK16llm_graph_params
000000000022ee68 W _ZN20llm_build_nemotron_hD0Ev
000000000023df6c T _ZN20llm_build_qwen3vlmoeC1ERK11llama_modelRK16llm_graph_params
000000000023df6c T _ZN20llm_build_qwen3vlmoeC2ERK11llama_modelRK16llm_graph_params
000000000023e5d0 W _ZN20llm_build_qwen3vlmoeD0Ev
000000000023f750 T _ZN20llm_build_rwkv6_baseC1ERK11llama_modelRK16llm_graph_params
000000000023f750 T _ZN20llm_build_rwkv6_baseC2ERK11llama_modelRK16llm_graph_params
00000000002403d0 W _ZN20llm_build_rwkv6_baseD0Ev
00000000002409e4 T _ZN20llm_build_rwkv6qwen2C1ERK11llama_modelRK16llm_graph_params
00000000002409e4 T _ZN20llm_build_rwkv6qwen2C2ERK11llama_modelRK16llm_graph_params
0000000000240e4c W _ZN20llm_build_rwkv6qwen2D0Ev
0000000000240e78 T _ZN20llm_build_rwkv7_baseC1ERK11llama_modelRK16llm_graph_params
0000000000240e78 T _ZN20llm_build_rwkv7_baseC2ERK11llama_modelRK16llm_graph_params
0000000000241878 W _ZN20llm_build_rwkv7_baseD0Ev
0000000000244374 T _ZN20llm_build_starcoder2C1ERK11llama_modelRK16llm_graph_params
0000000000244374 T _ZN20llm_build_starcoder2C2ERK11llama_modelRK16llm_graph_params
0000000000244958 W _ZN20llm_build_starcoder2D0Ev
000000000014ad50 T _ZN20llm_graph_input_embd9can_reuseERK16llm_graph_params
000000000014ac98 T _ZN20llm_graph_input_embd9set_inputEPK12llama_ubatch
0000000000154798 W _ZN20llm_graph_input_embdD0Ev
000000000014b854 T _ZN20llm_graph_input_mean9set_inputEPK12llama_ubatch
00000000001547b8 W _ZN20llm_graph_input_meanD0Ev
00000000001f32d0 W _ZN20llm_tokenizer_plamo25buildERK11llama_vocab
00000000001f4324 W _ZN20llm_tokenizer_plamo2D0Ev
00000000001f4224 W _ZN20llm_tokenizer_plamo2D2Ev
0000000000133130 W _ZN21llama_io_write_buffer12write_tensorEPK11ggml_tensormm
00000000001330a0 W _ZN21llama_io_write_buffer5writeEPKvm
00000000001331c8 W _ZN21llama_io_write_buffer7n_bytesEv
000000000013309c W _ZN21llama_io_write_bufferD0Ev
00000000001dd72c W _ZN21llama_sampler_backend8get_nameEv
00000000001dd590 W _ZN21llama_sampler_backendC2EPKc
00000000001dd84c W _ZN21llama_sampler_backendD2Ev
000000000020f518 T _ZN21llm_build_bailingmoe2C1ERK11llama_modelRK16llm_graph_params
000000000020f518 T _ZN21llm_build_bailingmoe2C2ERK11llama_modelRK16llm_graph_params
000000000020fbe0 W _ZN21llm_build_bailingmoe2D0Ev
000000000021c1b4 T _ZN21llm_build_gemma2_iswaC1ERK11llama_modelRK16llm_graph_params
000000000021c1b4 T _ZN21llm_build_gemma2_iswaC2ERK11llama_modelRK16llm_graph_params
000000000021c7cc W _ZN21llm_build_gemma2_iswaD0Ev
0000000000223478 T _ZN21llm_build_hunyuan_moeC1ERK11llama_modelRK16llm_graph_params
0000000000223478 T _ZN21llm_build_hunyuan_moeC2ERK11llama_modelRK16llm_graph_params
0000000000223bb8 W _ZN21llm_build_hunyuan_moeD0Ev
0000000000225220 T _ZN21llm_build_kimi_linearC1ERK11llama_modelRK16llm_graph_params
0000000000225220 T _ZN21llm_build_kimi_linearC2ERK11llama_modelRK16llm_graph_params
00000000002266bc W _ZN21llm_build_kimi_linearD0Ev
000000000022daec T _ZN21llm_build_modern_bertC1ERK11llama_modelRK16llm_graph_params
000000000022daec T _ZN21llm_build_modern_bertC2ERK11llama_modelRK16llm_graph_params
000000000022e040 W _ZN21llm_build_modern_bertD0Ev
0000000000244984 T _ZN21llm_build_step35_iswaC1ERK11llama_modelRK16llm_graph_params
0000000000244984 T _ZN21llm_build_step35_iswaC2ERK11llama_modelRK16llm_graph_params
000000000024523c W _ZN21llm_build_step35_iswaD0Ev
0000000000163b24 T _ZN22llama_kv_cache_context4nextEv
0000000000163b60 T _ZN22llama_kv_cache_context5applyEv
00000000001635fc T _ZN22llama_kv_cache_contextC1E19llama_memory_status
0000000000163638 T _ZN22llama_kv_cache_contextC1EP14llama_kv_cache
00000000001639cc T _ZN22llama_kv_cache_contextC1EP14llama_kv_cacheNSt3__16vectorINS0_9slot_infoENS2_9allocatorIS4_EEEENS3_I12llama_ubatchNS5_IS8_EEEE
000000000016393c T _ZN22llama_kv_cache_contextC1EP14llama_kv_cacheP13llama_contextbNS0_16stream_copy_infoE
00000000001635fc T _ZN22llama_kv_cache_contextC2E19llama_memory_status
0000000000163638 T _ZN22llama_kv_cache_contextC2EP14llama_kv_cache
00000000001639cc T _ZN22llama_kv_cache_contextC2EP14llama_kv_cacheNSt3__16vectorINS0_9slot_infoENS2_9allocatorIS4_EEEENS3_I12llama_ubatchNS5_IS8_EEEE
000000000016393c T _ZN22llama_kv_cache_contextC2EP14llama_kv_cacheP13llama_contextbNS0_16stream_copy_infoE
0000000000163b0c T _ZN22llama_kv_cache_contextD0Ev
0000000000163a3c T _ZN22llama_kv_cache_contextD1Ev
0000000000163a3c T _ZN22llama_kv_cache_contextD2Ev
000000000016e250 T _ZN22llama_memory_recurrent10init_batchER18llama_batch_allocrjb
000000000016fb5c T _ZN22llama_memory_recurrent10state_readER15llama_io_read_iij
000000000016e804 T _ZN22llama_memory_recurrent11init_updateEP13llama_contextb
00000000001701d8 T _ZN22llama_memory_recurrent15state_read_dataER15llama_io_read_ij
000000000016fc44 T _ZN22llama_memory_recurrent15state_read_metaER15llama_io_read_iji
000000000016d7b0 T _ZN22llama_memory_recurrent5clearEb
000000000016dae4 T _ZN22llama_memory_recurrent6seq_cpEiiii
000000000016d870 T _ZN22llama_memory_recurrent6seq_rmEiii
000000000016e698 T _ZN22llama_memory_recurrent7prepareERKNSt3__16vectorI12llama_ubatchNS0_9allocatorIS2_EEEE
000000000016deac T _ZN22llama_memory_recurrent7seq_addEiiii
000000000016df54 T _ZN22llama_memory_recurrent7seq_divEiiii
000000000016dcd0 T _ZN22llama_memory_recurrent8seq_keepEi
000000000016e848 T _ZN22llama_memory_recurrent9find_slotERK12llama_ubatch
000000000016e7bc T _ZN22llama_memory_recurrent9init_fullEv
000000000016d03c T _ZN22llama_memory_recurrentC1ERK11llama_model9ggml_typeS3_bjjRKNSt3__18functionIFbiEEE
000000000016d03c T _ZN22llama_memory_recurrentC2ERK11llama_model9ggml_typeS3_bjjRKNSt3__18functionIFbiEEE
0000000000170a20 W _ZN22llama_memory_recurrentD0Ev
0000000000170980 W _ZN22llama_memory_recurrentD2Ev
0000000000212b38 T _ZN22llm_build_cohere2_iswaC1ERK11llama_modelRK16llm_graph_params
0000000000212b38 T _ZN22llm_build_cohere2_iswaC2ERK11llama_modelRK16llm_graph_params
0000000000213118 W _ZN22llm_build_cohere2_iswaD0Ev
0000000000217cf0 T _ZN22llm_build_ernie4_5_moeC1ERK11llama_modelRK16llm_graph_params
0000000000217cf0 T _ZN22llm_build_ernie4_5_moeC2ERK11llama_modelRK16llm_graph_params
00000000002184b8 W _ZN22llm_build_ernie4_5_moeD0Ev
000000000021ee18 T _ZN22llm_build_gemma3n_iswa13altup_correctEP11ggml_tensorS1_i
000000000021e9b0 T _ZN22llm_build_gemma3n_iswa13altup_predictEP11ggml_tensori
000000000021ed50 T _ZN22llm_build_gemma3n_iswa13gaussian_topkEP11ggml_tensor
000000000021ebf0 T _ZN22llm_build_gemma3n_iswa13view_2d_sliceEP11ggml_tensori
000000000021e984 T _ZN22llm_build_gemma3n_iswa14calc_magnitudeEP11ggml_tensor
000000000021e7c8 T _ZN22llm_build_gemma3n_iswa20get_per_layer_inputsEv
000000000021e69c T _ZN22llm_build_gemma3n_iswa24project_per_layer_inputsEP11ggml_tensorS1_
000000000021f084 T _ZN22llm_build_gemma3n_iswa31altup_compute_router_modalitiesEP11ggml_tensori
000000000021ec90 T _ZN22llm_build_gemma3n_iswa6laurelEP11ggml_tensori
000000000021d58c T _ZN22llm_build_gemma3n_iswaC1ERK11llama_modelRK16llm_graph_params
000000000021d58c T _ZN22llm_build_gemma3n_iswaC2ERK11llama_modelRK16llm_graph_params
000000000021f110 W _ZN22llm_build_gemma3n_iswaD0Ev
00000000002424ac W _ZN22llm_build_smallthinkerILb0EEC1ERK11llama_modelRK16llm_graph_params
00000000002424ac W _ZN22llm_build_smallthinkerILb0EEC2ERK11llama_modelRK16llm_graph_params
00000000002430a4 W _ZN22llm_build_smallthinkerILb0EED0Ev
0000000000242aa8 W _ZN22llm_build_smallthinkerILb1EEC1ERK11llama_modelRK16llm_graph_params
0000000000242aa8 W _ZN22llm_build_smallthinkerILb1EEC2ERK11llama_modelRK16llm_graph_params
00000000002430d0 W _ZN22llm_build_smallthinkerILb1EED0Ev
000000000014c6e0 T _ZN22llm_graph_input_attn_k9can_reuseERK16llm_graph_params
000000000014c69c T _ZN22llm_graph_input_attn_k9set_inputEPK12llama_ubatch
00000000001547d0 W _ZN22llm_graph_input_attn_kD0Ev
0000000000222db4 T _ZN23llm_build_hunyuan_denseC1ERK11llama_modelRK16llm_graph_params
0000000000222db4 T _ZN23llm_build_hunyuan_denseC2ERK11llama_modelRK16llm_graph_params
000000000022344c W _ZN23llm_build_hunyuan_denseD0Ev
000000000014c624 T _ZN23llm_graph_input_attn_kv9can_reuseERK16llm_graph_params
000000000014c5d0 T _ZN23llm_graph_input_attn_kv9set_inputEPK12llama_ubatch
00000000001547cc W _ZN23llm_graph_input_attn_kvD0Ev
0000000000161710 T _ZN23llm_graph_input_k_shift9set_inputEPK12llama_ubatch
00000000001652f8 W _ZN23llm_graph_input_k_shiftD0Ev
000000000014b838 T _ZN23llm_graph_input_out_ids9can_reuseERK16llm_graph_params
000000000014b6f0 T _ZN23llm_graph_input_out_ids9set_inputEPK12llama_ubatch
00000000001547b4 W _ZN23llm_graph_input_out_idsD0Ev
000000000016b940 T _ZN24llama_memory_hybrid_iswa10init_batchER18llama_batch_allocrjb
000000000016c394 T _ZN24llama_memory_hybrid_iswa10state_readER15llama_io_read_iij
000000000016bea0 T _ZN24llama_memory_hybrid_iswa11init_updateEP13llama_contextb
000000000016bf10 T _ZN24llama_memory_hybrid_iswa5clearEb
000000000016bfb8 T _ZN24llama_memory_hybrid_iswa6seq_cpEiiii
000000000016bf4c T _ZN24llama_memory_hybrid_iswa6seq_rmEiii
000000000016c050 T _ZN24llama_memory_hybrid_iswa7seq_addEiiii
000000000016c0ac T _ZN24llama_memory_hybrid_iswa7seq_divEiiii
000000000016c014 T _ZN24llama_memory_hybrid_iswa8seq_keepEi
000000000016be58 T _ZN24llama_memory_hybrid_iswa9init_fullEv
000000000016b604 T _ZN24llama_memory_hybrid_iswaC1ERK11llama_model9ggml_typeS3_bbjjjS3_S3_jjbbRKNSt3__18functionIFbiEEES9_
000000000016b604 T _ZN24llama_memory_hybrid_iswaC2ERK11llama_model9ggml_typeS3_bbjjjS3_S3_jjbbRKNSt3__18functionIFbiEEES9_
000000000016ce38 W _ZN24llama_memory_hybrid_iswaD0Ev
000000000016cde4 W _ZN24llama_memory_hybrid_iswaD2Ev
0000000000215994 T _ZN24llm_build_delta_net_base24build_delta_net_chunkingEP11ggml_tensorS1_S1_S1_S1_S1_i
0000000000216ae4 T _ZN24llm_build_delta_net_base30build_delta_net_autoregressiveEP11ggml_tensorS1_S1_S1_S1_S1_i
0000000000215970 T _ZN24llm_build_delta_net_baseC1ERK16llm_graph_params
0000000000215970 T _ZN24llm_build_delta_net_baseC2ERK16llm_graph_params
0000000000217010 W _ZN24llm_build_delta_net_baseD0Ev
0000000000221344 T _ZN24llm_build_granite_hybrid15build_layer_ffnEP11ggml_tensorS1_RK11llama_modeli
0000000000220fc8 T _ZN24llm_build_granite_hybrid21build_attention_layerEP11ggml_tensorS1_P23llm_graph_input_attn_kvRK11llama_modelli
0000000000220d04 T _ZN24llm_build_granite_hybridC1ERK11llama_modelRK16llm_graph_params
0000000000220d04 T _ZN24llm_build_granite_hybridC2ERK11llama_modelRK16llm_graph_params
00000000002215e8 W _ZN24llm_build_granite_hybridD0Ev
0000000000232a58 T _ZN24llm_build_pangu_embeddedC1ERK11llama_modelRK16llm_graph_params
0000000000232a58 T _ZN24llm_build_pangu_embeddedC2ERK11llama_modelRK16llm_graph_params
0000000000232ff8 W _ZN24llm_build_pangu_embeddedD0Ev
000000000014d438 T _ZN24llm_graph_input_sampling9can_reuseERK16llm_graph_params
000000000014d24c T _ZN24llm_graph_input_sampling9set_inputEPK12llama_ubatch
00000000001549f8 W _ZN24llm_graph_input_samplingD0Ev
00000000001549d8 W _ZN24llm_graph_input_samplingD2Ev
000000000021b5d4 T _ZN25llm_build_gemma_embeddingC1ERK11llama_modelRK16llm_graph_params
000000000021b5d4 T _ZN25llm_build_gemma_embeddingC2ERK11llama_modelRK16llm_graph_params
000000000021bc0c W _ZN25llm_build_gemma_embeddingD0Ev
0000000000231280 T _ZN25llm_build_openai_moe_iswaC1ERK11llama_modelRK16llm_graph_params
0000000000231280 T _ZN25llm_build_openai_moe_iswaC2ERK11llama_modelRK16llm_graph_params
000000000023188c W _ZN25llm_build_openai_moe_iswaD0Ev
000000000014afc8 T _ZN25llm_graph_input_attn_temp9set_inputEPK12llama_ubatch
00000000001547a0 W _ZN25llm_graph_input_attn_tempD0Ev
00000000001ee5ec W _ZN25llm_tokenizer_bpe_session14add_new_bigramEii
00000000001ec324 W _ZN25llm_tokenizer_bpe_session6appendEiRNSt3__16vectorIiNS0_9allocatorIiEEEE
00000000001eb3b4 W _ZN25llm_tokenizer_bpe_session8tokenizeERKNSt3__112basic_stringIcNS0_11char_traitsIcEENS0_9allocatorIcEEEERNS0_6vectorIiNS4_IiEEEE
00000000001ec62c W _ZN25llm_tokenizer_bpe_sessionD2Ev
00000000001ed718 W _ZN25llm_tokenizer_spm_session14try_add_bigramEii
00000000001eae70 W _ZN25llm_tokenizer_spm_session8tokenizeERKNSt3__112basic_stringIcNS0_11char_traitsIcEENS0_9allocatorIcEEEERNS0_6vectorIiNS4_IiEEEE
00000000001ed92c W _ZN25llm_tokenizer_spm_session9resegmentER10llm_symbolRNSt3__16vectorIiNS2_9allocatorIiEEEE
00000000001eb1d4 W _ZN25llm_tokenizer_spm_sessionD2Ev
00000000001ef824 W _ZN25llm_tokenizer_ugm_session16normalize_prefixERKNSt3__112basic_stringIcNS0_11char_traitsIcEENS0_9allocatorIcEEEEm
00000000001ecca0 W _ZN25llm_tokenizer_ugm_session8tokenizeERKNSt3__112basic_stringIcNS0_11char_traitsIcEENS0_9allocatorIcEEEERNS0_6vectorIiNS4_IiEEEE
00000000001ef5ac W _ZN25llm_tokenizer_ugm_session9normalizeERKNSt3__112basic_stringIcNS0_11char_traitsIcEENS0_9allocatorIcEEEEPS6_
00000000001ef150 W _ZN25llm_tokenizer_wpm_session10preprocessERKNSt3__112basic_stringIcNS0_11char_traitsIcEENS0_9allocatorIcEEEE
00000000001ec6b4 W _ZN25llm_tokenizer_wpm_session8tokenizeERKNSt3__112basic_stringIcNS0_11char_traitsIcEENS0_9allocatorIcEEEERNS0_6vectorIiNS4_IiEEEE
0000000000112a34 W _ZN26llama_params_fit_exceptionD0Ev
0000000000245e74 T _ZN26llm_build_wavtokenizer_decC1ERK11llama_modelRK16llm_graph_params
0000000000245e74 T _ZN26llm_build_wavtokenizer_decC2ERK11llama_modelRK16llm_graph_params
0000000000246484 W _ZN26llm_build_wavtokenizer_decD0Ev
000000000014c918 T _ZN26llm_graph_input_attn_cross9set_inputEPK12llama_ubatch
00000000001547dc W _ZN26llm_graph_input_attn_crossD0Ev
000000000014bf48 T _ZN26llm_graph_input_cross_embd9set_inputEPK12llama_ubatch
00000000001547c4 W _ZN26llm_graph_input_cross_embdD0Ev
000000000014cb98 T _ZN26llm_graph_input_mem_hybrid9can_reuseERK16llm_graph_params
000000000014caa8 T _ZN26llm_graph_input_mem_hybrid9set_inputEPK12llama_ubatch
0000000000154834 W _ZN26llm_graph_input_mem_hybridD0Ev
00000000001547e0 W _ZN26llm_graph_input_mem_hybridD2Ev
000000000014b22c T _ZN26llm_graph_input_pos_bucket9set_inputEPK12llama_ubatch
00000000001547ac W _ZN26llm_graph_input_pos_bucketD0Ev
00000000001ed218 W _ZN26llm_tokenizer_rwkv_session8tokenizeERKNSt3__112basic_stringIcNS0_11char_traitsIcEENS0_9allocatorIcEEEERNS0_6vectorIiNS4_IiEEEE
0000000000169750 T _ZN27llama_kv_cache_iswa_context4nextEv
00000000001697b4 T _ZN27llama_kv_cache_iswa_context5applyEv
0000000000168fc8 T _ZN27llama_kv_cache_iswa_contextC1E19llama_memory_status
0000000000168ff0 T _ZN27llama_kv_cache_iswa_contextC1EP19llama_kv_cache_iswa
00000000001691e0 T _ZN27llama_kv_cache_iswa_contextC1EP19llama_kv_cache_iswaNSt3__16vectorIN14llama_kv_cache9slot_infoENS2_9allocatorIS5_EEEES8_NS3_I12llama_ubatchNS6_IS9_EEEE
00000000001690d8 T _ZN27llama_kv_cache_iswa_contextC1EP19llama_kv_cache_iswaP13llama_contextb
0000000000168fc8 T _ZN27llama_kv_cache_iswa_contextC2E19llama_memory_status
0000000000168ff0 T _ZN27llama_kv_cache_iswa_contextC2EP19llama_kv_cache_iswa
00000000001691e0 T _ZN27llama_kv_cache_iswa_contextC2EP19llama_kv_cache_iswaNSt3__16vectorIN14llama_kv_cache9slot_infoENS2_9allocatorIS5_EEEES8_NS3_I12llama_ubatchNS6_IS9_EEEE
00000000001690d8 T _ZN27llama_kv_cache_iswa_contextC2EP19llama_kv_cache_iswaP13llama_contextb
0000000000169738 T _ZN27llama_kv_cache_iswa_contextD0Ev
000000000016965c T _ZN27llama_kv_cache_iswa_contextD1Ev
000000000016965c T _ZN27llama_kv_cache_iswa_contextD2Ev
000000000016b09c T _ZN27llama_memory_hybrid_context4nextEv
000000000016b100 T _ZN27llama_memory_hybrid_context5applyEv
000000000016aa48 T _ZN27llama_memory_hybrid_contextC1E19llama_memory_status
000000000016aa70 T _ZN27llama_memory_hybrid_contextC1EP19llama_memory_hybrid
000000000016ac60 T _ZN27llama_memory_hybrid_contextC1EP19llama_memory_hybridNSt3__16vectorIN14llama_kv_cache9slot_infoENS2_9allocatorIS5_EEEENS3_I12llama_ubatchNS6_IS9_EEEE
000000000016ab58 T _ZN27llama_memory_hybrid_contextC1EP19llama_memory_hybridP13llama_contextb
000000000016aa48 T _ZN27llama_memory_hybrid_contextC2E19llama_memory_status
000000000016aa70 T _ZN27llama_memory_hybrid_contextC2EP19llama_memory_hybrid
000000000016ac60 T _ZN27llama_memory_hybrid_contextC2EP19llama_memory_hybridNSt3__16vectorIN14llama_kv_cache9slot_infoENS2_9allocatorIS5_EEEENS3_I12llama_ubatchNS6_IS9_EEEE
000000000016ab58 T _ZN27llama_memory_hybrid_contextC2EP19llama_memory_hybridP13llama_contextb
000000000016b530 W _ZN27llama_memory_hybrid_contextD0Ev
000000000016b454 W _ZN27llama_memory_hybrid_contextD2Ev
000000000014c7f0 T _ZN28llm_graph_input_attn_kv_iswa9can_reuseERK16llm_graph_params
000000000014c754 T _ZN28llm_graph_input_attn_kv_iswa9set_inputEPK12llama_ubatch
00000000001547d4 W _ZN28llm_graph_input_attn_kv_iswaD0Ev
000000000014cdd4 T _ZN28llm_graph_input_mem_hybrid_k9can_reuseERK16llm_graph_params
000000000014ccfc T _ZN28llm_graph_input_mem_hybrid_k9set_inputEPK12llama_ubatch
00000000001548dc W _ZN28llm_graph_input_mem_hybrid_kD0Ev
0000000000154888 W _ZN28llm_graph_input_mem_hybrid_kD2Ev
000000000014bf98 T _ZN29llm_graph_input_attn_no_cache9set_inputEPK12llama_ubatch
00000000001547c8 W _ZN29llm_graph_input_attn_no_cacheD0Ev
000000000014b6d4 T _ZN29llm_graph_input_pos_bucket_kv9set_inputEPK12llama_ubatch
00000000001547b0 W _ZN29llm_graph_input_pos_bucket_kvD0Ev
00000000001707b8 T _ZN30llama_memory_recurrent_context4nextEv
00000000001707f4 T _ZN30llama_memory_recurrent_context5applyEv
0000000000170658 T _ZN30llama_memory_recurrent_contextC1E19llama_memory_status
0000000000170680 T _ZN30llama_memory_recurrent_contextC1EP22llama_memory_recurrent
00000000001706b0 T _ZN30llama_memory_recurrent_contextC1EP22llama_memory_recurrentNSt3__16vectorI12llama_ubatchNS2_9allocatorIS4_EEEE
0000000000170658 T _ZN30llama_memory_recurrent_contextC2E19llama_memory_status
0000000000170680 T _ZN30llama_memory_recurrent_contextC2EP22llama_memory_recurrent
00000000001706b0 T _ZN30llama_memory_recurrent_contextC2EP22llama_memory_recurrentNSt3__16vectorI12llama_ubatchNS2_9allocatorIS4_EEEE
00000000001707a0 T _ZN30llama_memory_recurrent_contextD0Ev
00000000001706f4 T _ZN30llama_memory_recurrent_contextD1Ev
00000000001706f4 T _ZN30llama_memory_recurrent_contextD2Ev
000000000014d0a4 T _ZN31llm_graph_input_mem_hybrid_iswa9can_reuseERK16llm_graph_params
000000000014cf34 T _ZN31llm_graph_input_mem_hybrid_iswa9set_inputEPK12llama_ubatch
0000000000154984 W _ZN31llm_graph_input_mem_hybrid_iswaD0Ev
0000000000154930 W _ZN31llm_graph_input_mem_hybrid_iswaD2Ev
000000000016ca8c T _ZN32llama_memory_hybrid_iswa_context4nextEv
000000000016caf0 T _ZN32llama_memory_hybrid_iswa_context5applyEv
000000000016c3f8 T _ZN32llama_memory_hybrid_iswa_contextC1E19llama_memory_status
000000000016c420 T _ZN32llama_memory_hybrid_iswa_contextC1EP24llama_memory_hybrid_iswa
000000000016c610 T _ZN32llama_memory_hybrid_iswa_contextC1EP24llama_memory_hybrid_iswaNSt3__16vectorIN14llama_kv_cache9slot_infoENS2_9allocatorIS5_EEEES8_NS3_I12llama_ubatchNS6_IS9_EEEE
000000000016c508 T _ZN32llama_memory_hybrid_iswa_contextC1EP24llama_memory_hybrid_iswaP13llama_contextb
000000000016c3f8 T _ZN32llama_memory_hybrid_iswa_contextC2E19llama_memory_status
000000000016c420 T _ZN32llama_memory_hybrid_iswa_contextC2EP24llama_memory_hybrid_iswa
000000000016c610 T _ZN32llama_memory_hybrid_iswa_contextC2EP24llama_memory_hybrid_iswaNSt3__16vectorIN14llama_kv_cache9slot_infoENS2_9allocatorIS5_EEEES8_NS3_I12llama_ubatchNS6_IS9_EEEE
000000000016c508 T _ZN32llama_memory_hybrid_iswa_contextC2EP24llama_memory_hybrid_iswaP13llama_contextb
000000000016cf68 W _ZN32llama_memory_hybrid_iswa_contextD0Ev
000000000016ce8c W _ZN32llama_memory_hybrid_iswa_contextD2Ev
0000000000118ab0 T _ZN6LLM_KVC1E8llm_archPKc
0000000000118ab0 T _ZN6LLM_KVC2E8llm_archPKc
0000000000179d8c W _ZN8GGUFMeta3GKVIbE17validate_overrideE28llama_model_kv_override_typePK23llama_model_kv_override
0000000000179c98 W _ZN8GGUFMeta3GKVIbE6get_kvEPK12gguf_contexti
000000000017a098 W _ZN8GGUFMeta3GKVIfE17validate_overrideE28llama_model_kv_override_typePK23llama_model_kv_override
0000000000179fa4 W _ZN8GGUFMeta3GKVIfE6get_kvEPK12gguf_contexti
000000000017c0b0 W _ZN8GGUFMeta3GKVIiE17validate_overrideE28llama_model_kv_override_typePK23llama_model_kv_override
000000000017bfbc W _ZN8GGUFMeta3GKVIiE6get_kvEPK12gguf_contexti
000000000017a3a4 W _ZN8GGUFMeta3GKVIjE17validate_overrideE28llama_model_kv_override_typePK23llama_model_kv_override
000000000017a2b0 W _ZN8GGUFMeta3GKVIjE6get_kvEPK12gguf_contexti
0000000000179818 W _ZN8GGUFMeta3GKVINS_9ArrayInfoEE6get_kvEPK12gguf_contexti
000000000017a7dc W _ZN8GGUFMeta3GKVINSt3__112basic_stringIcNS1_11char_traitsIcEENS1_9allocatorIcEEEEE17validate_overrideE28llama_model_kv_override_typePK23llama_model_kv_override
000000000017a5bc W _ZN8GGUFMeta3GKVINSt3__112basic_stringIcNS1_11char_traitsIcEENS1_9allocatorIcEEEEE3setEPK12gguf_contextRKS7_RS7_PK23llama_model_kv_override
000000000017a664 W _ZN8GGUFMeta3GKVINSt3__112basic_stringIcNS1_11char_traitsIcEENS1_9allocatorIcEEEEE6get_kvEPK12gguf_contexti
000000000017bda4 W _ZN8GGUFMeta3GKVItE17validate_overrideE28llama_model_kv_override_typePK23llama_model_kv_override
000000000017bcb0 W _ZN8GGUFMeta3GKVItE6get_kvEPK12gguf_contexti
0000000000155efc T _ZN9time_measC1ERlb
0000000000155efc T _ZN9time_measC2ERlb
0000000000155f2c T _ZN9time_measD1Ev
0000000000155f2c T _ZN9time_measD2Ev
                 U _Znam
0000000000171378 T _ZNK10llama_file13has_direct_ioEv
000000000017136c T _ZNK10llama_file14read_alignmentEv
0000000000171744 W _ZNK10llama_file4impl4seekEmi
0000000000171608 W _ZNK10llama_file4impl4tellEv
0000000000171b50 W _ZNK10llama_file4impl9write_rawEPKvm
00000000001713b0 T _ZNK10llama_file4seekEmi
0000000000171360 T _ZNK10llama_file4sizeEv
0000000000171358 T _ZNK10llama_file4tellEv
0000000000171394 T _ZNK10llama_file7file_idEv
000000000017141c T _ZNK10llama_file9write_rawEPKvm
0000000000171424 T _ZNK10llama_file9write_u32Ej
00000000001714dc T _ZNK10llama_mmap4addrEv
00000000001714d0 T _ZNK10llama_mmap4sizeEv
0000000000172424 W _ZNK11llama_mlock4impl8raw_lockEPKvm
00000000001bf1c8 T _ZNK11llama_model10dev_outputEv
00000000001bf4a0 T _ZNK11llama_model10get_tensorEPKc
00000000001bdbd0 T _ZNK11llama_model10n_elementsEv
00000000001bdbdc T _ZNK11llama_model10print_infoEv
00000000001bd920 T _ZNK11llama_model10split_modeEv
00000000001bfe48 T _ZNK11llama_model11build_graphERK16llm_graph_params
00000000001bf1d4 T _ZNK11llama_model11select_buftEi
00000000001bcad8 T _ZNK11llama_model12n_gpu_layersEv
00000000001bf620 T _ZNK11llama_model13create_memoryERK19llama_memory_paramsRK13llama_cparams
00000000001bf5cc T _ZNK11llama_model16get_rope_factorsERK13llama_cparamsi
00000000001bd92c T _ZNK11llama_model16memory_breakdownEv
00000000001bf54c T _ZNK11llama_model18get_rope_freq_baseERK13llama_cparamsi
00000000001bf58c T _ZNK11llama_model19get_rope_freq_scaleERK13llama_cparamsi
00000000001bf494 T _ZNK11llama_model20has_tensor_overridesEv
00000000001bd8d0 T _ZNK11llama_model4descEv
00000000001bd900 T _ZNK11llama_model4sizeEv
00000000001860c8 T _ZNK11llama_model9arch_nameEv
00000000001bf19c T _ZNK11llama_model9dev_layerEi
00000000001bcaf0 T _ZNK11llama_model9n_devicesEv
00000000001bd90c T _ZNK11llama_model9n_tensorsEv
0000000000186168 T _ZNK11llama_model9type_nameEv
00000000001e96e8 T _ZNK11llama_vocab10detokenizeEPKiiPcibb
00000000001e96f0 T _ZNK11llama_vocab10detokenizeERKNSt3__16vectorIiNS0_9allocatorIiEEEEb
00000000001e8b50 T _ZNK11llama_vocab10is_controlEi
00000000001e8b08 T _ZNK11llama_vocab10is_unknownEi
00000000001e983c T _ZNK11llama_vocab10print_infoEv
00000000001e8eb4 T _ZNK11llama_vocab10token_maskEv
00000000001e8ecc T _ZNK11llama_vocab11get_add_bosEv
00000000001e8ed8 T _ZNK11llama_vocab11get_add_eosEv
00000000001e8ee4 T _ZNK11llama_vocab11get_add_sepEv
00000000001e8964 T _ZNK11llama_vocab12get_pre_typeEv
00000000001e8e54 T _ZNK11llama_vocab12token_middleEv
00000000001e8e48 T _ZNK11llama_vocab12token_prefixEv
00000000001e8e60 T _ZNK11llama_vocab12token_suffixEv
00000000001e3f58 T _ZNK11llama_vocab13byte_to_tokenEh
00000000001e8f38 T _ZNK11llama_vocab13find_bpe_rankERKNSt3__112basic_stringIcNS0_11char_traitsIcEENS0_9allocatorIcEEEES8_
00000000001e8f2c T _ZNK11llama_vocab13max_token_lenEv
00000000001e8970 T _ZNK11llama_vocab13n_token_typesEv
00000000001e8c80 T _ZNK11llama_vocab13text_to_tokenERKNSt3__112basic_stringIcNS0_11char_traitsIcEENS0_9allocatorIcEEEE
00000000001e8e84 T _ZNK11llama_vocab13token_fim_midEv
00000000001e8e90 T _ZNK11llama_vocab13token_fim_padEv
00000000001e8e6c T _ZNK11llama_vocab13token_fim_preEv
00000000001e8e9c T _ZNK11llama_vocab13token_fim_repEv
00000000001e8ea8 T _ZNK11llama_vocab13token_fim_sepEv
00000000001e8e78 T _ZNK11llama_vocab13token_fim_sufEv
00000000001e8c78 T _ZNK11llama_vocab13token_to_byteEi
00000000001e91bc T _ZNK11llama_vocab14get_bpe_mergesEv
00000000001e690c T _ZNK11llama_vocab14get_token_dataEi
00000000001e8d90 T _ZNK11llama_vocab14token_get_attrEi
00000000001e8cd4 T _ZNK11llama_vocab14token_get_textEi
00000000001e96ac T _ZNK11llama_vocab14token_to_pieceEi
00000000001e6960 T _ZNK11llama_vocab14token_to_pieceEiPciib
00000000001e8b98 T _ZNK11llama_vocab15is_user_definedEi
00000000001e8d38 T _ZNK11llama_vocab15token_get_scoreEi
00000000001e8efc T _ZNK11llama_vocab16get_clean_spacesEv
00000000001e8ef0 T _ZNK11llama_vocab17get_ignore_mergesEv
00000000001e8928 T _ZNK11llama_vocab17get_tokenizer_preEv
00000000001e88f8 T _ZNK11llama_vocab19get_tokenizer_modelEv
00000000001e8ec0 T _ZNK11llama_vocab20get_add_space_prefixEv
00000000001e8f14 T _ZNK11llama_vocab22get_escape_whitespacesEv
00000000001e9418 T _ZNK11llama_vocab24get_precompiled_charsmapEv
00000000001e8f08 T _ZNK11llama_vocab28get_remove_extra_whitespacesEv
00000000001e8f20 T _ZNK11llama_vocab30get_treat_whitespace_as_suffixEv
00000000001e7d2c T _ZNK11llama_vocab4impl10detokenizeEPKiiPcibb
00000000001e607c T _ZNK11llama_vocab4impl10is_controlEi
00000000001e6038 T _ZNK11llama_vocab4impl10is_unknownEi
00000000001e80e0 T _ZNK11llama_vocab4impl10print_infoEv
00000000001e61d8 T _ZNK11llama_vocab4impl13token_to_byteEi
00000000001e6350 T _ZNK11llama_vocab4impl14token_get_attrEi
00000000001e7cf4 T _ZNK11llama_vocab4impl14token_to_pieceEi
00000000001e6968 T _ZNK11llama_vocab4impl14token_to_pieceEiPciib
00000000001e6104 T _ZNK11llama_vocab4impl15is_user_definedEi
00000000001e63a4 T _ZNK11llama_vocab4impl22tokenizer_st_partitionERNSt3__112forward_listI23fragment_buffer_variantNS1_9allocatorIS3_EEEEb
00000000001e5d10 T _ZNK11llama_vocab4impl24token_to_piece_for_cacheEib
00000000001e618c T _ZNK11llama_vocab4impl6is_eogEi
00000000001e60c0 T _ZNK11llama_vocab4impl7is_byteEi
00000000001e5eac T _ZNK11llama_vocab4impl8get_typeEv
00000000001e42a0 T _ZNK11llama_vocab4impl8tokenizeERKNSt3__112basic_stringIcNS1_11char_traitsIcEENS1_9allocatorIcEEEEbb
00000000001e5ff4 T _ZNK11llama_vocab4impl9is_normalEi
00000000001e6148 T _ZNK11llama_vocab4impl9is_unusedEi
00000000001f109c W _ZNK11llama_vocab4impl9pair_hashclERKNSt3__14pairINS2_12basic_stringIcNS2_11char_traitsIcEENS2_9allocatorIcEEEES9_EE
00000000001e5eb4 T _ZNK11llama_vocab4impl9type_nameEv
00000000001e8c28 T _ZNK11llama_vocab6is_eogEi
00000000001e7cac T _ZNK11llama_vocab7is_byteEi
00000000001e8958 T _ZNK11llama_vocab8get_typeEv
00000000001e8800 T _ZNK11llama_vocab8n_tokensEv
00000000001e94a0 T _ZNK11llama_vocab8tokenizeEPKciPiibb
00000000001e96a4 T _ZNK11llama_vocab8tokenizeERKNSt3__112basic_stringIcNS0_11char_traitsIcEENS0_9allocatorIcEEEEbb
00000000001e8e30 T _ZNK11llama_vocab8token_nlEv
00000000001e8ac0 T _ZNK11llama_vocab9is_normalEi
00000000001e8be0 T _ZNK11llama_vocab9is_unusedEi
00000000001e8de8 T _ZNK11llama_vocab9token_bosEv
00000000001e8e0c T _ZNK11llama_vocab9token_eomEv
00000000001e8df4 T _ZNK11llama_vocab9token_eosEv
00000000001e8e00 T _ZNK11llama_vocab9token_eotEv
00000000001e8e3c T _ZNK11llama_vocab9token_padEv
00000000001e8e24 T _ZNK11llama_vocab9token_sepEv
00000000001e8e18 T _ZNK11llama_vocab9token_unkEv
00000000001e897c T _ZNK11llama_vocab9type_nameEv
0000000000119528 T _ZNK11LLM_TN_IMPL3strEv
0000000000129c3c T _ZNK13llama_context10get_memoryEv
0000000000129bf4 T _ZNK13llama_context11get_cparamsEv
000000000012d80c T _ZNK13llama_context12graph_get_cbEv
000000000012b3e0 T _ZNK13llama_context12graph_paramsEP16llm_graph_resultRK12llama_ubatchPK22llama_memory_context_i14llm_graph_type
0000000000129e04 T _ZNK13llama_context12pooling_typeEv
000000000012e71c T _ZNK13llama_context13perf_get_dataEv
00000000001297e0 T _ZNK13llama_context15graph_max_nodesEj
0000000000129c34 T _ZNK13llama_context15n_threads_batchEv
000000000012e79c T _ZNK13llama_context16memory_breakdownEv
000000000012d804 T _ZNK13llama_context18get_gf_res_reserveEv
000000000012a5c0 T _ZNK13llama_context18get_sampled_tokensEv
000000000012a2fc T _ZNK13llama_context18output_resolve_rowEi
0000000000129c04 T _ZNK13llama_context5n_ctxEv
0000000000129c14 T _ZNK13llama_context7n_batchEv
0000000000129c1c T _ZNK13llama_context8n_ubatchEv
0000000000129bec T _ZNK13llama_context9get_modelEv
0000000000129bfc T _ZNK13llama_context9get_schedEv
0000000000129c0c T _ZNK13llama_context9n_ctx_seqEv
0000000000129c24 T _ZNK13llama_context9n_seq_maxEv
0000000000129c2c T _ZNK13llama_context9n_threadsEv
00000000001557cc T _ZNK13llama_hparams10is_swa_anyEv
0000000000155910 T _ZNK13llama_hparams10n_embd_inpEv
0000000000155924 T _ZNK13llama_hparams10n_embd_outEv
0000000000155e18 T _ZNK13llama_hparams10n_layer_kvEv
0000000000155d24 T _ZNK13llama_hparams12is_recurrentEj
0000000000155938 T _ZNK13llama_hparams12n_embd_k_gqaEj
0000000000155974 T _ZNK13llama_hparams12n_embd_v_gqaEj
0000000000155d68 T _ZNK13llama_hparams14n_pos_per_embdEv
0000000000155aa8 T _ZNK13llama_hparams16n_embd_k_gqa_maxEv
0000000000155b60 T _ZNK13llama_hparams16n_embd_v_gqa_maxEv
0000000000155dd4 T _ZNK13llama_hparams17n_embd_head_k_mlaEv
0000000000155dec T _ZNK13llama_hparams17n_embd_head_v_mlaEv
00000000001559b0 T _ZNK13llama_hparams24is_n_embd_k_gqa_variableEv
0000000000155a2c T _ZNK13llama_hparams24is_n_embd_v_gqa_variableEv
000000000015588c T _ZNK13llama_hparams4n_ffEj
00000000001558c0 T _ZNK13llama_hparams5n_gqaEj
0000000000155e04 T _ZNK13llama_hparams6has_kvEj
0000000000155dc0 T _ZNK13llama_hparams6is_mlaEv
0000000000155d84 T _ZNK13llama_hparams6is_swaEj
0000000000155824 T _ZNK13llama_hparams6n_headEj
0000000000155c18 T _ZNK13llama_hparams8n_embd_rEv
0000000000155cc4 T _ZNK13llama_hparams8n_embd_sEv
0000000000155858 T _ZNK13llama_hparams9n_head_kvEj
0000000000155ee4 T _ZNK13llama_hparams9use_mropeEv
00000000001615c8 T _ZNK14llama_kv_cache10total_sizeEv
0000000000158fdc T _ZNK14llama_kv_cache11seq_pos_maxEi
0000000000158f6c T _ZNK14llama_kv_cache11seq_pos_minEi
00000000001617e4 T _ZNK14llama_kv_cache11state_writeER16llama_io_write_iij
000000000015b858 T _ZNK14llama_kv_cache12get_n_streamEv
0000000000157f38 T _ZNK14llama_kv_cache12size_k_bytesEv
0000000000157f80 T _ZNK14llama_kv_cache12size_v_bytesEv
000000000015b824 T _ZNK14llama_kv_cache13get_can_shiftEv
0000000000159f44 T _ZNK14llama_kv_cache13get_has_shiftEv
0000000000161610 T _ZNK14llama_kv_cache16build_rope_shiftERK13llama_cparamsP12ggml_contextP11ggml_tensorS6_S6_ff
0000000000159080 T _ZNK14llama_kv_cache16memory_breakdownEv
000000000015c234 T _ZNK14llama_kv_cache16set_input_k_idxsEP11ggml_tensorPK12llama_ubatchRKNS_9slot_infoE
000000000015c460 T _ZNK14llama_kv_cache16set_input_v_idxsEP11ggml_tensorPK12llama_ubatchRKNS_9slot_infoE
00000000001620b8 T _ZNK14llama_kv_cache16state_write_dataER16llama_io_write_iRKNS_13cell_ranges_tE
0000000000161d74 T _ZNK14llama_kv_cache16state_write_metaER16llama_io_write_iRKNS_13cell_ranges_tEi
000000000015b55c T _ZNK14llama_kv_cache17build_graph_shiftEP16llm_graph_resultP13llama_context
000000000015c8e8 T _ZNK14llama_kv_cache17set_input_kq_maskEP11ggml_tensorPK12llama_ubatchb
000000000015c814 T _ZNK14llama_kv_cache17set_input_k_shiftEP11ggml_tensor
000000000015c1c0 T _ZNK14llama_kv_cache18build_input_k_idxsEP12ggml_contextRK12llama_ubatch
000000000015c1e8 T _ZNK14llama_kv_cache18build_input_v_idxsEP12ggml_contextRK12llama_ubatch
000000000016148c T _ZNK14llama_kv_cache20set_input_pos_bucketEP11ggml_tensorPK12llama_ubatch
000000000015bd80 T _ZNK14llama_kv_cache5cpy_kEP12ggml_contextP11ggml_tensorS3_iRKNS_9slot_infoE
000000000015bf3c T _ZNK14llama_kv_cache5cpy_vEP12ggml_contextP11ggml_tensorS3_iRKNS_9slot_infoE
000000000015b930 T _ZNK14llama_kv_cache5get_kEP12ggml_contextijRKNS_9slot_infoE
000000000015bb10 T _ZNK14llama_kv_cache5get_vEP12ggml_contextijRKNS_9slot_infoE
000000000015b860 T _ZNK14llama_kv_cache8get_n_kvERKNS_9slot_infoE
0000000000158ab0 T _ZNK14llama_kv_cache8get_sizeEv
0000000000159ff4 T _ZNK14llama_kv_cache9find_slotERK12llama_ubatchb
0000000000154138 W _ZNK16llm_graph_params11allow_reuseERKS_
000000000014dcd4 T _ZNK16llm_graph_result13get_max_nodesEv
0000000000151fb0 T _ZNK17llm_graph_context10build_attnEP22llm_graph_input_attn_kP11ggml_tensorS3_S3_S3_S3_S3_S3_S3_fi
0000000000151b84 T _ZNK17llm_graph_context10build_attnEP23llm_graph_input_attn_kvP11ggml_tensorS3_S3_S3_S3_S3_S3_S3_fi
00000000001524dc T _ZNK17llm_graph_context10build_attnEP26llm_graph_input_attn_crossP11ggml_tensorS3_S3_S3_S3_S3_S3_S3_fi
0000000000152164 T _ZNK17llm_graph_context10build_attnEP28llm_graph_input_attn_kv_iswaP11ggml_tensorS3_S3_S3_S3_S3_S3_S3_fi
00000000001517ec T _ZNK17llm_graph_context10build_attnEP29llm_graph_input_attn_no_cacheP11ggml_tensorS3_S3_S3_S3_S3_S3_S3_fi
000000000014e248 T _ZNK17llm_graph_context10build_cvecEP11ggml_tensori
000000000014e450 T _ZNK17llm_graph_context10build_normEP11ggml_tensorS1_S1_13llm_norm_typei
0000000000152a58 T _ZNK17llm_graph_context12build_rs_inpEv
00000000001508ec T _ZNK17llm_graph_context13build_inp_clsEv
0000000000150454 T _ZNK17llm_graph_context13build_inp_posEv
000000000014e264 T _ZNK17llm_graph_context13build_lora_mmEP11ggml_tensorS1_
000000000014eda0 T _ZNK17llm_graph_context13build_moe_ffnEP11ggml_tensorS1_S1_S1_S1_S1_ll15llm_ffn_op_typebbf29llama_expert_gating_func_typeiS1_S1_
000000000014ee1c T _ZNK17llm_graph_context13build_moe_ffnEP11ggml_tensorS1_S1_S1_S1_S1_S1_S1_S1_S1_ll15llm_ffn_op_typebbf29llama_expert_gating_func_typeiS1_S1_S1_
00000000001536cc T _ZNK17llm_graph_context13build_poolingEP11ggml_tensorS1_S1_S1_S1_
0000000000150eb8 T _ZNK17llm_graph_context14build_attn_mhaEP11ggml_tensorS1_S1_S1_S1_S1_S1_fi
0000000000150090 T _ZNK17llm_graph_context14build_inp_embdEP11ggml_tensor
00000000001507c8 T _ZNK17llm_graph_context14build_inp_meanEv
0000000000150d8c T _ZNK17llm_graph_context14build_pos_biasEP11ggml_tensorS1_
00000000001539b8 T _ZNK17llm_graph_context14build_samplingEv
00000000001535b8 T _ZNK17llm_graph_context15build_dense_outEP11ggml_tensorS1_S1_
0000000000151d84 T _ZNK17llm_graph_context16build_attn_inp_kEv
000000000014e34c T _ZNK17llm_graph_context16build_lora_mm_idEP11ggml_tensorS1_S1_
0000000000151940 T _ZNK17llm_graph_context17build_attn_inp_kvEv
0000000000150688 T _ZNK17llm_graph_context17build_inp_out_idsEv
0000000000152384 T _ZNK17llm_graph_context20build_attn_inp_crossEv
0000000000150574 T _ZNK17llm_graph_context20build_inp_attn_scaleEv
0000000000150a14 T _ZNK17llm_graph_context20build_inp_cross_embdEv
0000000000152f1c T _ZNK17llm_graph_context20build_inp_mem_hybridEv
0000000000152614 T _ZNK17llm_graph_context22build_attn_inp_kv_iswaEv
00000000001530c0 T _ZNK17llm_graph_context22build_inp_mem_hybrid_kEv
0000000000151610 T _ZNK17llm_graph_context23build_attn_inp_no_cacheEv
0000000000150c5c T _ZNK17llm_graph_context24build_inp_pos_bucket_decEv
0000000000150b50 T _ZNK17llm_graph_context24build_inp_pos_bucket_encEv
0000000000153264 T _ZNK17llm_graph_context25build_inp_mem_hybrid_iswaEv
0000000000152cc0 T _ZNK17llm_graph_context27build_rwkv_token_shift_loadEP18llm_graph_input_rsRK12llama_ubatchi
0000000000152e44 T _ZNK17llm_graph_context28build_rwkv_token_shift_storeEP11ggml_tensorRK12llama_ubatchi
000000000014e200 T _ZNK17llm_graph_context2cbEP11ggml_tensorPKci
00000000001528f4 T _ZNK17llm_graph_context8build_rsEP11ggml_tensorS1_S1_iijjjiRKNSt3__18functionIFS1_P12ggml_contextS1_S1_EEE
0000000000152c0c T _ZNK17llm_graph_context8build_rsEP18llm_graph_input_rsP11ggml_tensoriiRKNSt3__18functionIFS3_P12ggml_contextS3_S3_EEE
000000000014e5c8 T _ZNK17llm_graph_context9build_ffnEP11ggml_tensorS1_S1_S1_S1_S1_S1_S1_S1_S1_S1_15llm_ffn_op_type17llm_ffn_gate_typei
0000000000113528 T _ZNK18llama_adapter_cvec10tensor_forEi
0000000000113570 T _ZNK18llama_adapter_cvec8apply_toEP12ggml_contextP11ggml_tensori
000000000011cf48 T _ZNK18llama_batch_allocr10get_n_usedEv
000000000011cab8 T _ZNK18llama_batch_allocr11seq_pos_maxEi
000000000011ca90 T _ZNK18llama_batch_allocr11seq_pos_minEi
000000000011cf38 T _ZNK18llama_batch_allocr12get_n_tokensEv
000000000011cf40 T _ZNK18llama_batch_allocr13get_n_outputsEv
000000000011cf34 T _ZNK18llama_batch_allocr9get_batchEv
00000000001771e0 T _ZNK18llama_model_loader10ftype_nameEv
0000000000174b30 T _ZNK18llama_model_loader10get_weightEPKc
0000000000177444 T _ZNK18llama_model_loader10print_infoEv
0000000000174afc T _ZNK18llama_model_loader13get_arch_nameEv
0000000000175a28 T _ZNK18llama_model_loader13load_data_forEP11ggml_tensor
0000000000174c84 T _ZNK18llama_model_loader14require_weightEPKc
0000000000174d38 T _ZNK18llama_model_loader15get_tensor_metaEPKc
0000000000174e2c T _ZNK18llama_model_loader17check_tensor_dimsERKNSt3__112basic_stringIcNS0_11char_traitsIcEENS0_9allocatorIcEEEERKNS0_6vectorIlNS4_IlEEEEb
00000000001758fc T _ZNK18llama_model_loader17get_mapping_rangeEPmS0_PPviP12ggml_context
0000000000174d50 T _ZNK18llama_model_loader19require_tensor_metaERKNSt3__112basic_stringIcNS0_11char_traitsIcEENS0_9allocatorIcEEEE
000000000017549c T _ZNK18llama_model_loader20done_getting_tensorsEv
000000000017ba44 W _ZNK18llama_model_loader20weight_name_comparerclERKNSt3__112basic_stringIcNS1_11char_traitsIcEENS1_9allocatorIcEEEES9_
0000000000174b28 T _ZNK18llama_model_loader8get_archEv
0000000000168768 T _ZNK19llama_kv_cache_iswa11seq_pos_maxEi
0000000000168758 T _ZNK19llama_kv_cache_iswa11seq_pos_minEi
0000000000168f08 T _ZNK19llama_kv_cache_iswa11state_writeER16llama_io_write_iij
0000000000168ea4 T _ZNK19llama_kv_cache_iswa13get_can_shiftEv
0000000000168778 T _ZNK19llama_kv_cache_iswa16memory_breakdownEv
0000000000168fc0 T _ZNK19llama_kv_cache_iswa7get_swaEv
0000000000168fb8 T _ZNK19llama_kv_cache_iswa8get_baseEv
000000000016a7a0 T _ZNK19llama_memory_hybrid11seq_pos_maxEi
000000000016a750 T _ZNK19llama_memory_hybrid11seq_pos_minEi
000000000016a988 T _ZNK19llama_memory_hybrid11state_writeER16llama_io_write_iij
000000000016aa38 T _ZNK19llama_memory_hybrid12get_mem_attnEv
000000000016aa40 T _ZNK19llama_memory_hybrid12get_mem_recrEv
000000000016a548 T _ZNK19llama_memory_hybrid13get_can_shiftEv
000000000016a7f0 T _ZNK19llama_memory_hybrid16memory_breakdownEv
0000000000138d6c T _ZNK20llama_grammar_parser7c_rulesEv
000000000022b010 T _ZNK20llm_build_mamba_base18build_mamba2_layerEP18llm_graph_input_rsP11ggml_tensorRK11llama_modelRK12llama_ubatchi
000000000023f8a8 T _ZNK20llm_build_rwkv6_base20build_rwkv6_time_mixEP18llm_graph_input_rsP11ggml_tensorS3_RK12llama_ubatchi
000000000023f788 T _ZNK20llm_build_rwkv6_base23build_rwkv6_channel_mixEPK11llama_layerP11ggml_tensorS4_8llm_arch
0000000000240f64 T _ZNK20llm_build_rwkv7_base20build_rwkv7_time_mixEP18llm_graph_input_rsP11ggml_tensorS3_RS3_RK12llama_ubatchi
0000000000240eb0 T _ZNK20llm_build_rwkv7_base23build_rwkv7_channel_mixEPK11llama_layerP11ggml_tensorS4_8llm_arch
00000000001efad8 W _ZNK20llm_tokenizer_plamo26encodeERKNSt3__112basic_stringIcNS0_11char_traitsIcEENS0_9allocatorIcEEEE
0000000000163c90 T _ZNK22llama_kv_cache_context10get_statusEv
0000000000163c98 T _ZNK22llama_kv_cache_context10get_ubatchEv
0000000000163e44 T _ZNK22llama_kv_cache_context16set_input_k_idxsEP11ggml_tensorPK12llama_ubatch
0000000000163e58 T _ZNK22llama_kv_cache_context16set_input_v_idxsEP11ggml_tensorPK12llama_ubatch
0000000000163e6c T _ZNK22llama_kv_cache_context17set_input_kq_maskEP11ggml_tensorPK12llama_ubatchb
0000000000163d74 T _ZNK22llama_kv_cache_context17set_input_k_shiftEP11ggml_tensor
0000000000163cfc T _ZNK22llama_kv_cache_context18build_input_k_idxsEP12ggml_contextRK12llama_ubatch
0000000000163d24 T _ZNK22llama_kv_cache_context18build_input_v_idxsEP12ggml_contextRK12llama_ubatch
0000000000163e74 T _ZNK22llama_kv_cache_context20set_input_pos_bucketEP11ggml_tensorPK12llama_ubatch
0000000000163cec T _ZNK22llama_kv_cache_context5cpy_kEP12ggml_contextP11ggml_tensorS3_i
0000000000163cf4 T _ZNK22llama_kv_cache_context5cpy_vEP12ggml_contextP11ggml_tensorS3_i
0000000000163cb4 T _ZNK22llama_kv_cache_context5get_kEP12ggml_contexti
0000000000163cd0 T _ZNK22llama_kv_cache_context5get_vEP12ggml_contexti
0000000000163cac T _ZNK22llama_kv_cache_context8get_n_kvEv
000000000016f288 T _ZNK22llama_memory_recurrent10total_sizeEv
000000000016e094 T _ZNK22llama_memory_recurrent11seq_pos_maxEi
000000000016e004 T _ZNK22llama_memory_recurrent11seq_pos_minEi
000000000016f2d0 T _ZNK22llama_memory_recurrent11state_writeER16llama_io_write_iij
000000000016d710 T _ZNK22llama_memory_recurrent12size_r_bytesEv
000000000016d760 T _ZNK22llama_memory_recurrent12size_s_bytesEv
000000000016f280 T _ZNK22llama_memory_recurrent13get_can_shiftEv
000000000016e118 T _ZNK22llama_memory_recurrent16memory_breakdownEv
000000000016f954 T _ZNK22llama_memory_recurrent16state_write_dataER16llama_io_write_iRKNSt3__16vectorINS2_4pairIjjEENS2_9allocatorIS5_EEEE
000000000016f7fc T _ZNK22llama_memory_recurrent16state_write_metaER16llama_io_write_iRKNSt3__16vectorINS2_4pairIjjEENS2_9allocatorIS5_EEEEi
000000000016c158 T _ZNK24llama_memory_hybrid_iswa11seq_pos_maxEi
000000000016c108 T _ZNK24llama_memory_hybrid_iswa11seq_pos_minEi
000000000016c340 T _ZNK24llama_memory_hybrid_iswa11state_writeER16llama_io_write_iij
000000000016c3e8 T _ZNK24llama_memory_hybrid_iswa12get_mem_attnEv
000000000016c3f0 T _ZNK24llama_memory_hybrid_iswa12get_mem_recrEv
000000000016bf00 T _ZNK24llama_memory_hybrid_iswa13get_can_shiftEv
000000000016c1a8 T _ZNK24llama_memory_hybrid_iswa16memory_breakdownEv
00000000001eb214 W _ZNK25llm_tokenizer_bpe_session10append_bosERNSt3__16vectorIiNS0_9allocatorIiEEEE
00000000001ec48c W _ZNK25llm_tokenizer_bpe_session10append_eosERNSt3__16vectorIiNS0_9allocatorIiEEEE
00000000001697f4 T _ZNK27llama_kv_cache_iswa_context10get_statusEv
00000000001697fc T _ZNK27llama_kv_cache_iswa_context10get_ubatchEv
0000000000169814 T _ZNK27llama_kv_cache_iswa_context7get_swaEv
000000000016980c T _ZNK27llama_kv_cache_iswa_context8get_baseEv
000000000016b140 T _ZNK27llama_memory_hybrid_context10get_statusEv
000000000016b148 T _ZNK27llama_memory_hybrid_context10get_ubatchEv
000000000016b158 T _ZNK27llama_memory_hybrid_context8get_attnEv
000000000016b160 T _ZNK27llama_memory_hybrid_context8get_recrEv
00000000001348d8 T _ZNK29llama_grammar_trigger_pattern4findERKNSt3__112basic_stringIcNS0_11char_traitsIcEENS0_9allocatorIcEEEE
0000000000170820 T _ZNK30llama_memory_recurrent_context10get_statusEv
0000000000170828 T _ZNK30llama_memory_recurrent_context10get_ubatchEv
00000000001708bc T _ZNK30llama_memory_recurrent_context6s_copyEi
000000000017089c T _ZNK30llama_memory_recurrent_context7get_r_lEi
00000000001708ac T _ZNK30llama_memory_recurrent_context7get_s_lEi
0000000000170858 T _ZNK30llama_memory_recurrent_context8get_headEv
0000000000170838 T _ZNK30llama_memory_recurrent_context8get_n_rsEv
0000000000170874 T _ZNK30llama_memory_recurrent_context8get_rs_zEv
0000000000170890 T _ZNK30llama_memory_recurrent_context8get_sizeEv
000000000016cb30 T _ZNK32llama_memory_hybrid_iswa_context10get_statusEv
000000000016cb38 T _ZNK32llama_memory_hybrid_iswa_context10get_ubatchEv
000000000016cb48 T _ZNK32llama_memory_hybrid_iswa_context8get_attnEv
000000000016cb50 T _ZNK32llama_memory_hybrid_iswa_context8get_recrEv
0000000000118abc T _ZNK6LLM_KVclE6llm_kv
0000000000145a88 W _ZNKSt3__110__back_refIcE6__execERNS_7__stateIcEE
0000000000204f68 W _ZNKSt3__110__back_refIwE6__execERNS_7__stateIwEE
0000000000155730 W _ZNKSt3__110__function6__funcIPFP11ggml_tensorP12ggml_contextS3_S3_ENS_9allocatorIS7_EES6_E11target_typeEv
0000000000155714 W _ZNKSt3__110__function6__funcIPFP11ggml_tensorP12ggml_contextS3_S3_ENS_9allocatorIS7_EES6_E6targetERKSt9type_info
00000000001556dc W _ZNKSt3__110__function6__funcIPFP11ggml_tensorP12ggml_contextS3_S3_ENS_9allocatorIS7_EES6_E7__cloneEPNS0_6__baseIS6_EE
00000000001556b0 W _ZNKSt3__110__function6__funcIPFP11ggml_tensorP12ggml_contextS3_S3_ENS_9allocatorIS7_EES6_E7__cloneEv
00000000001498f4 W _ZNKSt3__111__alternateIcE12__exec_splitEbRNS_7__stateIcEE
00000000001498e8 W _ZNKSt3__111__alternateIcE6__execERNS_7__stateIcEE
00000000002093a0 W _ZNKSt3__111__alternateIwE12__exec_splitEbRNS_7__stateIwEE
0000000000209394 W _ZNKSt3__111__alternateIwE6__execERNS_7__stateIwEE
000000000013f4d8 W _ZNKSt3__111basic_regexIcNS_12regex_traitsIcEEE21__match_at_start_ecmaINS_9allocatorINS_9sub_matchIPKcEEEEEEbS8_S8_RNS_13match_resultsIS8_T_EENS_15regex_constants15match_flag_typeEb
0000000000140184 W _ZNKSt3__111basic_regexIcNS_12regex_traitsIcEEE27__match_at_start_posix_subsINS_9allocatorINS_9sub_matchIPKcEEEEEEbS8_S8_RNS_13match_resultsIS8_T_EENS_15regex_constants15match_flag_typeEb
000000000013f8f0 W _ZNKSt3__111basic_regexIcNS_12regex_traitsIcEEE29__match_at_start_posix_nosubsINS_9allocatorINS_9sub_matchIPKcEEEEEEbS8_S8_RNS_13match_resultsIS8_T_EENS_15regex_constants15match_flag_typeEb
000000000013ee74 W _ZNKSt3__111basic_regexIcNS_12regex_traitsIcEEE8__searchINS_9allocatorINS_9sub_matchIPKcEEEEEEbS8_S8_RNS_13match_resultsIS8_T_EENS_15regex_constants15match_flag_typeE
0000000000203280 W _ZNKSt3__111basic_regexIwNS_12regex_traitsIwEEE21__match_at_start_ecmaINS_9allocatorINS_9sub_matchIPKwEEEEEEbS8_S8_RNS_13match_resultsIS8_T_EENS_15regex_constants15match_flag_typeEb
000000000020ac60 W _ZNKSt3__111basic_regexIwNS_12regex_traitsIwEEE27__match_at_start_posix_subsINS_9allocatorINS_9sub_matchIPKwEEEEEEbS8_S8_RNS_13match_resultsIS8_T_EENS_15regex_constants15match_flag_typeEb
000000000020a3b4 W _ZNKSt3__111basic_regexIwNS_12regex_traitsIwEEE29__match_at_start_posix_nosubsINS_9allocatorINS_9sub_matchIPKwEEEEEEbS8_S8_RNS_13match_resultsIS8_T_EENS_15regex_constants15match_flag_typeEb
0000000000209f14 W _ZNKSt3__111basic_regexIwNS_12regex_traitsIwEEE8__searchINS_9allocatorINS_9sub_matchIPKwEEEEEEbS8_S8_RNS_13match_resultsIS8_T_EENS_15regex_constants15match_flag_typeE
0000000000143a64 W _ZNKSt3__111__end_stateIcE6__execERNS_7__stateIcEE
00000000002020e8 W _ZNKSt3__111__end_stateIwE6__execERNS_7__stateIwEE
000000000014494c W _ZNKSt3__111__lookaheadIcNS_12regex_traitsIcEEE6__execERNS_7__stateIcEE
0000000000203100 W _ZNKSt3__111__lookaheadIwNS_12regex_traitsIwEEE6__execERNS_7__stateIwEE
0000000000149f48 W _ZNKSt3__111__match_anyIcE6__execERNS_7__stateIcEE
0000000000209a9c W _ZNKSt3__111__match_anyIwE6__execERNS_7__stateIwEE
0000000000125dd8 W _ZNKSt3__112basic_stringIcNS_11char_traitsIcEENS_9allocatorIcEEE4findB8ne180100EPKcm
00000000001ead8c W _ZNKSt3__112basic_stringIcNS_11char_traitsIcEENS_9allocatorIcEEE6substrB8ne180100Emm
00000000001f14d0 W _ZNKSt3__112__hash_tableINS_17__hash_value_typeINS_12basic_stringIcNS_11char_traitsIcEENS_9allocatorIcEEEEiEENS_22__unordered_map_hasherIS7_S8_NS_4hashIS7_EENS_8equal_toIS7_EELb1EEENS_21__unordered_map_equalIS7_S8_SD_SB_Lb1EEENS5_IS8_EEE4findIS7_EENS_21__hash_const_iteratorIPNS_11__hash_nodeIS8_PvEEEERKT_
00000000001d189c W _ZNKSt3__112__hash_tableINS_17__hash_value_typeINS_12basic_stringIcNS_11char_traitsIcEENS_9allocatorIcEEEENS_6vectorIfNS5_IfEEEEEENS_22__unordered_map_hasherIS7_SB_NS_4hashIS7_EENS_8equal_toIS7_EELb1EEENS_21__unordered_map_equalIS7_SB_SG_SE_Lb1EEENS5_ISB_EEE4findIS7_EENS_21__hash_const_iteratorIPNS_11__hash_nodeISB_PvEEEERKT_
0000000000118928 W _ZNKSt3__112__hash_tableINS_17__hash_value_typeINS_12basic_stringIcNS_11char_traitsIcEENS_9allocatorIcEEEES7_EENS_22__unordered_map_hasherIS7_S8_NS_4hashIS7_EENS_8equal_toIS7_EELb1EEENS_21__unordered_map_equalIS7_S8_SD_SB_Lb1EEENS5_IS8_EEE4findIS7_EENS_21__hash_const_iteratorIPNS_11__hash_nodeIS8_PvEEEERKT_
0000000000145760 W _ZNKSt3__112__match_charIcE6__execERNS_7__stateIcEE
0000000000204c38 W _ZNKSt3__112__match_charIwE6__execERNS_7__stateIwEE
00000000001488e4 W _ZNKSt3__112regex_traitsIcE18__lookup_classnameINS_11__wrap_iterIPKcEEEEmT_S7_bc
00000000001c7104 W _ZNKSt3__112regex_traitsIcE18__lookup_classnameIPKcEEmT_S5_bc
00000000001486bc W _ZNKSt3__112regex_traitsIcE19__transform_primaryINS_11__wrap_iterIPcEEEENS_12basic_stringIcNS_11char_traitsIcEENS_9allocatorIcEEEET_SC_c
0000000000146f1c W _ZNKSt3__112regex_traitsIcE19__transform_primaryIPcEENS_12basic_stringIcNS_11char_traitsIcEENS_9allocatorIcEEEET_SA_c
0000000000148440 W _ZNKSt3__112regex_traitsIcE20__lookup_collatenameINS_11__wrap_iterIPKcEEEENS_12basic_stringIcNS_11char_traitsIcEENS_9allocatorIcEEEET_SD_c
0000000000146cf4 W _ZNKSt3__112regex_traitsIcE20__lookup_collatenameIPcEENS_12basic_stringIcNS_11char_traitsIcEENS_9allocatorIcEEEET_SA_c
00000000001c6edc W _ZNKSt3__112regex_traitsIcE20__lookup_collatenameIPKcEENS_12basic_stringIcNS_11char_traitsIcEENS_9allocatorIcEEEET_SB_c
0000000000148ea8 W _ZNKSt3__112regex_traitsIcE9transformINS_11__wrap_iterIPcEEEENS_12basic_stringIcNS_11char_traitsIcEENS_9allocatorIcEEEET_SC_
0000000000146bcc W _ZNKSt3__112regex_traitsIcE9transformIPcEENS_12basic_stringIcNS_11char_traitsIcEENS_9allocatorIcEEEET_SA_
0000000000208404 W _ZNKSt3__112regex_traitsIwE18__lookup_classnameINS_11__wrap_iterIPKwEEEEmT_S7_bw
0000000000207f38 W _ZNKSt3__112regex_traitsIwE19__transform_primaryINS_11__wrap_iterIPwEEEENS_12basic_stringIwNS_11char_traitsIwEENS_9allocatorIwEEEET_SC_w
00000000002065d0 W _ZNKSt3__112regex_traitsIwE19__transform_primaryIPwEENS_12basic_stringIwNS_11char_traitsIwEENS_9allocatorIwEEEET_SA_w
0000000000207a88 W _ZNKSt3__112regex_traitsIwE20__lookup_collatenameINS_11__wrap_iterIPKwEEEENS_12basic_stringIwNS_11char_traitsIwEENS_9allocatorIwEEEET_SD_w
0000000000206178 W _ZNKSt3__112regex_traitsIwE20__lookup_collatenameIPwEENS_12basic_stringIwNS_11char_traitsIwEENS_9allocatorIwEEEET_SA_w
0000000000208a10 W _ZNKSt3__112regex_traitsIwE9transformINS_11__wrap_iterIPwEEEENS_12basic_stringIwNS_11char_traitsIwEENS_9allocatorIwEEEET_SC_
0000000000206038 W _ZNKSt3__112regex_traitsIwE9transformIPwEENS_12basic_stringIwNS_11char_traitsIwEENS_9allocatorIwEEEET_SA_
0000000000143b04 W _ZNKSt3__113__empty_stateIcE6__execERNS_7__stateIcEE
0000000000202188 W _ZNKSt3__113__empty_stateIwE6__execERNS_7__stateIwEE
00000000001ddeb0 W _ZNKSt3__113match_resultsIPKcNS_9allocatorINS_9sub_matchIS2_EEEEE6formatINS_20back_insert_iteratorINS_12basic_stringIcNS_11char_traitsIcEENS3_IcEEEEEEEET_SG_S2_S2_NS_15regex_constants15match_flag_typeE
0000000000144718 W _ZNKSt3__115__word_boundaryIcNS_12regex_traitsIcEEE6__execERNS_7__stateIcEE
0000000000202eb8 W _ZNKSt3__115__word_boundaryIwNS_12regex_traitsIwEEE6__execERNS_7__stateIwEE
0000000000145840 W _ZNKSt3__116__back_ref_icaseIcNS_12regex_traitsIcEEE6__execERNS_7__stateIcEE
0000000000204d18 W _ZNKSt3__116__back_ref_icaseIwNS_12regex_traitsIwEEE6__execERNS_7__stateIwEE
000000000014981c W _ZNKSt3__117__repeat_one_loopIcE6__execERNS_7__stateIcEE
00000000002092c8 W _ZNKSt3__117__repeat_one_loopIwE6__execERNS_7__stateIwEE
00000000001459bc W _ZNKSt3__118__back_ref_collateIcNS_12regex_traitsIcEEE6__execERNS_7__stateIcEE
0000000000204e9c W _ZNKSt3__118__back_ref_collateIwNS_12regex_traitsIwEEE6__execERNS_7__stateIwEE
00000000001455d0 W _ZNKSt3__118__match_char_icaseIcNS_12regex_traitsIcEEE6__execERNS_7__stateIcEE
0000000000204aa8 W _ZNKSt3__118__match_char_icaseIwNS_12regex_traitsIwEEE6__execERNS_7__stateIwEE
00000000001462b8 W _ZNKSt3__120__bracket_expressionIcNS_12regex_traitsIcEEE6__execERNS_7__stateIcEE
0000000000205774 W _ZNKSt3__120__bracket_expressionIwNS_12regex_traitsIwEEE6__execERNS_7__stateIwEE
0000000000144594 W _ZNKSt3__120__l_anchor_multilineIcE6__execERNS_7__stateIcEE
0000000000202d34 W _ZNKSt3__120__l_anchor_multilineIwE6__execERNS_7__stateIwEE
00000000001456dc W _ZNKSt3__120__match_char_collateIcNS_12regex_traitsIcEEE6__execERNS_7__stateIcEE
0000000000204bb4 W _ZNKSt3__120__match_char_collateIwNS_12regex_traitsIwEEE6__execERNS_7__stateIwEE
0000000000144630 W _ZNKSt3__120__r_anchor_multilineIcE6__execERNS_7__stateIcEE
0000000000202dd0 W _ZNKSt3__120__r_anchor_multilineIwE6__execERNS_7__stateIwEE
000000000013359c W _ZNKSt3__120__shared_ptr_pointerIP18llama_adapter_cvecNS_14default_deleteIS1_EENS_9allocatorIS1_EEE13__get_deleterERKSt9type_info
0000000000143aa8 W _ZNKSt3__120__shared_ptr_pointerIPNS_13__empty_stateIcEENS_10shared_ptrIS2_E27__shared_ptr_default_deleteIS2_S2_EENS_9allocatorIS2_EEE13__get_deleterERKSt9type_info
000000000020212c W _ZNKSt3__120__shared_ptr_pointerIPNS_13__empty_stateIwEENS_10shared_ptrIS2_E27__shared_ptr_default_deleteIS2_S2_EENS_9allocatorIS2_EEE13__get_deleterERKSt9type_info
0000000000149920 W _ZNKSt3__121__empty_non_own_stateIcE6__execERNS_7__stateIcEE
00000000002093cc W _ZNKSt3__121__empty_non_own_stateIwE6__execERNS_7__stateIwEE
0000000000116b34 W _ZNKSt3__121__murmur2_or_cityhashImLm64EEclB8ne180100EPKvm
00000000001492d4 W _ZNKSt3__126__end_marked_subexpressionIcE6__execERNS_7__stateIcEE
0000000000208e10 W _ZNKSt3__126__end_marked_subexpressionIwE6__execERNS_7__stateIwEE
0000000000149268 W _ZNKSt3__128__begin_marked_subexpressionIcE6__execERNS_7__stateIcEE
0000000000208da4 W _ZNKSt3__128__begin_marked_subexpressionIwE6__execERNS_7__stateIwEE
00000000001496f8 W _ZNKSt3__16__loopIcE12__exec_splitEbRNS_7__stateIcEE
0000000000149534 W _ZNKSt3__16__loopIcE6__execERNS_7__stateIcEE
00000000002091a4 W _ZNKSt3__16__loopIwE12__exec_splitEbRNS_7__stateIwEE
0000000000208fe0 W _ZNKSt3__16__loopIwE6__execERNS_7__stateIwEE
0000000000143a70 W _ZNKSt3__16__nodeIcE12__exec_splitEbRNS_7__stateIcEE
0000000000143a74 W _ZNKSt3__16__nodeIcE6__execERNS_7__stateIcEE
00000000002020f4 W _ZNKSt3__16__nodeIwE12__exec_splitEbRNS_7__stateIwEE
00000000002020f8 W _ZNKSt3__16__nodeIwE6__execERNS_7__stateIwEE
0000000000200e24 W _ZNKSt3__16__treeINS_12__value_typeINS_12basic_stringIcNS_11char_traitsIcEENS_9allocatorIcEEEEiEENS_19__map_value_compareIS7_S8_NS_4lessIS7_EELb1EEENS5_IS8_EEE4findIS7_EENS_21__tree_const_iteratorIS8_PNS_11__tree_nodeIS8_PvEElEERKT_
00000000001ede40 W _ZNKSt3__16vectorI10llm_symbolNS_9allocatorIS1_EEE20__throw_length_errorB8ne180100Ev
00000000001c8614 W _ZNKSt3__16vectorI11llama_layerNS_9allocatorIS1_EEE20__throw_length_errorB8ne180100Ev
00000000001671f0 W _ZNKSt3__16vectorI12llama_ubatchNS_9allocatorIS1_EEE20__throw_length_errorB8ne180100Ev
00000000001661f0 W _ZNKSt3__16vectorI14llama_kv_cellsNS_9allocatorIS1_EEE20__throw_length_errorB8ne180100Ev
0000000000167764 W _ZNKSt3__16vectorI14llama_kv_cellsNS_9allocatorIS1_EEE20__throw_out_of_rangeB8ne180100Ev
00000000001eec58 W _ZNKSt3__16vectorI14llm_bigram_bpeNS_9allocatorIS1_EEE20__throw_length_errorB8ne180100Ev
00000000001ee088 W _ZNKSt3__16vectorI14llm_bigram_spmNS_9allocatorIS1_EEE20__throw_length_errorB8ne180100Ev
00000000001df440 W _ZNKSt3__16vectorI16llama_logit_biasNS_9allocatorIS1_EEE20__throw_length_errorB8ne180100Ev
00000000001dd83c W _ZNKSt3__16vectorI16llama_token_dataNS_9allocatorIS1_EEE20__throw_length_errorB8ne180100Ev
00000000001654a0 W _ZNKSt3__16vectorI17llama_kv_cell_extNS_9allocatorIS1_EEE20__throw_length_errorB8ne180100Ev
000000000013e580 W _ZNKSt3__16vectorI21llama_grammar_elementNS_9allocatorIS1_EEE20__throw_length_errorB8ne180100Ev
000000000014290c W _ZNKSt3__16vectorI23llama_grammar_candidateNS_9allocatorIS1_EEE20__throw_length_errorB8ne180100Ev
0000000000112540 W _ZNKSt3__16vectorI24llama_device_memory_dataNS_9allocatorIS1_EEE20__throw_length_errorB8ne180100Ev
00000000001348c0 W _ZNKSt3__16vectorI27llama_memory_breakdown_dataNS_9allocatorIS1_EEE20__throw_length_errorB8ne180100Ev
0000000000142f18 W _ZNKSt3__16vectorI29llama_grammar_trigger_patternNS_9allocatorIS1_EEE20__throw_length_errorB8ne180100Ev
00000000001d1bc8 W _ZNKSt3__16vectorI7no_initIfENS_9allocatorIS2_EEE20__throw_length_errorB8ne180100Ev
000000000017cbac W _ZNKSt3__16vectorI7no_initIhENS_9allocatorIS2_EEE20__throw_length_errorB8ne180100Ev
000000000011f8dc W _ZNKSt3__16vectorIaNS_9allocatorIaEEE20__throw_length_errorB8ne180100Ev
000000000011f378 W _ZNKSt3__16vectorIbNS_9allocatorIbEEE20__throw_length_errorB8ne180100Ev
00000000001470a8 W _ZNKSt3__16vectorIcNS_9allocatorIcEEE20__throw_length_errorB8ne180100Ev
00000000001dda84 W _ZNKSt3__16vectorIdNS_9allocatorIdEEE20__throw_length_errorB8ne180100Ev
00000000001208b8 W _ZNKSt3__16vectorIfNS_9allocatorIfEEE20__throw_length_errorB8ne180100Ev
0000000000118100 W _ZNKSt3__16vectorIhNS_9allocatorIhEEE20__throw_length_errorB8ne180100Ev
00000000001174cc W _ZNKSt3__16vectorIiNS_9allocatorIiEEE20__throw_length_errorB8ne180100Ev
00000000001341bc W _ZNKSt3__16vectorIjNS_9allocatorIjEEE20__throw_length_errorB8ne180100Ev
0000000000112760 W _ZNKSt3__16vectorIlNS_9allocatorIlEEE20__throw_length_errorB8ne180100Ev
0000000000156ca0 W _ZNKSt3__16vectorIlNS_9allocatorIlEEE20__throw_out_of_rangeB8ne180100Ev
00000000001337e0 W _ZNKSt3__16vectorImNS_9allocatorImEEE20__throw_length_errorB8ne180100Ev
00000000001c8430 W _ZNKSt3__16vectorIN11llama_model4impl9layer_devENS_9allocatorIS3_EEE20__throw_length_errorB8ne180100Ev
00000000001c8440 W _ZNKSt3__16vectorIN11llama_model4impl9layer_devENS_9allocatorIS3_EEE20__throw_out_of_rangeB8ne180100Ev
00000000001f0d20 W _ZNKSt3__16vectorIN11llama_vocab10token_dataENS_9allocatorIS2_EEE20__throw_length_errorB8ne180100Ev
00000000001f14c0 W _ZNKSt3__16vectorIN11llama_vocab10token_dataENS_9allocatorIS2_EEE20__throw_out_of_rangeB8ne180100Ev
0000000000134008 W _ZNKSt3__16vectorIN13llama_context9swap_infoENS_9allocatorIS2_EEE20__throw_length_errorB8ne180100Ev
0000000000166b44 W _ZNKSt3__16vectorIN14llama_kv_cache8kv_layerENS_9allocatorIS2_EEE20__throw_length_errorB8ne180100Ev
0000000000167540 W _ZNKSt3__16vectorIN14llama_kv_cache9slot_infoENS_9allocatorIS2_EEE20__throw_length_errorB8ne180100Ev
00000000001df7bc W _ZNKSt3__16vectorIN19llama_sampler_chain4infoENS_9allocatorIS2_EEE20__throw_length_errorB8ne180100Ev
0000000000170c40 W _ZNKSt3__16vectorIN22llama_memory_recurrent8mem_cellENS_9allocatorIS2_EEE20__throw_length_errorB8ne180100Ev
00000000001efac8 W _ZNKSt3__16vectorIN25llm_tokenizer_ugm_session17best_tokenizationENS_9allocatorIS2_EEE20__throw_length_errorB8ne180100Ev
000000000014277c W _ZNKSt3__16vectorINS0_I21llama_grammar_elementNS_9allocatorIS1_EEEENS2_IS4_EEE20__throw_length_errorB8ne180100Ev
000000000011f268 W _ZNKSt3__16vectorINS0_IbNS_9allocatorIbEEEENS1_IS3_EEE20__throw_length_errorB8ne180100Ev
00000000001f0498 W _ZNKSt3__16vectorINS0_IiNS_9allocatorIiEEEENS1_IS3_EEE20__throw_length_errorB8ne180100Ev
00000000001658d0 W _ZNKSt3__16vectorINS0_IjNS_9allocatorIjEEEENS1_IS3_EEE20__throw_length_errorB8ne180100Ev
000000000013ece4 W _ZNKSt3__16vectorINS0_IPK21llama_grammar_elementNS_9allocatorIS3_EEEENS4_IS6_EEE20__throw_length_errorB8ne180100Ev
000000000017ba34 W _ZNKSt3__16vectorINS_10unique_ptrI10llama_fileNS_14default_deleteIS2_EEEENS_9allocatorIS5_EEE20__throw_length_errorB8ne180100Ev
000000000017c698 W _ZNKSt3__16vectorINS_10unique_ptrI10llama_fileNS_14default_deleteIS2_EEEENS_9allocatorIS5_EEE20__throw_out_of_rangeB8ne180100Ev
000000000017c308 W _ZNKSt3__16vectorINS_10unique_ptrI10llama_mmapNS_14default_deleteIS2_EEEENS_9allocatorIS5_EEE20__throw_length_errorB8ne180100Ev
000000000017c688 W _ZNKSt3__16vectorINS_10unique_ptrI10llama_mmapNS_14default_deleteIS2_EEEENS_9allocatorIS5_EEE20__throw_out_of_rangeB8ne180100Ev
000000000017c4c8 W _ZNKSt3__16vectorINS_10unique_ptrI11llama_mlockNS_14default_deleteIS2_EEEENS_9allocatorIS5_EEE20__throw_length_errorB8ne180100Ev
000000000017c97c W _ZNKSt3__16vectorINS_10unique_ptrI11llama_mlockNS_14default_deleteIS2_EEEENS_9allocatorIS5_EEE20__throw_out_of_rangeB8ne180100Ev
00000000001337b0 W _ZNKSt3__16vectorINS_10unique_ptrI12ggml_backend20ggml_backend_deleterEENS_9allocatorIS4_EEE20__throw_length_errorB8ne180100Ev
00000000001165b0 W _ZNKSt3__16vectorINS_10unique_ptrI12ggml_context20ggml_context_deleterEENS_9allocatorIS4_EEE20__throw_length_errorB8ne180100Ev
0000000000155650 W _ZNKSt3__16vectorINS_10unique_ptrI17llm_graph_input_iNS_14default_deleteIS2_EEEENS_9allocatorIS5_EEE20__throw_length_errorB8ne180100Ev
0000000000117f18 W _ZNKSt3__16vectorINS_10unique_ptrI19ggml_backend_buffer27ggml_backend_buffer_deleterEENS_9allocatorIS4_EEE20__throw_length_errorB8ne180100Ev
0000000000112a24 W _ZNKSt3__16vectorINS_12basic_stringIcNS_11char_traitsIcEENS_9allocatorIcEEEENS4_IS6_EEE20__throw_length_errorB8ne180100Ev
00000000001f6918 W _ZNKSt3__16vectorINS_12basic_stringIcNS_11char_traitsIcEENS_9allocatorIcEEEENS4_IS6_EEE20__throw_out_of_rangeB8ne180100Ev
00000000002083f4 W _ZNKSt3__16vectorINS_12basic_stringIwNS_11char_traitsIwEENS_9allocatorIwEEEENS4_IS6_EEE20__throw_length_errorB8ne180100Ev
000000000011f088 W _ZNKSt3__16vectorINS_3setIiNS_4lessIiEENS_9allocatorIiEEEENS4_IS6_EEE20__throw_length_errorB8ne180100Ev
000000000014921c W _ZNKSt3__16vectorINS_4pairIccEENS_9allocatorIS2_EEE20__throw_length_errorB8ne180100Ev
000000000014a6b4 W _ZNKSt3__16vectorINS_4pairIiNS1_ImmEEEENS_9allocatorIS3_EEE20__throw_length_errorB8ne180100Ev
0000000000168000 W _ZNKSt3__16vectorINS_4pairIjjEENS_9allocatorIS2_EEE20__throw_length_errorB8ne180100Ev
0000000000172414 W _ZNKSt3__16vectorINS_4pairImmEENS_9allocatorIS2_EEE20__throw_length_errorB8ne180100Ev
000000000017cc70 W _ZNKSt3__16vectorINS_4pairImmEENS_9allocatorIS2_EEE20__throw_out_of_rangeB8ne180100Ev
0000000000140e88 W _ZNKSt3__16vectorINS_4pairImPKcEENS_9allocatorIS4_EEE20__throw_length_errorB8ne180100Ev
0000000000203f48 W _ZNKSt3__16vectorINS_4pairImPKwEENS_9allocatorIS4_EEE20__throw_length_errorB8ne180100Ev
000000000014a848 W _ZNKSt3__16vectorINS_4pairINS0_IjNS_9allocatorIjEEEE18llama_partial_utf8EENS2_IS6_EEE20__throw_length_errorB8ne180100Ev
00000000001c86b4 W _ZNKSt3__16vectorINS_4pairINS_10unique_ptrI12ggml_context20ggml_context_deleterEENS0_INS2_I19ggml_backend_buffer27ggml_backend_buffer_deleterEENS_9allocatorIS8_EEEEEENS9_ISC_EEE20__throw_length_errorB8ne180100Ev
0000000000166ff8 W _ZNKSt3__16vectorINS_4pairINS_10unique_ptrI12ggml_context20ggml_context_deleterEENS2_I19ggml_backend_buffer27ggml_backend_buffer_deleterEEEENS_9allocatorIS9_EEE20__throw_length_errorB8ne180100Ev
00000000001c9794 W _ZNKSt3__16vectorINS_4pairINS_12basic_stringIcNS_11char_traitsIcEENS_9allocatorIcEEEEP11ggml_tensorEENS5_ISA_EEE20__throw_length_errorB8ne180100Ev
000000000014920c W _ZNKSt3__16vectorINS_4pairINS_12basic_stringIcNS_11char_traitsIcEENS_9allocatorIcEEEES7_EENS5_IS8_EEE20__throw_length_errorB8ne180100Ev
0000000000208d48 W _ZNKSt3__16vectorINS_4pairINS_12basic_stringIwNS_11char_traitsIwEENS_9allocatorIwEEEES7_EENS5_IS8_EEE20__throw_length_errorB8ne180100Ev
00000000001337c0 W _ZNKSt3__16vectorINS_4pairIP12ggml_backendPFvS3_iEEENS_9allocatorIS6_EEE20__throw_length_errorB8ne180100Ev
00000000001c8624 W _ZNKSt3__16vectorINS_4pairIP12ggml_contextNS_13unordered_mapIjP19ggml_backend_bufferNS_4hashIjEENS_8equal_toIjEENS_9allocatorINS1_IKjS6_EEEEEEEENSB_ISG_EEE20__throw_length_errorB8ne180100Ev
00000000001c46e8 W _ZNKSt3__16vectorINS_4pairIP19ggml_backend_deviceP24ggml_backend_buffer_typeEENS_9allocatorIS6_EEE20__throw_length_errorB8ne180100Ev
0000000000208d58 W _ZNKSt3__16vectorINS_4pairIwwEENS_9allocatorIS2_EEE20__throw_length_errorB8ne180100Ev
00000000001344b0 W _ZNKSt3__16vectorINS_5arrayINS_12basic_stringIcNS_11char_traitsIcEENS_9allocatorIcEEEELm9EEENS5_IS8_EEE20__throw_length_errorB8ne180100Ev
000000000011f8ec W _ZNKSt3__16vectorINS_6bitsetILm256EEENS_9allocatorIS2_EEE20__throw_length_errorB8ne180100Ev
000000000017c96c W _ZNKSt3__16vectorINS_6futureINS_4pairIP11ggml_tensorbEEEENS_9allocatorIS6_EEE20__throw_length_errorB8ne180100Ev
00000000001d16ac W _ZNKSt3__16vectorINS_6threadENS_9allocatorIS1_EEE20__throw_length_errorB8ne180100Ev
0000000000140b98 W _ZNKSt3__16vectorINS_7__stateIcEENS_9allocatorIS2_EEE20__throw_length_errorB8ne180100Ev
0000000000203c68 W _ZNKSt3__16vectorINS_7__stateIwEENS_9allocatorIS2_EEE20__throw_length_errorB8ne180100Ev
0000000000142488 W _ZNKSt3__16vectorINS_9sub_matchINS_11__wrap_iterIPKcEEEENS_9allocatorIS6_EEE20__throw_length_errorB8ne180100Ev
000000000020c7ec W _ZNKSt3__16vectorINS_9sub_matchINS_11__wrap_iterIPKwEEEENS_9allocatorIS6_EEE20__throw_length_errorB8ne180100Ev
0000000000140d4c W _ZNKSt3__16vectorINS_9sub_matchIPKcEENS_9allocatorIS4_EEE20__throw_length_errorB8ne180100Ev
0000000000203860 W _ZNKSt3__16vectorINS_9sub_matchIPKwEENS_9allocatorIS4_EEE20__throw_length_errorB8ne180100Ev
00000000001185e8 W _ZNKSt3__16vectorIP11ggml_tensorNS_9allocatorIS2_EEE20__throw_length_errorB8ne180100Ev
00000000001337d0 W _ZNKSt3__16vectorIP12ggml_backendNS_9allocatorIS2_EEE20__throw_length_errorB8ne180100Ev
00000000001dd82c W _ZNKSt3__16vectorIP16llama_token_dataNS_9allocatorIS2_EEE20__throw_length_errorB8ne180100Ev
0000000000179808 W _ZNKSt3__16vectorIP18ggml_backend_eventNS_9allocatorIS2_EEE20__throw_length_errorB8ne180100Ev
00000000001797e8 W _ZNKSt3__16vectorIP19ggml_backend_bufferNS_9allocatorIS2_EEE20__throw_length_errorB8ne180100Ev
0000000000112710 W _ZNKSt3__16vectorIP19ggml_backend_deviceNS_9allocatorIS2_EEE20__throw_length_errorB8ne180100Ev
00000000001c46f8 W _ZNKSt3__16vectorIP19ggml_backend_deviceNS_9allocatorIS2_EEE20__throw_out_of_rangeB8ne180100Ev
0000000000112a4c W _ZNKSt3__16vectorIP24ggml_backend_buffer_typeNS_9allocatorIS2_EEE20__throw_length_errorB8ne180100Ev
000000000011f758 W _ZNKSt3__16vectorIPiNS_9allocatorIS1_EEE20__throw_length_errorB8ne180100Ev
0000000000113518 W _ZNKSt3__16vectorIPK18llama_chat_messageNS_9allocatorIS3_EEE20__throw_length_errorB8ne180100Ev
00000000001428fc W _ZNKSt3__16vectorIPK21llama_grammar_elementNS_9allocatorIS3_EEE20__throw_length_errorB8ne180100Ev
000000000017f994 W _ZNKSt3__16vectorIPKcNS_9allocatorIS2_EEE20__throw_length_errorB8ne180100Ev
00000000001d169c W _ZNKSt3__16vectorIPKN18llama_model_loader19llama_tensor_weightENS_9allocatorIS4_EEE20__throw_length_errorB8ne180100Ev
00000000001797f8 W _ZNKSt3__16vectorIPvNS_9allocatorIS1_EEE20__throw_length_errorB8ne180100Ev
000000000020677c W _ZNKSt3__16vectorIwNS_9allocatorIwEEE20__throw_length_errorB8ne180100Ev
0000000000145a4c W _ZNSt3__110__back_refIcED0Ev
0000000000204f2c W _ZNSt3__110__back_refIwED0Ev
00000000001c97a8 W _ZNSt3__110__function12__value_funcIFbiEE4swapB8ne180100ERS3_
00000000001c98e8 W _ZNSt3__110__function12__value_funcIFiiEE4swapB8ne180100ERS3_
0000000000154ed0 W _ZNSt3__110__function12__value_funcIFvRK12llama_ubatchP11ggml_tensorPKciEE4swapB8ne180100ERSA_
0000000000169be8 W _ZNSt3__110__function6__baseIFbiEED2Ev
00000000001c98e4 W _ZNSt3__110__function6__baseIFiiEED2Ev
00000000001c97a4 W _ZNSt3__110__function6__baseIFjjEED2Ev
00000000001556a8 W _ZNSt3__110__function6__baseIFP11ggml_tensorP12ggml_contextS3_S3_EED2Ev
000000000013446c W _ZNSt3__110__function6__baseIFvRK12llama_ubatchP11ggml_tensorPKciEED2Ev
00000000001556f8 W _ZNSt3__110__function6__funcIPFP11ggml_tensorP12ggml_contextS3_S3_ENS_9allocatorIS7_EES6_E18destroy_deallocateEv
00000000001556f4 W _ZNSt3__110__function6__funcIPFP11ggml_tensorP12ggml_contextS3_S3_ENS_9allocatorIS7_EES6_E7destroyEv
00000000001556fc W _ZNSt3__110__function6__funcIPFP11ggml_tensorP12ggml_contextS3_S3_ENS_9allocatorIS7_EES6_EclEOS5_OS3_SC_
00000000001556ac W _ZNSt3__110__function6__funcIPFP11ggml_tensorP12ggml_contextS3_S3_ENS_9allocatorIS7_EES6_ED0Ev
00000000001eedd0 W _ZNSt3__110__pop_heapB8ne180100INS_17_ClassicAlgPolicyEN14llm_bigram_bpe10comparatorENS_11__wrap_iterIPS2_EEEEvT1_S7_RT0_NS_15iterator_traitsIS7_E15difference_typeE
00000000001ee2cc W _ZNSt3__110__pop_heapB8ne180100INS_17_ClassicAlgPolicyEN14llm_bigram_spm10comparatorENS_11__wrap_iterIPS2_EEEEvT1_S7_RT0_NS_15iterator_traitsIS7_E15difference_typeE
00000000001f5ef4 W _ZNSt3__110__pop_heapB8ne180100INS_17_ClassicAlgPolicyEZN20llm_tokenizer_plamo25buildERK11llama_vocabEUlRKNS_12basic_stringIcNS_11char_traitsIcEENS_9allocatorIcEEEESD_E_PSB_EEvT1_SG_RT0_NS_15iterator_traitsISG_E15difference_typeE
0000000000132854 W _ZNSt3__110shared_ptrI18llama_adapter_cvecED2B8ne180100Ev
000000000011ed9c W _ZNSt3__110shared_ptrIN12llama_ubatch6data_tEED2B8ne180100Ev
000000000013ecf4 W _ZNSt3__110shared_ptrINS_13__empty_stateIcEEED2B8ne180100Ev
00000000002015cc W _ZNSt3__110shared_ptrINS_13__empty_stateIwEEED2B8ne180100Ev
000000000017973c W _ZNSt3__110unique_ptrI10llama_mmapNS_14default_deleteIS1_EEED2B8ne180100Ev
0000000000179710 W _ZNSt3__110unique_ptrI11llama_mlockNS_14default_deleteIS1_EEED2B8ne180100Ev
00000000001165c0 W _ZNSt3__110unique_ptrI12ggml_context20ggml_context_deleterED2B8ne180100Ev
0000000000116770 W _ZNSt3__110unique_ptrI12gguf_context20gguf_context_deleterED2B8ne180100Ev
00000000001326e8 W _ZNSt3__110unique_ptrI18ggml_backend_sched26ggml_backend_sched_deleterED2B8ne180100Ev
0000000000132654 W _ZNSt3__110unique_ptrI18llama_adapter_cvecNS_14default_deleteIS1_EEED2B8ne180100Ev
000000000013270c W _ZNSt3__110unique_ptrI18llama_batch_allocrNS_14default_deleteIS1_EEED2B8ne180100Ev
000000000011674c W _ZNSt3__110unique_ptrI19ggml_backend_buffer27ggml_backend_buffer_deleterED2B8ne180100Ev
00000000001ffa90 W _ZNSt3__110unique_ptrINS_11__hash_nodeINS_17__hash_value_typeIhNS_12basic_stringIcNS_11char_traitsIcEENS_9allocatorIcEEEEEEPvEENS_22__hash_node_destructorINS6_ISB_EEEEED2B8ne180100Ev
00000000001de61c W _ZNSt3__110unique_ptrINS_11__hash_nodeINS_17__hash_value_typeIiNS_6vectorIiNS_9allocatorIiEEEEEEPvEENS_22__hash_node_destructorINS4_IS9_EEEEED2B8ne180100Ev
0000000000167a54 W _ZNSt3__110unique_ptrINS_11__hash_nodeINS_17__hash_value_typeIiNS_6vectorIjNS_9allocatorIjEEEEEEPvEENS_22__hash_node_destructorINS4_IS9_EEEEED2B8ne180100Ev
000000000017b6e8 W _ZNSt3__110unique_ptrINS_11__hash_nodeINS_17__hash_value_typeINS_12basic_stringIcNS_11char_traitsIcEENS_9allocatorIcEEEE23llama_model_kv_overrideEEPvEENS_22__hash_node_destructorINS6_ISC_EEEEED2B8ne180100Ev
0000000000117bd4 W _ZNSt3__110unique_ptrINS_11__hash_nodeINS_17__hash_value_typeINS_12basic_stringIcNS_11char_traitsIcEENS_9allocatorIcEEEE25llama_adapter_lora_weightEEPvEENS_22__hash_node_destructorINS6_ISC_EEEEED2B8ne180100Ev
00000000001f4708 W _ZNSt3__110unique_ptrINS_11__hash_nodeINS_17__hash_value_typeINS_12basic_stringIcNS_11char_traitsIcEENS_9allocatorIcEEEEfEEPvEENS_22__hash_node_destructorINS6_ISB_EEEEED2B8ne180100Ev
00000000001fffbc W _ZNSt3__110unique_ptrINS_11__hash_nodeINS_17__hash_value_typeINS_12basic_stringIcNS_11char_traitsIcEENS_9allocatorIcEEEEhEEPvEENS_22__hash_node_destructorINS6_ISB_EEEEED2B8ne180100Ev
00000000001f0874 W _ZNSt3__110unique_ptrINS_11__hash_nodeINS_17__hash_value_typeINS_12basic_stringIcNS_11char_traitsIcEENS_9allocatorIcEEEEiEEPvEENS_22__hash_node_destructorINS6_ISB_EEEEED2B8ne180100Ev
00000000001169f8 W _ZNSt3__110unique_ptrINS_11__hash_nodeINS_17__hash_value_typeINS_12basic_stringIcNS_11char_traitsIcEENS_9allocatorIcEEEES8_EEPvEENS_22__hash_node_destructorINS6_ISB_EEEEED2B8ne180100Ev
00000000001f1050 W _ZNSt3__110unique_ptrINS_11__hash_nodeINS_17__hash_value_typeINS_4pairINS_12basic_stringIcNS_11char_traitsIcEENS_9allocatorIcEEEES9_EEiEEPvEENS_22__hash_node_destructorINS7_ISD_EEEEED2B8ne180100Ev
000000000011fc14 W _ZNSt3__110unique_ptrINS_11__hash_nodeINS_17__hash_value_typeINS_6bitsetILm256EEENS_6vectorIiNS_9allocatorIiEEEEEEPvEENS_22__hash_node_destructorINS6_ISB_EEEEED2B8ne180100Ev
0000000000200de0 W _ZNSt3__110unique_ptrINS_11__tree_nodeINS_12__value_typeIiNS_12basic_stringIcNS_11char_traitsIcEENS_9allocatorIcEEEEEEPvEENS_22__tree_node_destructorINS6_ISB_EEEEED2B8ne180100Ev
0000000000126328 W _ZNSt3__110unique_ptrINS_11__tree_nodeINS_12__value_typeINS_12basic_stringIcNS_11char_traitsIcEENS_9allocatorIcEEEE17llm_chat_templateEEPvEENS_22__tree_node_destructorINS6_ISC_EEEEED2B8ne180100Ev
00000000001177c4 W _ZNSt3__110unique_ptrINS_11__tree_nodeINS_12__value_typeINS_12basic_stringIcNS_11char_traitsIcEENS_9allocatorIcEEEE25llama_adapter_lora_weightEEPvEENS_22__tree_node_destructorINS6_ISC_EEEEED2B8ne180100Ev
000000000020080c W _ZNSt3__110unique_ptrINS_11__tree_nodeINS_12__value_typeINS_12basic_stringIcNS_11char_traitsIcEENS_9allocatorIcEEEEiEEPvEENS_22__tree_node_destructorINS6_ISB_EEEEED2B8ne180100Ev
000000000017bc6c W _ZNSt3__110unique_ptrINS_11__tree_nodeINS_12__value_typeINS_12basic_stringIcNS_11char_traitsIcEENS_9allocatorIcEEEEN18llama_model_loader19llama_tensor_weightEEEPvEENS_22__tree_node_destructorINS6_ISD_EEEEED2B8ne180100Ev
00000000001ee288 W _ZNSt3__110unique_ptrINS_11__tree_nodeINS_12__value_typeINS_12basic_stringIcNS_11char_traitsIcEENS_9allocatorIcEEEENS_4pairIiiEEEEPvEENS_22__tree_node_destructorINS6_ISD_EEEEED2B8ne180100Ev
00000000001327fc W _ZNSt3__110unique_ptrINS_13unordered_mapIP18llama_adapter_lorafNS_4hashIS3_EENS_8equal_toIS3_EENS_9allocatorINS_4pairIKS3_fEEEEEENS_14default_deleteISD_EEED2B8ne180100Ev
000000000017c78c W _ZNSt3__110unique_ptrINS_15__thread_structENS_14default_deleteIS1_EEED2B8ne180100Ev
000000000014988c W _ZNSt3__111__alternateIcED0Ev
0000000000209338 W _ZNSt3__111__alternateIwED0Ev
0000000000145300 W _ZNSt3__111basic_regexIcNS_12regex_traitsIcEEE11__push_charEc
000000000014930c W _ZNSt3__111basic_regexIcNS_12regex_traitsIcEEE11__push_loopEmmPNS_16__owns_one_stateIcEEmmb
0000000000143e5c W _ZNSt3__111basic_regexIcNS_12regex_traitsIcEEE12__parse_atomINS_11__wrap_iterIPKcEEEET_S9_S9_
00000000001c5718 W _ZNSt3__111basic_regexIcNS_12regex_traitsIcEEE12__parse_atomIPKcEET_S7_S7_
00000000001436b8 W _ZNSt3__111basic_regexIcNS_12regex_traitsIcEEE12__parse_grepINS_11__wrap_iterIPKcEEEET_S9_S9_
00000000001c4f98 W _ZNSt3__111basic_regexIcNS_12regex_traitsIcEEE12__parse_grepIPKcEET_S7_S7_
00000000001c538c W _ZNSt3__111basic_regexIcNS_12regex_traitsIcEEE12__parse_termIPKcEET_S7_S7_
0000000000143868 W _ZNSt3__111basic_regexIcNS_12regex_traitsIcEEE13__parse_egrepINS_11__wrap_iterIPKcEEEET_S9_S9_
00000000001c5148 W _ZNSt3__111basic_regexIcNS_12regex_traitsIcEEE13__parse_egrepIPKcEET_S7_S7_
000000000014547c W _ZNSt3__111basic_regexIcNS_12regex_traitsIcEEE15__push_back_refEi
0000000000149f88 W _ZNSt3__111basic_regexIcNS_12regex_traitsIcEEE15__test_back_refEc
000000000014314c W _ZNSt3__111basic_regexIcNS_12regex_traitsIcEEE16__parse_ecma_expINS_11__wrap_iterIPKcEEEET_S9_S9_
00000000001c4afc W _ZNSt3__111basic_regexIcNS_12regex_traitsIcEEE16__parse_ecma_expIPKcEET_S7_S7_
0000000000144460 W _ZNSt3__111basic_regexIcNS_12regex_traitsIcEEE16__push_lookaheadERKS3_bj
0000000000143b54 W _ZNSt3__111basic_regexIcNS_12regex_traitsIcEEE17__parse_assertionINS_11__wrap_iterIPKcEEEET_S9_S9_
00000000001c5410 W _ZNSt3__111basic_regexIcNS_12regex_traitsIcEEE17__parse_assertionIPKcEET_S7_S7_
00000000001479d8 W _ZNSt3__111basic_regexIcNS_12regex_traitsIcEEE18__parse_awk_escapeINS_11__wrap_iterIPKcEEEET_S9_S9_PNS_12basic_stringIcNS_11char_traitsIcEENS_9allocatorIcEEEE
00000000001c6cf8 W _ZNSt3__111basic_regexIcNS_12regex_traitsIcEEE18__parse_awk_escapeIPKcEET_S7_S7_PNS_12basic_stringIcNS_11char_traitsIcEENS_9allocatorIcEEEE
000000000014997c W _ZNSt3__111basic_regexIcNS_12regex_traitsIcEEE18__parse_nondupl_REINS_11__wrap_iterIPKcEEEET_S9_S9_
00000000001c724c W _ZNSt3__111basic_regexIcNS_12regex_traitsIcEEE18__parse_nondupl_REIPKcEET_S7_S7_
00000000001c52f8 W _ZNSt3__111basic_regexIcNS_12regex_traitsIcEEE19__parse_alternativeIPKcEET_S7_S7_
00000000001478c8 W _ZNSt3__111basic_regexIcNS_12regex_traitsIcEEE20__parse_class_escapeINS_11__wrap_iterIPKcEEEET_S9_S9_RNS_12basic_stringIcNS_11char_traitsIcEENS_9allocatorIcEEEEPNS_20__bracket_expressionIcS2_EE
00000000001c6be4 W _ZNSt3__111basic_regexIcNS_12regex_traitsIcEEE20__parse_class_escapeIPKcEET_S7_S7_RNS_12basic_stringIcNS_11char_traitsIcEENS_9allocatorIcEEEEPNS_20__bracket_expressionIcS2_EE
00000000001433b8 W _ZNSt3__111basic_regexIcNS_12regex_traitsIcEEE21__parse_basic_reg_expINS_11__wrap_iterIPKcEEEET_S9_S9_
00000000001c4cb0 W _ZNSt3__111basic_regexIcNS_12regex_traitsIcEEE21__parse_basic_reg_expIPKcEET_S7_S7_
0000000000144d3c W _ZNSt3__111basic_regexIcNS_12regex_traitsIcEEE22__parse_decimal_escapeINS_11__wrap_iterIPKcEEEET_S9_S9_
00000000001c5eb4 W _ZNSt3__111basic_regexIcNS_12regex_traitsIcEEE22__parse_decimal_escapeIPKcEET_S7_S7_
0000000000149fe4 W _ZNSt3__111basic_regexIcNS_12regex_traitsIcEEE22__parse_ERE_expressionINS_11__wrap_iterIPKcEEEET_S9_S9_
00000000001c7794 W _ZNSt3__111basic_regexIcNS_12regex_traitsIcEEE22__parse_ERE_expressionIPKcEET_S7_S7_
0000000000149b98 W _ZNSt3__111basic_regexIcNS_12regex_traitsIcEEE22__parse_RE_dupl_symbolINS_11__wrap_iterIPKcEEEET_S9_S9_PNS_16__owns_one_stateIcEEjj
00000000001c7454 W _ZNSt3__111basic_regexIcNS_12regex_traitsIcEEE22__parse_RE_dupl_symbolIPKcEET_S7_S7_PNS_16__owns_one_stateIcEEjj
000000000014775c W _ZNSt3__111basic_regexIcNS_12regex_traitsIcEEE23__parse_character_classINS_11__wrap_iterIPKcEEEET_S9_S9_PNS_20__bracket_expressionIcS2_EE
0000000000144100 W _ZNSt3__111basic_regexIcNS_12regex_traitsIcEEE23__parse_ERE_dupl_symbolINS_11__wrap_iterIPKcEEEET_S9_S9_PNS_16__owns_one_stateIcEEjj
00000000001c59bc W _ZNSt3__111basic_regexIcNS_12regex_traitsIcEEE23__parse_ERE_dupl_symbolIPKcEET_S7_S7_PNS_16__owns_one_stateIcEEjj
0000000000147100 W _ZNSt3__111basic_regexIcNS_12regex_traitsIcEEE23__parse_expression_termINS_11__wrap_iterIPKcEEEET_S9_S9_PNS_20__bracket_expressionIcS2_EE
00000000001c6460 W _ZNSt3__111basic_regexIcNS_12regex_traitsIcEEE23__parse_expression_termIPKcEET_S7_S7_PNS_20__bracket_expressionIcS2_EE
000000000014a2e8 W _ZNSt3__111basic_regexIcNS_12regex_traitsIcEEE23__parse_QUOTED_CHAR_EREINS_11__wrap_iterIPKcEEEET_S9_S9_
00000000001c7a98 W _ZNSt3__111basic_regexIcNS_12regex_traitsIcEEE23__parse_QUOTED_CHAR_EREIPKcEET_S7_S7_
0000000000145000 W _ZNSt3__111basic_regexIcNS_12regex_traitsIcEEE24__parse_character_escapeINS_11__wrap_iterIPKcEEEET_S9_S9_PNS_12basic_stringIcNS_11char_traitsIcEENS_9allocatorIcEEEE
00000000001c616c W _ZNSt3__111basic_regexIcNS_12regex_traitsIcEEE24__parse_character_escapeIPKcEET_S7_S7_PNS_12basic_stringIcNS_11char_traitsIcEENS_9allocatorIcEEEE
00000000001477f8 W _ZNSt3__111basic_regexIcNS_12regex_traitsIcEEE24__parse_collating_symbolINS_11__wrap_iterIPKcEEEET_S9_S9_RNS_12basic_stringIcNS_11char_traitsIcEENS_9allocatorIcEEEE
00000000001c6b14 W _ZNSt3__111basic_regexIcNS_12regex_traitsIcEEE24__parse_collating_symbolIPKcEET_S7_S7_RNS_12basic_stringIcNS_11char_traitsIcEENS_9allocatorIcEEEE
0000000000143550 W _ZNSt3__111basic_regexIcNS_12regex_traitsIcEEE24__parse_extended_reg_expINS_11__wrap_iterIPKcEEEET_S9_S9_
00000000001c4e30 W _ZNSt3__111basic_regexIcNS_12regex_traitsIcEEE24__parse_extended_reg_expIPKcEET_S7_S7_
0000000000147524 W _ZNSt3__111basic_regexIcNS_12regex_traitsIcEEE25__parse_equivalence_classINS_11__wrap_iterIPKcEEEET_S9_S9_PNS_20__bracket_expressionIcS2_EE
00000000001c68dc W _ZNSt3__111basic_regexIcNS_12regex_traitsIcEEE25__parse_equivalence_classIPKcEET_S7_S7_PNS_20__bracket_expressionIcS2_EE
0000000000144c5c W _ZNSt3__111basic_regexIcNS_12regex_traitsIcEEE25__parse_pattern_characterINS_11__wrap_iterIPKcEEEET_S9_S9_
00000000001c5e58 W _ZNSt3__111basic_regexIcNS_12regex_traitsIcEEE25__parse_pattern_characterIPKcEET_S7_S7_
0000000000144acc W _ZNSt3__111basic_regexIcNS_12regex_traitsIcEEE26__parse_bracket_expressionINS_11__wrap_iterIPKcEEEET_S9_S9_
00000000001c5d10 W _ZNSt3__111basic_regexIcNS_12regex_traitsIcEEE26__parse_bracket_expressionIPKcEET_S7_S7_
0000000000144e08 W _ZNSt3__111basic_regexIcNS_12regex_traitsIcEEE30__parse_character_class_escapeINS_11__wrap_iterIPKcEEEET_S9_S9_
00000000001c5f74 W _ZNSt3__111basic_regexIcNS_12regex_traitsIcEEE30__parse_character_class_escapeIPKcEET_S7_S7_
0000000000149dd4 W _ZNSt3__111basic_regexIcNS_12regex_traitsIcEEE32__parse_one_char_or_coll_elem_REINS_11__wrap_iterIPKcEEEET_S9_S9_
00000000001c7688 W _ZNSt3__111basic_regexIcNS_12regex_traitsIcEEE32__parse_one_char_or_coll_elem_REIPKcEET_S7_S7_
000000000014a1d0 W _ZNSt3__111basic_regexIcNS_12regex_traitsIcEEE33__parse_one_char_or_coll_elem_EREINS_11__wrap_iterIPKcEEEET_S9_S9_
00000000001c7980 W _ZNSt3__111basic_regexIcNS_12regex_traitsIcEEE33__parse_one_char_or_coll_elem_EREIPKcEET_S7_S7_
0000000000142f28 W _ZNSt3__111basic_regexIcNS_12regex_traitsIcEEE7__parseINS_11__wrap_iterIPKcEEEET_S9_S9_
00000000001c47b4 W _ZNSt3__111basic_regexIcNS_12regex_traitsIcEEE7__parseIPKcEET_S7_S7_
00000000001c4708 W _ZNSt3__111basic_regexIcNS_12regex_traitsIcEEEC2B8ne180100EPKcNS_15regex_constants18syntax_option_typeE
0000000000142e08 W _ZNSt3__111basic_regexIcNS_12regex_traitsIcEEEC2B8ne180100Ev
000000000013e19c W _ZNSt3__111basic_regexIcNS_12regex_traitsIcEEEC2B8ne180100INS_11char_traitsIcEENS_9allocatorIcEEEERKNS_12basic_stringIcT_T0_EENS_15regex_constants18syntax_option_typeE
000000000013e254 W _ZNSt3__111basic_regexIcNS_12regex_traitsIcEEED2Ev
0000000000204820 W _ZNSt3__111basic_regexIwNS_12regex_traitsIwEEE11__push_charEw
0000000000208e48 W _ZNSt3__111basic_regexIwNS_12regex_traitsIwEEE11__push_loopEmmPNS_16__owns_one_stateIwEEmmb
00000000002024e0 W _ZNSt3__111basic_regexIwNS_12regex_traitsIwEEE12__parse_atomINS_11__wrap_iterIPKwEEEET_S9_S9_
0000000000201d5c W _ZNSt3__111basic_regexIwNS_12regex_traitsIwEEE12__parse_grepINS_11__wrap_iterIPKwEEEET_S9_S9_
0000000000201f20 W _ZNSt3__111basic_regexIwNS_12regex_traitsIwEEE13__parse_egrepINS_11__wrap_iterIPKwEEEET_S9_S9_
0000000000204954 W _ZNSt3__111basic_regexIwNS_12regex_traitsIwEEE15__push_back_refEi
0000000000209adc W _ZNSt3__111basic_regexIwNS_12regex_traitsIwEEE15__test_back_refEw
00000000002017f0 W _ZNSt3__111basic_regexIwNS_12regex_traitsIwEEE16__parse_ecma_expINS_11__wrap_iterIPKwEEEET_S9_S9_
0000000000202c48 W _ZNSt3__111basic_regexIwNS_12regex_traitsIwEEE16__push_lookaheadERKS3_bj
00000000002021d8 W _ZNSt3__111basic_regexIwNS_12regex_traitsIwEEE17__parse_assertionINS_11__wrap_iterIPKwEEEET_S9_S9_
0000000000207068 W _ZNSt3__111basic_regexIwNS_12regex_traitsIwEEE18__parse_awk_escapeINS_11__wrap_iterIPKwEEEET_S9_S9_PNS_12basic_stringIwNS_11char_traitsIwEENS_9allocatorIwEEEE
00000000002093e0 W _ZNSt3__111basic_regexIwNS_12regex_traitsIwEEE18__parse_nondupl_REINS_11__wrap_iterIPKwEEEET_S9_S9_
0000000000206f58 W _ZNSt3__111basic_regexIwNS_12regex_traitsIwEEE20__parse_class_escapeINS_11__wrap_iterIPKwEEEET_S9_S9_RNS_12basic_stringIwNS_11char_traitsIwEENS_9allocatorIwEEEEPNS_20__bracket_expressionIwS2_EE
0000000000201a5c W _ZNSt3__111basic_regexIwNS_12regex_traitsIwEEE21__parse_basic_reg_expINS_11__wrap_iterIPKwEEEET_S9_S9_
0000000000204138 W _ZNSt3__111basic_regexIwNS_12regex_traitsIwEEE22__parse_decimal_escapeINS_11__wrap_iterIPKwEEEET_S9_S9_
0000000000209b5c W _ZNSt3__111basic_regexIwNS_12regex_traitsIwEEE22__parse_ERE_expressionINS_11__wrap_iterIPKwEEEET_S9_S9_
0000000000209628 W _ZNSt3__111basic_regexIwNS_12regex_traitsIwEEE22__parse_RE_dupl_symbolINS_11__wrap_iterIPKwEEEET_S9_S9_PNS_16__owns_one_stateIwEEjj
0000000000206dec W _ZNSt3__111basic_regexIwNS_12regex_traitsIwEEE23__parse_character_classINS_11__wrap_iterIPKwEEEET_S9_S9_PNS_20__bracket_expressionIwS2_EE
0000000000202784 W _ZNSt3__111basic_regexIwNS_12regex_traitsIwEEE23__parse_ERE_dupl_symbolINS_11__wrap_iterIPKwEEEET_S9_S9_PNS_16__owns_one_stateIwEEjj
000000000020678c W _ZNSt3__111basic_regexIwNS_12regex_traitsIwEEE23__parse_expression_termINS_11__wrap_iterIPKwEEEET_S9_S9_PNS_20__bracket_expressionIwS2_EE
0000000000209e60 W _ZNSt3__111basic_regexIwNS_12regex_traitsIwEEE23__parse_QUOTED_CHAR_EREINS_11__wrap_iterIPKwEEEET_S9_S9_
0000000000204404 W _ZNSt3__111basic_regexIwNS_12regex_traitsIwEEE24__parse_character_escapeINS_11__wrap_iterIPKwEEEET_S9_S9_PNS_12basic_stringIwNS_11char_traitsIwEENS_9allocatorIwEEEE
0000000000206e88 W _ZNSt3__111basic_regexIwNS_12regex_traitsIwEEE24__parse_collating_symbolINS_11__wrap_iterIPKwEEEET_S9_S9_RNS_12basic_stringIwNS_11char_traitsIwEENS_9allocatorIwEEEE
0000000000201bf4 W _ZNSt3__111basic_regexIwNS_12regex_traitsIwEEE24__parse_extended_reg_expINS_11__wrap_iterIPKwEEEET_S9_S9_
0000000000206bb4 W _ZNSt3__111basic_regexIwNS_12regex_traitsIwEEE25__parse_equivalence_classINS_11__wrap_iterIPKwEEEET_S9_S9_PNS_20__bracket_expressionIwS2_EE
00000000002040a0 W _ZNSt3__111basic_regexIwNS_12regex_traitsIwEEE25__parse_pattern_characterINS_11__wrap_iterIPKwEEEET_S9_S9_
0000000000203f58 W _ZNSt3__111basic_regexIwNS_12regex_traitsIwEEE26__parse_bracket_expressionINS_11__wrap_iterIPKwEEEET_S9_S9_
000000000020420c W _ZNSt3__111basic_regexIwNS_12regex_traitsIwEEE30__parse_character_class_escapeINS_11__wrap_iterIPKwEEEET_S9_S9_
0000000000209928 W _ZNSt3__111basic_regexIwNS_12regex_traitsIwEEE32__parse_one_char_or_coll_elem_REINS_11__wrap_iterIPKwEEEET_S9_S9_
0000000000209d48 W _ZNSt3__111basic_regexIwNS_12regex_traitsIwEEE33__parse_one_char_or_coll_elem_EREINS_11__wrap_iterIPKwEEEET_S9_S9_
0000000000201614 W _ZNSt3__111basic_regexIwNS_12regex_traitsIwEEE7__parseINS_11__wrap_iterIPKwEEEET_S9_S9_
0000000000202be0 W _ZNSt3__111basic_regexIwNS_12regex_traitsIwEEEC2B8ne180100Ev
00000000002011f4 W _ZNSt3__111basic_regexIwNS_12regex_traitsIwEEEC2B8ne180100INS_11char_traitsIwEENS_9allocatorIwEEEERKNS_12basic_stringIwT_T0_EENS_15regex_constants18syntax_option_typeE
0000000000201578 W _ZNSt3__111basic_regexIwNS_12regex_traitsIwEEED2Ev
0000000000143a60 W _ZNSt3__111__end_stateIcED0Ev
00000000002020e4 W _ZNSt3__111__end_stateIwED0Ev
00000000001f4a2c W _ZNSt3__111__introsortINS_17_ClassicAlgPolicyERZN20llm_tokenizer_plamo25buildERK11llama_vocabEUlRKNS_12basic_stringIcNS_11char_traitsIcEENS_9allocatorIcEEEESD_E_PSB_Lb0EEEvT1_SH_T0_NS_15iterator_traitsISH_E15difference_typeEb
00000000001448bc W _ZNSt3__111__lookaheadIcNS_12regex_traitsIcEEED0Ev
0000000000144828 W _ZNSt3__111__lookaheadIcNS_12regex_traitsIcEEED2Ev
0000000000203070 W _ZNSt3__111__lookaheadIwNS_12regex_traitsIwEEED0Ev
0000000000202fdc W _ZNSt3__111__lookaheadIwNS_12regex_traitsIwEEED2Ev
00000000001c2488 W _ZNSt3__111make_uniqueB8ne180100I13llm_build_mptJRK11llama_modelRK16llm_graph_paramsEEENS_11__unique_ifIT_E15__unique_singleEDpOT0_
00000000001c3c40 W _ZNSt3__111make_uniqueB8ne180100I13llm_build_plmJRK11llama_modelRK16llm_graph_paramsEEENS_11__unique_ifIT_E15__unique_singleEDpOT0_
00000000001c3198 W _ZNSt3__111make_uniqueB8ne180100I14llm_build_dbrxJRK11llama_modelRK16llm_graph_paramsEEENS_11__unique_ifIT_E15__unique_singleEDpOT0_
00000000001c2118 W _ZNSt3__111make_uniqueB8ne180100I14llm_build_deciJRK11llama_modelRK16llm_graph_paramsEEENS_11__unique_ifIT_E15__unique_singleEDpOT0_
00000000001c3560 W _ZNSt3__111make_uniqueB8ne180100I14llm_build_glm4JRK11llama_modelRK16llm_graph_paramsEEENS_11__unique_ifIT_E15__unique_singleEDpOT0_
00000000001c2bc0 W _ZNSt3__111make_uniqueB8ne180100I14llm_build_gpt2JRK11llama_modelRK16llm_graph_paramsEEENS_11__unique_ifIT_E15__unique_singleEDpOT0_
00000000001c2220 W _ZNSt3__111make_uniqueB8ne180100I14llm_build_grokJRK11llama_modelRK16llm_graph_paramsEEENS_11__unique_ifIT_E15__unique_singleEDpOT0_
00000000001c3718 W _ZNSt3__111make_uniqueB8ne180100I14llm_build_jaisJRK11llama_modelRK16llm_graph_paramsEEENS_11__unique_ifIT_E15__unique_singleEDpOT0_
00000000001c41c0 W _ZNSt3__111make_uniqueB8ne180100I14llm_build_lfm2ILb0EEJRK11llama_modelRK16llm_graph_paramsEEENS_11__unique_ifIT_E15__unique_singleEDpOT0_
00000000001c4168 W _ZNSt3__111make_uniqueB8ne180100I14llm_build_lfm2ILb1EEJRK11llama_modelRK16llm_graph_paramsEEENS_11__unique_ifIT_E15__unique_singleEDpOT0_
00000000001c31f0 W _ZNSt3__111make_uniqueB8ne180100I14llm_build_olmoJRK11llama_modelRK16llm_graph_paramsEEENS_11__unique_ifIT_E15__unique_singleEDpOT0_
00000000001c2958 W _ZNSt3__111make_uniqueB8ne180100I14llm_build_phi2JRK11llama_modelRK16llm_graph_paramsEEENS_11__unique_ifIT_E15__unique_singleEDpOT0_
00000000001c2a08 W _ZNSt3__111make_uniqueB8ne180100I14llm_build_phi3ILb0EEJRK11llama_modelRK16llm_graph_paramsEEENS_11__unique_ifIT_E15__unique_singleEDpOT0_
00000000001c29b0 W _ZNSt3__111make_uniqueB8ne180100I14llm_build_phi3ILb1EEJRK11llama_modelRK16llm_graph_paramsEEENS_11__unique_ifIT_E15__unique_singleEDpOT0_
00000000001c2538 W _ZNSt3__111make_uniqueB8ne180100I14llm_build_qwenJRK11llama_modelRK16llm_graph_paramsEEENS_11__unique_ifIT_E15__unique_singleEDpOT0_
00000000001c26f0 W _ZNSt3__111make_uniqueB8ne180100I14llm_build_rnd1JRK11llama_modelRK16llm_graph_paramsEEENS_11__unique_ifIT_E15__unique_singleEDpOT0_
00000000001c3e50 W _ZNSt3__111make_uniqueB8ne180100I15llm_build_afmoeJRK11llama_modelRK16llm_graph_paramsEEENS_11__unique_ifIT_E15__unique_singleEDpOT0_
00000000001c3df8 W _ZNSt3__111make_uniqueB8ne180100I15llm_build_arceeJRK11llama_modelRK16llm_graph_paramsEEENS_11__unique_ifIT_E15__unique_singleEDpOT0_
00000000001c2430 W _ZNSt3__111make_uniqueB8ne180100I15llm_build_bloomJRK11llama_modelRK16llm_graph_paramsEEENS_11__unique_ifIT_E15__unique_singleEDpOT0_
00000000001c3da0 W _ZNSt3__111make_uniqueB8ne180100I15llm_build_dots1JRK11llama_modelRK16llm_graph_paramsEEENS_11__unique_ifIT_E15__unique_singleEDpOT0_
00000000001c25e8 W _ZNSt3__111make_uniqueB8ne180100I15llm_build_dreamJRK11llama_modelRK16llm_graph_paramsEEENS_11__unique_ifIT_E15__unique_singleEDpOT0_
00000000001c2d78 W _ZNSt3__111make_uniqueB8ne180100I15llm_build_gemmaJRK11llama_modelRK16llm_graph_paramsEEENS_11__unique_ifIT_E15__unique_singleEDpOT0_
00000000001c3770 W _ZNSt3__111make_uniqueB8ne180100I15llm_build_jais2JRK11llama_modelRK16llm_graph_paramsEEENS_11__unique_ifIT_E15__unique_singleEDpOT0_
00000000001c3038 W _ZNSt3__111make_uniqueB8ne180100I15llm_build_jambaJRK11llama_modelRK16llm_graph_paramsEEENS_11__unique_ifIT_E15__unique_singleEDpOT0_
00000000001c2640 W _ZNSt3__111make_uniqueB8ne180100I15llm_build_lladaJRK11llama_modelRK16llm_graph_paramsEEENS_11__unique_ifIT_E15__unique_singleEDpOT0_
00000000001c1fb8 W _ZNSt3__111make_uniqueB8ne180100I15llm_build_llamaILb0EEJRK11llama_modelRK16llm_graph_paramsEEENS_11__unique_ifIT_E15__unique_singleEDpOT0_
00000000001c2068 W _ZNSt3__111make_uniqueB8ne180100I15llm_build_llamaILb1EEJRK11llama_modelRK16llm_graph_paramsEEENS_11__unique_ifIT_E15__unique_singleEDpOT0_
00000000001c2fe0 W _ZNSt3__111make_uniqueB8ne180100I15llm_build_mambaJRK11llama_modelRK16llm_graph_paramsEEENS_11__unique_ifIT_E15__unique_singleEDpOT0_
00000000001c32a0 W _ZNSt3__111make_uniqueB8ne180100I15llm_build_olmo2ILb0EEJRK11llama_modelRK16llm_graph_paramsEEENS_11__unique_ifIT_E15__unique_singleEDpOT0_
00000000001c3248 W _ZNSt3__111make_uniqueB8ne180100I15llm_build_olmo2ILb1EEJRK11llama_modelRK16llm_graph_paramsEEENS_11__unique_ifIT_E15__unique_singleEDpOT0_
00000000001c32f8 W _ZNSt3__111make_uniqueB8ne180100I15llm_build_olmoeJRK11llama_modelRK16llm_graph_paramsEEENS_11__unique_ifIT_E15__unique_singleEDpOT0_
00000000001c2c70 W _ZNSt3__111make_uniqueB8ne180100I15llm_build_orionJRK11llama_modelRK16llm_graph_paramsEEENS_11__unique_ifIT_E15__unique_singleEDpOT0_
00000000001c2a60 W _ZNSt3__111make_uniqueB8ne180100I15llm_build_plamoJRK11llama_modelRK16llm_graph_paramsEEENS_11__unique_ifIT_E15__unique_singleEDpOT0_
00000000001c2590 W _ZNSt3__111make_uniqueB8ne180100I15llm_build_qwen2JRK11llama_modelRK16llm_graph_paramsEEENS_11__unique_ifIT_E15__unique_singleEDpOT0_
00000000001c27f8 W _ZNSt3__111make_uniqueB8ne180100I15llm_build_qwen3JRK11llama_modelRK16llm_graph_paramsEEENS_11__unique_ifIT_E15__unique_singleEDpOT0_
00000000001c39d8 W _ZNSt3__111make_uniqueB8ne180100I15llm_build_rwkv6JRK11llama_modelRK16llm_graph_paramsEEENS_11__unique_ifIT_E15__unique_singleEDpOT0_
00000000001c3a88 W _ZNSt3__111make_uniqueB8ne180100I15llm_build_rwkv7JRK11llama_modelRK16llm_graph_paramsEEENS_11__unique_ifIT_E15__unique_singleEDpOT0_
00000000001c3400 W _ZNSt3__111make_uniqueB8ne180100I16llm_build_arcticJRK11llama_modelRK16llm_graph_paramsEEENS_11__unique_ifIT_E15__unique_singleEDpOT0_
00000000001c3ae0 W _ZNSt3__111make_uniqueB8ne180100I16llm_build_arwkv7JRK11llama_modelRK16llm_graph_paramsEEENS_11__unique_ifIT_E15__unique_singleEDpOT0_
00000000001c3610 W _ZNSt3__111make_uniqueB8ne180100I16llm_build_bitnetJRK11llama_modelRK16llm_graph_paramsEEENS_11__unique_ifIT_E15__unique_singleEDpOT0_
00000000001c43d0 W _ZNSt3__111make_uniqueB8ne180100I16llm_build_cogvlmJRK11llama_modelRK16llm_graph_paramsEEENS_11__unique_ifIT_E15__unique_singleEDpOT0_
00000000001c3878 W _ZNSt3__111make_uniqueB8ne180100I16llm_build_exaoneJRK11llama_modelRK16llm_graph_paramsEEENS_11__unique_ifIT_E15__unique_singleEDpOT0_
00000000001c21c8 W _ZNSt3__111make_uniqueB8ne180100I16llm_build_falconJRK11llama_modelRK16llm_graph_paramsEEENS_11__unique_ifIT_E15__unique_singleEDpOT0_
00000000001c2e80 W _ZNSt3__111make_uniqueB8ne180100I16llm_build_gemma3ILb0EEJRK11llama_modelRK16llm_graph_paramsEEENS_11__unique_ifIT_E15__unique_singleEDpOT0_
00000000001c2e28 W _ZNSt3__111make_uniqueB8ne180100I16llm_build_gemma3ILb1EEJRK11llama_modelRK16llm_graph_paramsEEENS_11__unique_ifIT_E15__unique_singleEDpOT0_
00000000001c2ab8 W _ZNSt3__111make_uniqueB8ne180100I16llm_build_plamo2JRK11llama_modelRK16llm_graph_paramsEEENS_11__unique_ifIT_E15__unique_singleEDpOT0_
00000000001c2b68 W _ZNSt3__111make_uniqueB8ne180100I16llm_build_plamo3ILb0EEJRK11llama_modelRK16llm_graph_paramsEEENS_11__unique_ifIT_E15__unique_singleEDpOT0_
00000000001c2b10 W _ZNSt3__111make_uniqueB8ne180100I16llm_build_plamo3ILb1EEJRK11llama_modelRK16llm_graph_paramsEEENS_11__unique_ifIT_E15__unique_singleEDpOT0_
00000000001c44d8 W _ZNSt3__111make_uniqueB8ne180100I16llm_build_qwen35JRK11llama_modelRK16llm_graph_paramsEEENS_11__unique_ifIT_E15__unique_singleEDpOT0_
00000000001c22d0 W _ZNSt3__111make_uniqueB8ne180100I16llm_build_refactJRK11llama_modelRK16llm_graph_paramsEEENS_11__unique_ifIT_E15__unique_singleEDpOT0_
00000000001c36c0 W _ZNSt3__111make_uniqueB8ne180100I16llm_build_t5_decJRK11llama_modelRK16llm_graph_paramsEEENS_11__unique_ifIT_E15__unique_singleEDpOT0_
00000000001c3668 W _ZNSt3__111make_uniqueB8ne180100I16llm_build_t5_encJRK11llama_modelRK16llm_graph_paramsEEENS_11__unique_ifIT_E15__unique_singleEDpOT0_
00000000001c3090 W _ZNSt3__111make_uniqueB8ne180100I16llm_build_xverseJRK11llama_modelRK16llm_graph_paramsEEENS_11__unique_ifIT_E15__unique_singleEDpOT0_
00000000001c4320 W _ZNSt3__111make_uniqueB8ne180100I17llm_build_apertusJRK11llama_modelRK16llm_graph_paramsEEENS_11__unique_ifIT_E15__unique_singleEDpOT0_
00000000001c3508 W _ZNSt3__111make_uniqueB8ne180100I17llm_build_chatglmJRK11llama_modelRK16llm_graph_paramsEEENS_11__unique_ifIT_E15__unique_singleEDpOT0_
00000000001c3928 W _ZNSt3__111make_uniqueB8ne180100I17llm_build_exaone4ILb0EEJRK11llama_modelRK16llm_graph_paramsEEENS_11__unique_ifIT_E15__unique_singleEDpOT0_
00000000001c38d0 W _ZNSt3__111make_uniqueB8ne180100I17llm_build_exaone4ILb1EEJRK11llama_modelRK16llm_graph_paramsEEENS_11__unique_ifIT_E15__unique_singleEDpOT0_
00000000001c33a8 W _ZNSt3__111make_uniqueB8ne180100I17llm_build_gptneoxJRK11llama_modelRK16llm_graph_paramsEEENS_11__unique_ifIT_E15__unique_singleEDpOT0_
00000000001c3350 W _ZNSt3__111make_uniqueB8ne180100I17llm_build_openelmJRK11llama_modelRK16llm_graph_paramsEEENS_11__unique_ifIT_E15__unique_singleEDpOT0_
00000000001c2748 W _ZNSt3__111make_uniqueB8ne180100I17llm_build_qwen2vlJRK11llama_modelRK16llm_graph_paramsEEENS_11__unique_ifIT_E15__unique_singleEDpOT0_
00000000001c28a8 W _ZNSt3__111make_uniqueB8ne180100I17llm_build_qwen3vlJRK11llama_modelRK16llm_graph_paramsEEENS_11__unique_ifIT_E15__unique_singleEDpOT0_
00000000001c4060 W _ZNSt3__111make_uniqueB8ne180100I17llm_build_smollm3JRK11llama_modelRK16llm_graph_paramsEEENS_11__unique_ifIT_E15__unique_singleEDpOT0_
00000000001c2170 W _ZNSt3__111make_uniqueB8ne180100I18llm_build_baichuanJRK11llama_modelRK16llm_graph_paramsEEENS_11__unique_ifIT_E15__unique_singleEDpOT0_
00000000001c3458 W _ZNSt3__111make_uniqueB8ne180100I18llm_build_deepseekJRK11llama_modelRK16llm_graph_paramsEEENS_11__unique_ifIT_E15__unique_singleEDpOT0_
00000000001c3ea8 W _ZNSt3__111make_uniqueB8ne180100I18llm_build_ernie4_5JRK11llama_modelRK16llm_graph_paramsEEENS_11__unique_ifIT_E15__unique_singleEDpOT0_
00000000001c23d8 W _ZNSt3__111make_uniqueB8ne180100I18llm_build_eurobertJRK11llama_modelRK16llm_graph_paramsEEENS_11__unique_ifIT_E15__unique_singleEDpOT0_
00000000001c35b8 W _ZNSt3__111make_uniqueB8ne180100I18llm_build_glm4_moeJRK11llama_modelRK16llm_graph_paramsEEENS_11__unique_ifIT_E15__unique_singleEDpOT0_
00000000001c42c8 W _ZNSt3__111make_uniqueB8ne180100I18llm_build_grovemoeJRK11llama_modelRK16llm_graph_paramsEEENS_11__unique_ifIT_E15__unique_singleEDpOT0_
00000000001c2d20 W _ZNSt3__111make_uniqueB8ne180100I18llm_build_minicpm3JRK11llama_modelRK16llm_graph_paramsEEENS_11__unique_ifIT_E15__unique_singleEDpOT0_
00000000001c4588 W _ZNSt3__111make_uniqueB8ne180100I18llm_build_mistral3JRK11llama_modelRK16llm_graph_paramsEEENS_11__unique_ifIT_E15__unique_singleEDpOT0_
00000000001c37c8 W _ZNSt3__111make_uniqueB8ne180100I18llm_build_nemotronJRK11llama_modelRK16llm_graph_paramsEEENS_11__unique_ifIT_E15__unique_singleEDpOT0_
00000000001c2380 W _ZNSt3__111make_uniqueB8ne180100I18llm_build_neo_bertJRK11llama_modelRK16llm_graph_paramsEEENS_11__unique_ifIT_E15__unique_singleEDpOT0_
00000000001c27a0 W _ZNSt3__111make_uniqueB8ne180100I18llm_build_qwen2moeJRK11llama_modelRK16llm_graph_paramsEEENS_11__unique_ifIT_E15__unique_singleEDpOT0_
00000000001c2850 W _ZNSt3__111make_uniqueB8ne180100I18llm_build_qwen3moeJRK11llama_modelRK16llm_graph_paramsEEENS_11__unique_ifIT_E15__unique_singleEDpOT0_
00000000001c3d48 W _ZNSt3__111make_uniqueB8ne180100I18llm_build_seed_ossJRK11llama_modelRK16llm_graph_paramsEEENS_11__unique_ifIT_E15__unique_singleEDpOT0_
00000000001c24e0 W _ZNSt3__111make_uniqueB8ne180100I18llm_build_stablelmJRK11llama_modelRK16llm_graph_paramsEEENS_11__unique_ifIT_E15__unique_singleEDpOT0_
00000000001c3b90 W _ZNSt3__111make_uniqueB8ne180100I19llm_build_chameleonJRK11llama_modelRK16llm_graph_paramsEEENS_11__unique_ifIT_E15__unique_singleEDpOT0_
00000000001c2c18 W _ZNSt3__111make_uniqueB8ne180100I19llm_build_codeshellJRK11llama_modelRK16llm_graph_paramsEEENS_11__unique_ifIT_E15__unique_singleEDpOT0_
00000000001c30e8 W _ZNSt3__111make_uniqueB8ne180100I19llm_build_command_rJRK11llama_modelRK16llm_graph_paramsEEENS_11__unique_ifIT_E15__unique_singleEDpOT0_
00000000001c34b0 W _ZNSt3__111make_uniqueB8ne180100I19llm_build_deepseek2JRK11llama_modelRK16llm_graph_paramsEEENS_11__unique_ifIT_E15__unique_singleEDpOT0_
00000000001c4110 W _ZNSt3__111make_uniqueB8ne180100I19llm_build_falcon_h1JRK11llama_modelRK16llm_graph_paramsEEENS_11__unique_ifIT_E15__unique_singleEDpOT0_
00000000001c2cc8 W _ZNSt3__111make_uniqueB8ne180100I19llm_build_internlm2JRK11llama_modelRK16llm_graph_paramsEEENS_11__unique_ifIT_E15__unique_singleEDpOT0_
00000000001c2698 W _ZNSt3__111make_uniqueB8ne180100I19llm_build_llada_moeJRK11llama_modelRK16llm_graph_paramsEEENS_11__unique_ifIT_E15__unique_singleEDpOT0_
00000000001c20c0 W _ZNSt3__111make_uniqueB8ne180100I19llm_build_maincoderJRK11llama_modelRK16llm_graph_paramsEEENS_11__unique_ifIT_E15__unique_singleEDpOT0_
00000000001c3f58 W _ZNSt3__111make_uniqueB8ne180100I19llm_build_paddleocrJRK11llama_modelRK16llm_graph_paramsEEENS_11__unique_ifIT_E15__unique_singleEDpOT0_
00000000001c4530 W _ZNSt3__111make_uniqueB8ne180100I19llm_build_qwen35moeJRK11llama_modelRK16llm_graph_paramsEEENS_11__unique_ifIT_E15__unique_singleEDpOT0_
00000000001c4480 W _ZNSt3__111make_uniqueB8ne180100I19llm_build_qwen3nextJRK11llama_modelRK16llm_graph_paramsEEENS_11__unique_ifIT_E15__unique_singleEDpOT0_
00000000001c2278 W _ZNSt3__111make_uniqueB8ne180100I19llm_build_starcoderJRK11llama_modelRK16llm_graph_paramsEEENS_11__unique_ifIT_E15__unique_singleEDpOT0_
00000000001c3c98 W _ZNSt3__111make_uniqueB8ne180100I20llm_build_bailingmoeJRK11llama_modelRK16llm_graph_paramsEEENS_11__unique_ifIT_E15__unique_singleEDpOT0_
00000000001c3980 W _ZNSt3__111make_uniqueB8ne180100I20llm_build_exaone_moeJRK11llama_modelRK16llm_graph_paramsEEENS_11__unique_ifIT_E15__unique_singleEDpOT0_
00000000001c2010 W _ZNSt3__111make_uniqueB8ne180100I20llm_build_llama_iswaJRK11llama_modelRK16llm_graph_paramsEEENS_11__unique_ifIT_E15__unique_singleEDpOT0_
00000000001c45e0 W _ZNSt3__111make_uniqueB8ne180100I20llm_build_mimo2_iswaJRK11llama_modelRK16llm_graph_paramsEEENS_11__unique_ifIT_E15__unique_singleEDpOT0_
00000000001c4378 W _ZNSt3__111make_uniqueB8ne180100I20llm_build_minimax_m2JRK11llama_modelRK16llm_graph_paramsEEENS_11__unique_ifIT_E15__unique_singleEDpOT0_
00000000001c3820 W _ZNSt3__111make_uniqueB8ne180100I20llm_build_nemotron_hJRK11llama_modelRK16llm_graph_paramsEEENS_11__unique_ifIT_E15__unique_singleEDpOT0_
00000000001c2900 W _ZNSt3__111make_uniqueB8ne180100I20llm_build_qwen3vlmoeJRK11llama_modelRK16llm_graph_paramsEEENS_11__unique_ifIT_E15__unique_singleEDpOT0_
00000000001c3a30 W _ZNSt3__111make_uniqueB8ne180100I20llm_build_rwkv6qwen2JRK11llama_modelRK16llm_graph_paramsEEENS_11__unique_ifIT_E15__unique_singleEDpOT0_
00000000001c2f88 W _ZNSt3__111make_uniqueB8ne180100I20llm_build_starcoder2JRK11llama_modelRK16llm_graph_paramsEEENS_11__unique_ifIT_E15__unique_singleEDpOT0_
00000000001c3cf0 W _ZNSt3__111make_uniqueB8ne180100I21llm_build_bailingmoe2JRK11llama_modelRK16llm_graph_paramsEEENS_11__unique_ifIT_E15__unique_singleEDpOT0_
00000000001c2dd0 W _ZNSt3__111make_uniqueB8ne180100I21llm_build_gemma2_iswaJRK11llama_modelRK16llm_graph_paramsEEENS_11__unique_ifIT_E15__unique_singleEDpOT0_
00000000001c3fb0 W _ZNSt3__111make_uniqueB8ne180100I21llm_build_hunyuan_moeJRK11llama_modelRK16llm_graph_paramsEEENS_11__unique_ifIT_E15__unique_singleEDpOT0_
00000000001c4638 W _ZNSt3__111make_uniqueB8ne180100I21llm_build_kimi_linearJRK11llama_modelRK16llm_graph_paramsEEENS_11__unique_ifIT_E15__unique_singleEDpOT0_
00000000001c2328 W _ZNSt3__111make_uniqueB8ne180100I21llm_build_modern_bertJRK11llama_modelRK16llm_graph_paramsEEENS_11__unique_ifIT_E15__unique_singleEDpOT0_
00000000001c4690 W _ZNSt3__111make_uniqueB8ne180100I21llm_build_step35_iswaJRK11llama_modelRK16llm_graph_paramsEEENS_11__unique_ifIT_E15__unique_singleEDpOT0_
00000000001649a0 W _ZNSt3__111make_uniqueB8ne180100I22llama_kv_cache_contextJP14llama_kv_cacheNS_6vectorINS2_9slot_infoENS_9allocatorIS5_EEEENS4_I12llama_ubatchNS6_IS9_EEEEEEENS_11__unique_ifIT_E15__unique_singleEDpOT0_
00000000001c3140 W _ZNSt3__111make_uniqueB8ne180100I22llm_build_cohere2_iswaJRK11llama_modelRK16llm_graph_paramsEEENS_11__unique_ifIT_E15__unique_singleEDpOT0_
00000000001c3f00 W _ZNSt3__111make_uniqueB8ne180100I22llm_build_ernie4_5_moeJRK11llama_modelRK16llm_graph_paramsEEENS_11__unique_ifIT_E15__unique_singleEDpOT0_
00000000001c2ed8 W _ZNSt3__111make_uniqueB8ne180100I22llm_build_gemma3n_iswaJRK11llama_modelRK16llm_graph_paramsEEENS_11__unique_ifIT_E15__unique_singleEDpOT0_
00000000001c4270 W _ZNSt3__111make_uniqueB8ne180100I22llm_build_smallthinkerILb0EEJRK11llama_modelRK16llm_graph_paramsEEENS_11__unique_ifIT_E15__unique_singleEDpOT0_
00000000001c4218 W _ZNSt3__111make_uniqueB8ne180100I22llm_build_smallthinkerILb1EEJRK11llama_modelRK16llm_graph_paramsEEENS_11__unique_ifIT_E15__unique_singleEDpOT0_
00000000001c4008 W _ZNSt3__111make_uniqueB8ne180100I23llm_build_hunyuan_denseJRK11llama_modelRK16llm_graph_paramsEEENS_11__unique_ifIT_E15__unique_singleEDpOT0_
00000000001c3b38 W _ZNSt3__111make_uniqueB8ne180100I24llm_build_granite_hybridJRK11llama_modelRK16llm_graph_paramsEEENS_11__unique_ifIT_E15__unique_singleEDpOT0_
00000000001c4428 W _ZNSt3__111make_uniqueB8ne180100I24llm_build_pangu_embeddedJRK11llama_modelRK16llm_graph_paramsEEENS_11__unique_ifIT_E15__unique_singleEDpOT0_
00000000001546a4 W _ZNSt3__111make_uniqueB8ne180100I24llm_graph_input_samplingJRKNS_3mapIiP13llama_samplerNS_4lessIiEENS_9allocatorINS_4pairIKiS4_EEEEEEEEENS_11__unique_ifIT_E15__unique_singleEDpOT0_
00000000001c2f30 W _ZNSt3__111make_uniqueB8ne180100I25llm_build_gemma_embeddingJRK11llama_modelRK16llm_graph_paramsEEENS_11__unique_ifIT_E15__unique_singleEDpOT0_
00000000001c40b8 W _ZNSt3__111make_uniqueB8ne180100I25llm_build_openai_moe_iswaJRK11llama_modelRK16llm_graph_paramsEEENS_11__unique_ifIT_E15__unique_singleEDpOT0_
00000000001c3be8 W _ZNSt3__111make_uniqueB8ne180100I26llm_build_wavtokenizer_decJRK11llama_modelRK16llm_graph_paramsEEENS_11__unique_ifIT_E15__unique_singleEDpOT0_
00000000001699c8 W _ZNSt3__111make_uniqueB8ne180100I27llama_kv_cache_iswa_contextJP19llama_kv_cache_iswaNS_6vectorIN14llama_kv_cache9slot_infoENS_9allocatorIS6_EEEES9_NS4_I12llama_ubatchNS7_ISA_EEEEEEENS_11__unique_ifIT_E15__unique_singleEDpOT0_
000000000016b27c W _ZNSt3__111make_uniqueB8ne180100I27llama_memory_hybrid_contextJP19llama_memory_hybridNS_6vectorIN14llama_kv_cache9slot_infoENS_9allocatorIS6_EEEENS4_I12llama_ubatchNS7_ISA_EEEEEEENS_11__unique_ifIT_E15__unique_singleEDpOT0_
000000000016cc6c W _ZNSt3__111make_uniqueB8ne180100I32llama_memory_hybrid_iswa_contextJP24llama_memory_hybrid_iswaNS_6vectorIN14llama_kv_cache9slot_infoENS_9allocatorIS6_EEEES9_NS4_I12llama_ubatchNS7_ISA_EEEEEEENS_11__unique_ifIT_E15__unique_singleEDpOT0_
0000000000149f0c W _ZNSt3__111__match_anyIcED0Ev
0000000000209a60 W _ZNSt3__111__match_anyIwED0Ev
000000000013ed88 W _ZNSt3__111regex_matchB8ne180100INS_11__wrap_iterIPKcEENS_9allocatorINS_9sub_matchIS4_EEEEcNS_12regex_traitsIcEEEEbT_SB_RNS_13match_resultsISB_T0_EERKNS_11basic_regexIT1_T2_EENS_15regex_constants15match_flag_typeE
00000000001f5d48 W _ZNSt3__111__sift_downB8ne180100INS_17_ClassicAlgPolicyERZN20llm_tokenizer_plamo25buildERK11llama_vocabEUlRKNS_12basic_stringIcNS_11char_traitsIcEENS_9allocatorIcEEEESD_E_PSB_EEvT1_OT0_NS_15iterator_traitsISH_E15difference_typeESH_
000000000013de7c W _ZNSt3__112basic_stringIcNS_11char_traitsIcEENS_9allocatorIcEEEC2B8ne180100EPKcm
00000000001eae54 W _ZNSt3__112basic_stringIcNS_11char_traitsIcEENS_9allocatorIcEEEpLB8ne180100ERKS5_
000000000015530c W _ZNSt3__112__hash_tableIiNS_4hashIiEENS_8equal_toIiEENS_9allocatorIiEEE11__do_rehashILb1EEEvm
0000000000155050 W _ZNSt3__112__hash_tableIiNS_4hashIiEENS_8equal_toIiEENS_9allocatorIiEEE25__emplace_unique_key_argsIiJRKiEEENS_4pairINS_15__hash_iteratorIPNS_11__hash_nodeIiPvEEEEbEERKT_DpOT0_
00000000001f6e24 W _ZNSt3__112__hash_tableIjNS_4hashIjEENS_8equal_toIjEENS_9allocatorIjEEE11__do_rehashILb1EEEvm
00000000001f6b64 W _ZNSt3__112__hash_tableIjNS_4hashIjEENS_8equal_toIjEENS_9allocatorIjEEE25__emplace_unique_key_argsIjJRKjEEENS_4pairINS_15__hash_iteratorIPNS_11__hash_nodeIjPvEEEEbEERKT_DpOT0_
00000000001f6b1c W _ZNSt3__112__hash_tableIjNS_4hashIjEENS_8equal_toIjEENS_9allocatorIjEEED2Ev
00000000001ffad4 W _ZNSt3__112__hash_tableINS_17__hash_value_typeIhNS_12basic_stringIcNS_11char_traitsIcEENS_9allocatorIcEEEEEENS_22__unordered_map_hasherIhS8_NS_4hashIhEENS_8equal_toIhEELb1EEENS_21__unordered_map_equalIhS8_SD_SB_Lb1EEENS5_IS8_EEE11__do_rehashILb1EEEvm
00000000001ff7ac W _ZNSt3__112__hash_tableINS_17__hash_value_typeIhNS_12basic_stringIcNS_11char_traitsIcEENS_9allocatorIcEEEEEENS_22__unordered_map_hasherIhS8_NS_4hashIhEENS_8equal_toIhEELb1EEENS_21__unordered_map_equalIhS8_SD_SB_Lb1EEENS5_IS8_EEE25__emplace_unique_key_argsIhJRKNS_21piecewise_construct_tENS_5tupleIJOhEEENSN_IJEEEEEENS_4pairINS_15__hash_iteratorIPNS_11__hash_nodeIS8_PvEEEEbEERKT_DpOT0_
00000000001df224 W _ZNSt3__112__hash_tableINS_17__hash_value_typeIiiEENS_22__unordered_map_hasherIiS2_NS_4hashIiEENS_8equal_toIiEELb1EEENS_21__unordered_map_equalIiS2_S7_S5_Lb1EEENS_9allocatorIS2_EEE11__do_rehashILb0EEEvm
0000000000166808 W _ZNSt3__112__hash_tableINS_17__hash_value_typeIiiEENS_22__unordered_map_hasherIiS2_NS_4hashIiEENS_8equal_toIiEELb1EEENS_21__unordered_map_equalIiS2_S7_S5_Lb1EEENS_9allocatorIS2_EEE11__do_rehashILb1EEEvm
00000000001dedf4 W _ZNSt3__112__hash_tableINS_17__hash_value_typeIiiEENS_22__unordered_map_hasherIiS2_NS_4hashIiEENS_8equal_toIiEELb1EEENS_21__unordered_map_equalIiS2_S7_S5_Lb1EEENS_9allocatorIS2_EEE14__assign_multiINS_21__hash_const_iteratorIPNS_11__hash_nodeIS2_PvEEEEEEvT_SL_
00000000001de218 W _ZNSt3__112__hash_tableINS_17__hash_value_typeIiiEENS_22__unordered_map_hasherIiS2_NS_4hashIiEENS_8equal_toIiEELb1EEENS_21__unordered_map_equalIiS2_S7_S5_Lb1EEENS_9allocatorIS2_EEE14__erase_uniqueIiEEmRKT_
00000000001def10 W _ZNSt3__112__hash_tableINS_17__hash_value_typeIiiEENS_22__unordered_map_hasherIiS2_NS_4hashIiEENS_8equal_toIiEELb1EEENS_21__unordered_map_equalIiS2_S7_S5_Lb1EEENS_9allocatorIS2_EEE19__node_insert_multiEPNS_11__hash_nodeIS2_PvEE
0000000000166548 W _ZNSt3__112__hash_tableINS_17__hash_value_typeIiiEENS_22__unordered_map_hasherIiS2_NS_4hashIiEENS_8equal_toIiEELb1EEENS_21__unordered_map_equalIiS2_S7_S5_Lb1EEENS_9allocatorIS2_EEE25__emplace_unique_key_argsIiJRKNS_21piecewise_construct_tENS_5tupleIJOiEEENSI_IJEEEEEENS_4pairINS_15__hash_iteratorIPNS_11__hash_nodeIS2_PvEEEEbEERKT_DpOT0_
0000000000166b54 W _ZNSt3__112__hash_tableINS_17__hash_value_typeIiiEENS_22__unordered_map_hasherIiS2_NS_4hashIiEENS_8equal_toIiEELb1EEENS_21__unordered_map_equalIiS2_S7_S5_Lb1EEENS_9allocatorIS2_EEE25__emplace_unique_key_argsIiJRKNS_21piecewise_construct_tENS_5tupleIJRKiEEENSI_IJEEEEEENS_4pairINS_15__hash_iteratorIPNS_11__hash_nodeIS2_PvEEEEbEERKT_DpOT0_
00000000001df028 W _ZNSt3__112__hash_tableINS_17__hash_value_typeIiiEENS_22__unordered_map_hasherIiS2_NS_4hashIiEENS_8equal_toIiEELb1EEENS_21__unordered_map_equalIiS2_S7_S5_Lb1EEENS_9allocatorIS2_EEE27__node_insert_multi_prepareEmRS2_
00000000001de300 W _ZNSt3__112__hash_tableINS_17__hash_value_typeIiiEENS_22__unordered_map_hasherIiS2_NS_4hashIiEENS_8equal_toIiEELb1EEENS_21__unordered_map_equalIiS2_S7_S5_Lb1EEENS_9allocatorIS2_EEE6removeENS_21__hash_const_iteratorIPNS_11__hash_nodeIS2_PvEEEE
0000000000167ea8 W _ZNSt3__112__hash_tableINS_17__hash_value_typeIijEENS_22__unordered_map_hasherIiS2_NS_4hashIiEENS_8equal_toIiEELb1EEENS_21__unordered_map_equalIiS2_S7_S5_Lb1EEENS_9allocatorIS2_EEE11__do_rehashILb1EEEvm
0000000000167be8 W _ZNSt3__112__hash_tableINS_17__hash_value_typeIijEENS_22__unordered_map_hasherIiS2_NS_4hashIiEENS_8equal_toIiEELb1EEENS_21__unordered_map_equalIiS2_S7_S5_Lb1EEENS_9allocatorIS2_EEE25__emplace_unique_key_argsIiJRKNS_21piecewise_construct_tENS_5tupleIJRKiEEENSI_IJEEEEEENS_4pairINS_15__hash_iteratorIPNS_11__hash_nodeIS2_PvEEEEbEERKT_DpOT0_
00000000001de854 W _ZNSt3__112__hash_tableINS_17__hash_value_typeIiNS_6vectorIiNS_9allocatorIiEEEEEENS_22__unordered_map_hasherIiS6_NS_4hashIiEENS_8equal_toIiEELb1EEENS_21__unordered_map_equalIiS6_SB_S9_Lb1EEENS3_IS6_EEE11__do_rehashILb0EEEvm
00000000001deba4 W _ZNSt3__112__hash_tableINS_17__hash_value_typeIiNS_6vectorIiNS_9allocatorIiEEEEEENS_22__unordered_map_hasherIiS6_NS_4hashIiEENS_8equal_toIiEELb1EEENS_21__unordered_map_equalIiS6_SB_S9_Lb1EEENS3_IS6_EEE14__assign_multiINS_21__hash_const_iteratorIPNS_11__hash_nodeIS6_PvEEEEEEvT_SO_
00000000001de434 W _ZNSt3__112__hash_tableINS_17__hash_value_typeIiNS_6vectorIiNS_9allocatorIiEEEEEENS_22__unordered_map_hasherIiS6_NS_4hashIiEENS_8equal_toIiEELb1EEENS_21__unordered_map_equalIiS6_SB_S9_Lb1EEENS3_IS6_EEE16__construct_nodeIJRiRS5_EEENS_10unique_ptrINS_11__hash_nodeIS6_PvEENS_22__hash_node_destructorINS3_ISN_EEEEEEDpOT_
00000000001ded28 W _ZNSt3__112__hash_tableINS_17__hash_value_typeIiNS_6vectorIiNS_9allocatorIiEEEEEENS_22__unordered_map_hasherIiS6_NS_4hashIiEENS_8equal_toIiEELb1EEENS_21__unordered_map_equalIiS6_SB_S9_Lb1EEENS3_IS6_EEE16__construct_nodeIJRKNS_4pairIKiS5_EEEEENS_10unique_ptrINS_11__hash_nodeIS6_PvEENS_22__hash_node_destructorINS3_ISQ_EEEEEEDpOT_
00000000001dece0 W _ZNSt3__112__hash_tableINS_17__hash_value_typeIiNS_6vectorIiNS_9allocatorIiEEEEEENS_22__unordered_map_hasherIiS6_NS_4hashIiEENS_8equal_toIiEELb1EEENS_21__unordered_map_equalIiS6_SB_S9_Lb1EEENS3_IS6_EEE17__deallocate_nodeEPNS_16__hash_node_baseIPNS_11__hash_nodeIS6_PvEEEE
00000000001de504 W _ZNSt3__112__hash_tableINS_17__hash_value_typeIiNS_6vectorIiNS_9allocatorIiEEEEEENS_22__unordered_map_hasherIiS6_NS_4hashIiEENS_8equal_toIiEELb1EEENS_21__unordered_map_equalIiS6_SB_S9_Lb1EEENS3_IS6_EEE19__node_insert_multiEPNS_11__hash_nodeIS6_PvEE
00000000001de658 W _ZNSt3__112__hash_tableINS_17__hash_value_typeIiNS_6vectorIiNS_9allocatorIiEEEEEENS_22__unordered_map_hasherIiS6_NS_4hashIiEENS_8equal_toIiEELb1EEENS_21__unordered_map_equalIiS6_SB_S9_Lb1EEENS3_IS6_EEE27__node_insert_multi_prepareEmRS6_
0000000000167a90 W _ZNSt3__112__hash_tableINS_17__hash_value_typeIiNS_6vectorIjNS_9allocatorIjEEEEEENS_22__unordered_map_hasherIiS6_NS_4hashIiEENS_8equal_toIiEELb1EEENS_21__unordered_map_equalIiS6_SB_S9_Lb1EEENS3_IS6_EEE11__do_rehashILb1EEEvm
0000000000167774 W _ZNSt3__112__hash_tableINS_17__hash_value_typeIiNS_6vectorIjNS_9allocatorIjEEEEEENS_22__unordered_map_hasherIiS6_NS_4hashIiEENS_8equal_toIiEELb1EEENS_21__unordered_map_equalIiS6_SB_S9_Lb1EEENS3_IS6_EEE25__emplace_unique_key_argsIiJRKNS_21piecewise_construct_tENS_5tupleIJRKiEEENSL_IJEEEEEENS_4pairINS_15__hash_iteratorIPNS_11__hash_nodeIS6_PvEEEEbEERKT_DpOT0_
00000000001c87f8 W _ZNSt3__112__hash_tableINS_17__hash_value_typeIjP19ggml_backend_bufferEENS_22__unordered_map_hasherIjS4_NS_4hashIjEENS_8equal_toIjEELb1EEENS_21__unordered_map_equalIjS4_S9_S7_Lb1EEENS_9allocatorIS4_EEE11__do_rehashILb1EEEvm
00000000001c870c W _ZNSt3__112__hash_tableINS_17__hash_value_typeIjP19ggml_backend_bufferEENS_22__unordered_map_hasherIjS4_NS_4hashIjEENS_8equal_toIjEELb1EEENS_21__unordered_map_equalIjS4_S9_S7_Lb1EEENS_9allocatorIS4_EEE16__reserve_uniqueB8ne180100Em
00000000001c8950 W _ZNSt3__112__hash_tableINS_17__hash_value_typeIjP19ggml_backend_bufferEENS_22__unordered_map_hasherIjS4_NS_4hashIjEENS_8equal_toIjEELb1EEENS_21__unordered_map_equalIjS4_S9_S7_Lb1EEENS_9allocatorIS4_EEE25__emplace_unique_key_argsIjJRjRS3_EEENS_4pairINS_15__hash_iteratorIPNS_11__hash_nodeIS4_PvEEEEbEERKT_DpOT0_
00000000001c9280 W _ZNSt3__112__hash_tableINS_17__hash_value_typeIjP19ggml_backend_bufferEENS_22__unordered_map_hasherIjS4_NS_4hashIjEENS_8equal_toIjEELb1EEENS_21__unordered_map_equalIjS4_S9_S7_Lb1EEENS_9allocatorIS4_EEE25__emplace_unique_key_argsIjJRKNS_4pairIKjS3_EEEEENSH_INS_15__hash_iteratorIPNS_11__hash_nodeIS4_PvEEEEbEERKT_DpOT0_
00000000001c86c4 W _ZNSt3__112__hash_tableINS_17__hash_value_typeIjP19ggml_backend_bufferEENS_22__unordered_map_hasherIjS4_NS_4hashIjEENS_8equal_toIjEELb1EEENS_21__unordered_map_equalIjS4_S9_S7_Lb1EEENS_9allocatorIS4_EEED2Ev
00000000001f647c W _ZNSt3__112__hash_tableINS_17__hash_value_typeIliEENS_22__unordered_map_hasherIlS2_NS_4hashIlEENS_8equal_toIlEELb1EEENS_21__unordered_map_equalIlS2_S7_S5_Lb1EEENS_9allocatorIS2_EEE11__do_rehashILb1EEEvm
00000000001f61b4 W _ZNSt3__112__hash_tableINS_17__hash_value_typeIliEENS_22__unordered_map_hasherIlS2_NS_4hashIlEENS_8equal_toIlEELb1EEENS_21__unordered_map_equalIlS2_S7_S5_Lb1EEENS_9allocatorIS2_EEE25__emplace_unique_key_argsIlJRKNS_21piecewise_construct_tENS_5tupleIJRKlEEENSI_IJEEEEEENS_4pairINS_15__hash_iteratorIPNS_11__hash_nodeIS2_PvEEEEbEERKT_DpOT0_
000000000017b72c W _ZNSt3__112__hash_tableINS_17__hash_value_typeINS_12basic_stringIcNS_11char_traitsIcEENS_9allocatorIcEEEE23llama_model_kv_overrideEENS_22__unordered_map_hasherIS7_S9_NS_4hashIS7_EENS_8equal_toIS7_EELb1EEENS_21__unordered_map_equalIS7_S9_SE_SC_Lb1EEENS5_IS9_EEE11__do_rehashILb1EEEvm
000000000017b314 W _ZNSt3__112__hash_tableINS_17__hash_value_typeINS_12basic_stringIcNS_11char_traitsIcEENS_9allocatorIcEEEE23llama_model_kv_overrideEENS_22__unordered_map_hasherIS7_S9_NS_4hashIS7_EENS_8equal_toIS7_EELb1EEENS_21__unordered_map_equalIS7_S9_SE_SC_Lb1EEENS5_IS9_EEE25__emplace_unique_key_argsIS7_JNS_4pairIKS7_S8_EEEEENSL_INS_15__hash_iteratorIPNS_11__hash_nodeIS9_PvEEEEbEERKT_DpOT0_
0000000000179b10 W _ZNSt3__112__hash_tableINS_17__hash_value_typeINS_12basic_stringIcNS_11char_traitsIcEENS_9allocatorIcEEEE23llama_model_kv_overrideEENS_22__unordered_map_hasherIS7_S9_NS_4hashIS7_EENS_8equal_toIS7_EELb1EEENS_21__unordered_map_equalIS7_S9_SE_SC_Lb1EEENS5_IS9_EEE4findIS7_EENS_15__hash_iteratorIPNS_11__hash_nodeIS9_PvEEEERKT_
0000000000117c18 W _ZNSt3__112__hash_tableINS_17__hash_value_typeINS_12basic_stringIcNS_11char_traitsIcEENS_9allocatorIcEEEE25llama_adapter_lora_weightEENS_22__unordered_map_hasherIS7_S9_NS_4hashIS7_EENS_8equal_toIS7_EELb1EEENS_21__unordered_map_equalIS7_S9_SE_SC_Lb1EEENS5_IS9_EEE11__do_rehashILb1EEEvm
0000000000117808 W _ZNSt3__112__hash_tableINS_17__hash_value_typeINS_12basic_stringIcNS_11char_traitsIcEENS_9allocatorIcEEEE25llama_adapter_lora_weightEENS_22__unordered_map_hasherIS7_S9_NS_4hashIS7_EENS_8equal_toIS7_EELb1EEENS_21__unordered_map_equalIS7_S9_SE_SC_Lb1EEENS5_IS9_EEE25__emplace_unique_key_argsIS7_JRKNS_21piecewise_construct_tENS_5tupleIJRKS7_EEENSO_IJEEEEEENS_4pairINS_15__hash_iteratorIPNS_11__hash_nodeIS9_PvEEEEbEERKT_DpOT0_
00000000001187a0 W _ZNSt3__112__hash_tableINS_17__hash_value_typeINS_12basic_stringIcNS_11char_traitsIcEENS_9allocatorIcEEEE25llama_adapter_lora_weightEENS_22__unordered_map_hasherIS7_S9_NS_4hashIS7_EENS_8equal_toIS7_EELb1EEENS_21__unordered_map_equalIS7_S9_SE_SC_Lb1EEENS5_IS9_EEE4findIS7_EENS_15__hash_iteratorIPNS_11__hash_nodeIS9_PvEEEERKT_
00000000001f474c W _ZNSt3__112__hash_tableINS_17__hash_value_typeINS_12basic_stringIcNS_11char_traitsIcEENS_9allocatorIcEEEEfEENS_22__unordered_map_hasherIS7_S8_NS_4hashIS7_EENS_8equal_toIS7_EELb1EEENS_21__unordered_map_equalIS7_S8_SD_SB_Lb1EEENS5_IS8_EEE11__do_rehashILb1EEEvm
00000000001f433c W _ZNSt3__112__hash_tableINS_17__hash_value_typeINS_12basic_stringIcNS_11char_traitsIcEENS_9allocatorIcEEEEfEENS_22__unordered_map_hasherIS7_S8_NS_4hashIS7_EENS_8equal_toIS7_EELb1EEENS_21__unordered_map_equalIS7_S8_SD_SB_Lb1EEENS5_IS8_EEE25__emplace_unique_key_argsIS7_JRKNS_21piecewise_construct_tENS_5tupleIJRKS7_EEENSN_IJEEEEEENS_4pairINS_15__hash_iteratorIPNS_11__hash_nodeIS8_PvEEEEbEERKT_DpOT0_
00000000001f48a4 W _ZNSt3__112__hash_tableINS_17__hash_value_typeINS_12basic_stringIcNS_11char_traitsIcEENS_9allocatorIcEEEEfEENS_22__unordered_map_hasherIS7_S8_NS_4hashIS7_EENS_8equal_toIS7_EELb1EEENS_21__unordered_map_equalIS7_S8_SD_SB_Lb1EEENS5_IS8_EEE4findIS7_EENS_15__hash_iteratorIPNS_11__hash_nodeIS8_PvEEEERKT_
0000000000200000 W _ZNSt3__112__hash_tableINS_17__hash_value_typeINS_12basic_stringIcNS_11char_traitsIcEENS_9allocatorIcEEEEhEENS_22__unordered_map_hasherIS7_S8_NS_4hashIS7_EENS_8equal_toIS7_EELb1EEENS_21__unordered_map_equalIS7_S8_SD_SB_Lb1EEENS5_IS8_EEE11__do_rehashILb1EEEvm
00000000001ffc2c W _ZNSt3__112__hash_tableINS_17__hash_value_typeINS_12basic_stringIcNS_11char_traitsIcEENS_9allocatorIcEEEEhEENS_22__unordered_map_hasherIS7_S8_NS_4hashIS7_EENS_8equal_toIS7_EELb1EEENS_21__unordered_map_equalIS7_S8_SD_SB_Lb1EEENS5_IS8_EEE25__emplace_unique_key_argsIS7_JRKNS_21piecewise_construct_tENS_5tupleIJOS7_EEENSN_IJEEEEEENS_4pairINS_15__hash_iteratorIPNS_11__hash_nodeIS8_PvEEEEbEERKT_DpOT0_
0000000000200158 W _ZNSt3__112__hash_tableINS_17__hash_value_typeINS_12basic_stringIcNS_11char_traitsIcEENS_9allocatorIcEEEEhEENS_22__unordered_map_hasherIS7_S8_NS_4hashIS7_EENS_8equal_toIS7_EELb1EEENS_21__unordered_map_equalIS7_S8_SD_SB_Lb1EEENS5_IS8_EEE4findIS7_EENS_15__hash_iteratorIPNS_11__hash_nodeIS8_PvEEEERKT_
00000000001f08b8 W _ZNSt3__112__hash_tableINS_17__hash_value_typeINS_12basic_stringIcNS_11char_traitsIcEENS_9allocatorIcEEEEiEENS_22__unordered_map_hasherIS7_S8_NS_4hashIS7_EENS_8equal_toIS7_EELb1EEENS_21__unordered_map_equalIS7_S8_SD_SB_Lb1EEENS5_IS8_EEE11__do_rehashILb1EEEvm
00000000001f04a8 W _ZNSt3__112__hash_tableINS_17__hash_value_typeINS_12basic_stringIcNS_11char_traitsIcEENS_9allocatorIcEEEEiEENS_22__unordered_map_hasherIS7_S8_NS_4hashIS7_EENS_8equal_toIS7_EELb1EEENS_21__unordered_map_equalIS7_S8_SD_SB_Lb1EEENS5_IS8_EEE25__emplace_unique_key_argsIS7_JRKNS_21piecewise_construct_tENS_5tupleIJRKS7_EEENSN_IJEEEEEENS_4pairINS_15__hash_iteratorIPNS_11__hash_nodeIS8_PvEEEEbEERKT_DpOT0_
00000000001f0a10 W _ZNSt3__112__hash_tableINS_17__hash_value_typeINS_12basic_stringIcNS_11char_traitsIcEENS_9allocatorIcEEEEiEENS_22__unordered_map_hasherIS7_S8_NS_4hashIS7_EENS_8equal_toIS7_EELb1EEENS_21__unordered_map_equalIS7_S8_SD_SB_Lb1EEENS5_IS8_EEE4findIS7_EENS_15__hash_iteratorIPNS_11__hash_nodeIS8_PvEEEERKT_
00000000001171d0 W _ZNSt3__112__hash_tableINS_17__hash_value_typeINS_12basic_stringIcNS_11char_traitsIcEENS_9allocatorIcEEEES7_EENS_22__unordered_map_hasherIS7_S8_NS_4hashIS7_EENS_8equal_toIS7_EELb1EEENS_21__unordered_map_equalIS7_S8_SD_SB_Lb1EEENS5_IS8_EEE11__do_rehashILb1EEEvm
000000000011682c W _ZNSt3__112__hash_tableINS_17__hash_value_typeINS_12basic_stringIcNS_11char_traitsIcEENS_9allocatorIcEEEES7_EENS_22__unordered_map_hasherIS7_S8_NS_4hashIS7_EENS_8equal_toIS7_EELb1EEENS_21__unordered_map_equalIS7_S8_SD_SB_Lb1EEENS5_IS8_EEE16__construct_nodeIJRPKcRKS7_EEENS_10unique_ptrINS_11__hash_nodeIS8_PvEENS_22__hash_node_destructorINS5_ISS_EEEEEEDpOT_
00000000001168cc W _ZNSt3__112__hash_tableINS_17__hash_value_typeINS_12basic_stringIcNS_11char_traitsIcEENS_9allocatorIcEEEES7_EENS_22__unordered_map_hasherIS7_S8_NS_4hashIS7_EENS_8equal_toIS7_EELb1EEENS_21__unordered_map_equalIS7_S8_SD_SB_Lb1EEENS5_IS8_EEE20__node_insert_uniqueEPNS_11__hash_nodeIS8_PvEE
0000000000116794 W _ZNSt3__112__hash_tableINS_17__hash_value_typeINS_12basic_stringIcNS_11char_traitsIcEENS_9allocatorIcEEEES7_EENS_22__unordered_map_hasherIS7_S8_NS_4hashIS7_EENS_8equal_toIS7_EELb1EEENS_21__unordered_map_equalIS7_S8_SD_SB_Lb1EEENS5_IS8_EEE21__emplace_unique_implIJRPKcRKS7_EEENS_4pairINS_15__hash_iteratorIPNS_11__hash_nodeIS8_PvEEEEbEEDpOT_
0000000000116f6c W _ZNSt3__112__hash_tableINS_17__hash_value_typeINS_12basic_stringIcNS_11char_traitsIcEENS_9allocatorIcEEEES7_EENS_22__unordered_map_hasherIS7_S8_NS_4hashIS7_EENS_8equal_toIS7_EELb1EEENS_21__unordered_map_equalIS7_S8_SD_SB_Lb1EEENS5_IS8_EEE28__node_insert_unique_prepareB8ne180100EmRS8_
00000000001f1254 W _ZNSt3__112__hash_tableINS_17__hash_value_typeINS_4pairINS_12basic_stringIcNS_11char_traitsIcEENS_9allocatorIcEEEES8_EEiEENS_22__unordered_map_hasherIS9_SA_N11llama_vocab4impl9pair_hashENS_8equal_toIS9_EELb1EEENS_21__unordered_map_equalIS9_SA_SG_SE_Lb1EEENS6_ISA_EEE11__do_rehashILb1EEEvm
00000000001f0d30 W _ZNSt3__112__hash_tableINS_17__hash_value_typeINS_4pairINS_12basic_stringIcNS_11char_traitsIcEENS_9allocatorIcEEEES8_EEiEENS_22__unordered_map_hasherIS9_SA_N11llama_vocab4impl9pair_hashENS_8equal_toIS9_EELb1EEENS_21__unordered_map_equalIS9_SA_SG_SE_Lb1EEENS6_ISA_EEE25__emplace_unique_key_argsIS9_JS9_RiEEENS2_INS_15__hash_iteratorIPNS_11__hash_nodeISA_PvEEEEbEERKT_DpOT0_
000000000011fc50 W _ZNSt3__112__hash_tableINS_17__hash_value_typeINS_6bitsetILm256EEENS_6vectorIiNS_9allocatorIiEEEEEENS_22__unordered_map_hasherIS3_S8_NS_4hashIS3_EENS_8equal_toIS3_EELb1EEENS_21__unordered_map_equalIS3_S8_SD_SB_Lb1EEENS5_IS8_EEE11__do_rehashILb1EEEvm
000000000011f8fc W _ZNSt3__112__hash_tableINS_17__hash_value_typeINS_6bitsetILm256EEENS_6vectorIiNS_9allocatorIiEEEEEENS_22__unordered_map_hasherIS3_S8_NS_4hashIS3_EENS_8equal_toIS3_EELb1EEENS_21__unordered_map_equalIS3_S8_SD_SB_Lb1EEENS5_IS8_EEE25__emplace_unique_key_argsIS3_JRKNS_21piecewise_construct_tENS_5tupleIJRKS3_EEENSN_IJEEEEEENS_4pairINS_15__hash_iteratorIPNS_11__hash_nodeIS8_PvEEEEbEERKT_DpOT0_
0000000000133e70 W _ZNSt3__112__hash_tableINS_17__hash_value_typeIP18llama_adapter_lorafEENS_22__unordered_map_hasherIS3_S4_NS_4hashIS3_EENS_8equal_toIS3_EELb1EEENS_21__unordered_map_equalIS3_S4_S9_S7_Lb1EEENS_9allocatorIS4_EEE11__do_rehashILb1EEEvm
0000000000133b7c W _ZNSt3__112__hash_tableINS_17__hash_value_typeIP18llama_adapter_lorafEENS_22__unordered_map_hasherIS3_S4_NS_4hashIS3_EENS_8equal_toIS3_EELb1EEENS_21__unordered_map_equalIS3_S4_S9_S7_Lb1EEENS_9allocatorIS4_EEE25__emplace_unique_key_argsIS3_JNS_4pairIKS3_fEEEEENSH_INS_15__hash_iteratorIPNS_11__hash_nodeIS4_PvEEEEbEERKT_DpOT0_
0000000000118404 W _ZNSt3__112__hash_tableIP18llama_adapter_loraNS_4hashIS2_EENS_8equal_toIS2_EENS_9allocatorIS2_EEE11__do_rehashILb1EEEvm
0000000000118110 W _ZNSt3__112__hash_tableIP18llama_adapter_loraNS_4hashIS2_EENS_8equal_toIS2_EENS_9allocatorIS2_EEE25__emplace_unique_key_argsIS2_JS2_EEENS_4pairINS_15__hash_iteratorIPNS_11__hash_nodeIS2_PvEEEEbEERKT_DpOT0_
0000000000145724 W _ZNSt3__112__match_charIcED0Ev
0000000000204bfc W _ZNSt3__112__match_charIwED0Ev
000000000017cbbc W _ZNSt3__113__assoc_stateINS_4pairIP11ggml_tensorbEEE4moveEv
000000000017c6a8 W _ZNSt3__113__assoc_stateINS_4pairIP11ggml_tensorbEEE9set_valueIS4_EEvOT_
0000000000143ac8 W _ZNSt3__113__empty_stateIcED0Ev
000000000020214c W _ZNSt3__113__empty_stateIwED0Ev
000000000013f15c W _ZNSt3__113match_resultsINS_11__wrap_iterIPKcEENS_9allocatorINS_9sub_matchIS4_EEEEE8__assignB8ne180100IS3_NS5_INS6_IS3_EEEEEEvS4_S4_RKNS0_IT_T0_EEb
000000000020a1fc W _ZNSt3__113match_resultsINS_11__wrap_iterIPKwEENS_9allocatorINS_9sub_matchIS4_EEEEE8__assignB8ne180100IS3_NS5_INS6_IS3_EEEEEEvS4_S4_RKNS0_IT_T0_EEb
00000000001dd7bc W _ZNSt3__113random_deviceC2B8ne180100Ev
00000000001ddd0c W _ZNSt3__113regex_replaceB8ne180100INS_20back_insert_iteratorINS_12basic_stringIcNS_11char_traitsIcEENS_9allocatorIcEEEEEEPKcNS_12regex_traitsIcEEcEET_SD_T0_SE_RKNS_11basic_regexIT2_T1_EEPKSG_NS_15regex_constants15match_flag_typeE
00000000001337f0 W _ZNSt3__113__tree_removeB8ne180100IPNS_16__tree_node_baseIPvEEEEvT_S5_
00000000001ff048 W _ZNSt3__113unordered_mapIhNS_12basic_stringIcNS_11char_traitsIcEENS_9allocatorIcEEEENS_4hashIhEENS_8equal_toIhEENS4_INS_4pairIKhS6_EEEEED2B8ne180100Ev
0000000000164074 W _ZNSt3__113unordered_mapIiiNS_4hashIiEENS_8equal_toIiEENS_9allocatorINS_4pairIKiiEEEEED2B8ne180100Ev
000000000016771c W _ZNSt3__113unordered_mapIijNS_4hashIiEENS_8equal_toIiEENS_9allocatorINS_4pairIKijEEEEED2B8ne180100Ev
00000000001676bc W _ZNSt3__113unordered_mapIiNS_6vectorIjNS_9allocatorIjEEEENS_4hashIiEENS_8equal_toIiEENS2_INS_4pairIKiS4_EEEEED2B8ne180100Ev
00000000001c9158 W _ZNSt3__113unordered_mapIjP19ggml_backend_bufferNS_4hashIjEENS_8equal_toIjEENS_9allocatorINS_4pairIKjS2_EEEEEC2ERKSC_
00000000001c1ee4 W _ZNSt3__113unordered_mapIjP19ggml_backend_bufferNS_4hashIjEENS_8equal_toIjEENS_9allocatorINS_4pairIKjS2_EEEEED2B8ne180100Ev
00000000001f41dc W _ZNSt3__113unordered_mapIliNS_4hashIlEENS_8equal_toIlEENS_9allocatorINS_4pairIKliEEEEED2B8ne180100Ev
0000000000179448 W _ZNSt3__113unordered_mapINS_12basic_stringIcNS_11char_traitsIcEENS_9allocatorIcEEEE23llama_model_kv_overrideNS_4hashIS6_EENS_8equal_toIS6_EENS4_INS_4pairIKS6_S7_EEEEED2B8ne180100Ev
00000000001ff0a8 W _ZNSt3__113unordered_mapINS_12basic_stringIcNS_11char_traitsIcEENS_9allocatorIcEEEEhNS_4hashIS6_EENS_8equal_toIS6_EENS4_INS_4pairIKS6_hEEEEED2B8ne180100Ev
00000000001c1b3c W _ZNSt3__113unordered_mapINS_12basic_stringIcNS_11char_traitsIcEENS_9allocatorIcEEEES6_NS_4hashIS6_EENS_8equal_toIS6_EENS4_INS_4pairIKS6_S6_EEEEED2B8ne180100Ev
000000000011eaa4 W _ZNSt3__113unordered_mapINS_6bitsetILm256EEENS_6vectorIiNS_9allocatorIiEEEENS_4hashIS2_EENS_8equal_toIS2_EENS4_INS_4pairIKS2_S6_EEEEED2B8ne180100Ev
0000000000154084 W _ZNSt3__113unordered_setIiNS_4hashIiEENS_8equal_toIiEENS_9allocatorIiEEED2B8ne180100Ev
00000000001f6ad4 W _ZNSt3__113unordered_setIjNS_4hashIjEENS_8equal_toIjEENS_9allocatorIjEEED2B8ne180100Ev
00000000001c1a88 W _ZNSt3__113unordered_setIP18llama_adapter_loraNS_4hashIS2_EENS_8equal_toIS2_EENS_9allocatorIS2_EEED2B8ne180100Ev
00000000001d1790 W _ZNSt3__114basic_ofstreamIcNS_11char_traitsIcEEEC1ERKNS_12basic_stringIcS2_NS_9allocatorIcEEEEj
00000000001ede50 W _ZNSt3__114priority_queueI14llm_bigram_spmNS_6vectorIS1_NS_9allocatorIS1_EEEENS1_10comparatorEE4pushERKS1_
0000000000200f1c W _ZNSt3__114regex_iteratorINS_11__wrap_iterIPKcEEcNS_12regex_traitsIcEEEC2ES4_S4_RKNS_11basic_regexIcS6_EENS_15regex_constants15match_flag_typeE
0000000000201020 W _ZNSt3__114regex_iteratorINS_11__wrap_iterIPKcEEcNS_12regex_traitsIcEEEppEv
00000000002012b0 W _ZNSt3__114regex_iteratorINS_11__wrap_iterIPKwEEwNS_12regex_traitsIwEEEC2ES4_S4_RKNS_11basic_regexIwS6_EENS_15regex_constants15match_flag_typeE
00000000002013b4 W _ZNSt3__114regex_iteratorINS_11__wrap_iterIPKwEEwNS_12regex_traitsIwEEEppEv
00000000001de144 W _ZNSt3__114regex_iteratorIPKccNS_12regex_traitsIcEEEppEv
00000000001eebf4 W _ZNSt3__114__split_bufferI14llm_bigram_bpeRNS_9allocatorIS1_EEED2Ev
0000000000142e70 W _ZNSt3__114__split_bufferI29llama_grammar_trigger_patternRNS_9allocatorIS1_EEED2Ev
000000000016748c W _ZNSt3__114__split_bufferIN14llama_kv_cache9slot_infoERNS_9allocatorIS2_EEED2Ev
00000000001129c0 W _ZNSt3__114__split_bufferINS_12basic_stringIcNS_11char_traitsIcEENS_9allocatorIcEEEERNS4_IS6_EEED2Ev
0000000000208390 W _ZNSt3__114__split_bufferINS_12basic_stringIwNS_11char_traitsIwEENS_9allocatorIwEEEERNS4_IS6_EEED2Ev
00000000001c9730 W _ZNSt3__114__split_bufferINS_4pairINS_12basic_stringIcNS_11char_traitsIcEENS_9allocatorIcEEEEP11ggml_tensorEERNS5_ISA_EEED2Ev
00000000001c8634 W _ZNSt3__114__split_bufferINS_4pairIP12ggml_contextNS_13unordered_mapIjP19ggml_backend_bufferNS_4hashIjEENS_8equal_toIjEENS_9allocatorINS1_IKjS6_EEEEEEEERNSB_ISG_EEED2Ev
00000000001d16bc W _ZNSt3__114__split_bufferINS_6threadERNS_9allocatorIS1_EEED2Ev
00000000001f68ac W _ZNSt3__114__split_bufferINS_6vectorIiNS_9allocatorIiEEEERNS2_IS4_EEED2Ev
000000000013ec78 W _ZNSt3__114__split_bufferINS_6vectorIPK21llama_grammar_elementNS_9allocatorIS4_EEEERNS5_IS7_EEED2Ev
000000000014163c W _ZNSt3__114__split_bufferIPNS_7__stateIcEENS_9allocatorIS3_EEE10push_frontEOS3_
0000000000141cc0 W _ZNSt3__114__split_bufferIPNS_7__stateIcEENS_9allocatorIS3_EEE10push_frontERKS3_
00000000001414c0 W _ZNSt3__114__split_bufferIPNS_7__stateIcEENS_9allocatorIS3_EEE9push_backEOS3_
00000000001417c4 W _ZNSt3__114__split_bufferIPNS_7__stateIcEERNS_9allocatorIS3_EEE10push_frontERKS3_
000000000020b9a0 W _ZNSt3__114__split_bufferIPNS_7__stateIwEENS_9allocatorIS3_EEE10push_frontEOS3_
000000000020c024 W _ZNSt3__114__split_bufferIPNS_7__stateIwEENS_9allocatorIS3_EEE10push_frontERKS3_
000000000020b824 W _ZNSt3__114__split_bufferIPNS_7__stateIwEENS_9allocatorIS3_EEE9push_backEOS3_
000000000020bb28 W _ZNSt3__114__split_bufferIPNS_7__stateIwEERNS_9allocatorIS3_EEE10push_frontERKS3_
00000000001446cc W _ZNSt3__115__word_boundaryIcNS_12regex_traitsIcEEED0Ev
0000000000144680 W _ZNSt3__115__word_boundaryIcNS_12regex_traitsIcEEED2Ev
0000000000202e6c W _ZNSt3__115__word_boundaryIwNS_12regex_traitsIwEEED0Ev
0000000000202e20 W _ZNSt3__115__word_boundaryIwNS_12regex_traitsIwEEED2Ev
00000000001457f4 W _ZNSt3__116__back_ref_icaseIcNS_12regex_traitsIcEEED0Ev
00000000001457a8 W _ZNSt3__116__back_ref_icaseIcNS_12regex_traitsIcEEED2Ev
0000000000204ccc W _ZNSt3__116__back_ref_icaseIwNS_12regex_traitsIwEEED0Ev
0000000000204c80 W _ZNSt3__116__back_ref_icaseIwNS_12regex_traitsIwEEED2Ev
00000000001f5178 W _ZNSt3__116__insertion_sortB8ne180100INS_17_ClassicAlgPolicyERZN20llm_tokenizer_plamo25buildERK11llama_vocabEUlRKNS_12basic_stringIcNS_11char_traitsIcEENS_9allocatorIcEEEESD_E_PSB_EEvT1_SH_T0_
0000000000143b18 W _ZNSt3__116__owns_one_stateIcED0Ev
0000000000149ee0 W _ZNSt3__116__owns_one_stateIcED2Ev
000000000020219c W _ZNSt3__116__owns_one_stateIwED0Ev
0000000000209a34 W _ZNSt3__116__owns_one_stateIwED2Ev
0000000000155690 W _ZNSt3__117bad_function_callD0Ev
00000000001497bc W _ZNSt3__117__owns_two_statesIcED0Ev
0000000000149830 W _ZNSt3__117__owns_two_statesIcED2Ev
0000000000209268 W _ZNSt3__117__owns_two_statesIwED0Ev
00000000002092dc W _ZNSt3__117__owns_two_statesIwED2Ev
0000000000149818 W _ZNSt3__117__repeat_one_loopIcED0Ev
00000000002092c4 W _ZNSt3__117__repeat_one_loopIwED0Ev
0000000000145970 W _ZNSt3__118__back_ref_collateIcNS_12regex_traitsIcEEED0Ev
0000000000145924 W _ZNSt3__118__back_ref_collateIcNS_12regex_traitsIcEEED2Ev
0000000000204e50 W _ZNSt3__118__back_ref_collateIwNS_12regex_traitsIwEEED0Ev
0000000000204e04 W _ZNSt3__118__back_ref_collateIwNS_12regex_traitsIwEEED2Ev
000000000011ebc0 W _ZNSt3__118basic_stringstreamIcNS_11char_traitsIcEENS_9allocatorIcEEEC1B8ne180100Ev
0000000000145584 W _ZNSt3__118__match_char_icaseIcNS_12regex_traitsIcEEED0Ev
0000000000145538 W _ZNSt3__118__match_char_icaseIcNS_12regex_traitsIcEEED2Ev
0000000000204a5c W _ZNSt3__118__match_char_icaseIwNS_12regex_traitsIwEEED0Ev
0000000000204a10 W _ZNSt3__118__match_char_icaseIwNS_12regex_traitsIwEEED2Ev
00000000001dd6cc W _ZNSt3__118unordered_multimapIiNS_6vectorIiNS_9allocatorIiEEEENS_4hashIiEENS_8equal_toIiEENS2_INS_4pairIKiS4_EEEEED2B8ne180100Ev
00000000001ed5cc W _ZNSt3__119__forward_list_baseI23fragment_buffer_variantNS_9allocatorIS1_EEED2Ev
0000000000099520 V _ZNSt3__119piecewise_constructE
0000000000144c14 W _ZNSt3__119__throw_regex_errorB8ne180100ILNS_15regex_constants10error_typeE11EEEvv
0000000000140744 W _ZNSt3__119__throw_regex_errorB8ne180100ILNS_15regex_constants10error_typeE12EEEvv
0000000000143a18 W _ZNSt3__119__throw_regex_errorB8ne180100ILNS_15regex_constants10error_typeE14EEEvv
0000000000149934 W _ZNSt3__119__throw_regex_errorB8ne180100ILNS_15regex_constants10error_typeE15EEEvv
00000000001408f8 W _ZNSt3__119__throw_regex_errorB8ne180100ILNS_15regex_constants10error_typeE16EEEvv
0000000000143104 W _ZNSt3__119__throw_regex_errorB8ne180100ILNS_15regex_constants10error_typeE17EEEvv
00000000001483f8 W _ZNSt3__119__throw_regex_errorB8ne180100ILNS_15regex_constants10error_typeE1EEEvv
000000000014889c W _ZNSt3__119__throw_regex_errorB8ne180100ILNS_15regex_constants10error_typeE2EEEvv
0000000000144cf4 W _ZNSt3__119__throw_regex_errorB8ne180100ILNS_15regex_constants10error_typeE3EEEvv
0000000000145434 W _ZNSt3__119__throw_regex_errorB8ne180100ILNS_15regex_constants10error_typeE4EEEvv
00000000001470b8 W _ZNSt3__119__throw_regex_errorB8ne180100ILNS_15regex_constants10error_typeE5EEEvv
0000000000144510 W _ZNSt3__119__throw_regex_errorB8ne180100ILNS_15regex_constants10error_typeE6EEEvv
0000000000149490 W _ZNSt3__119__throw_regex_errorB8ne180100ILNS_15regex_constants10error_typeE7EEEvv
0000000000149448 W _ZNSt3__119__throw_regex_errorB8ne180100ILNS_15regex_constants10error_typeE8EEEvv
0000000000149024 W _ZNSt3__119__throw_regex_errorB8ne180100ILNS_15regex_constants10error_typeE9EEEvv
0000000000145b4c W _ZNSt3__120__bracket_expressionIcNS_12regex_traitsIcEEE10__add_charB8ne180100Ec
0000000000147bbc W _ZNSt3__120__bracket_expressionIcNS_12regex_traitsIcEEE11__add_rangeB8ne180100ENS_12basic_stringIcNS_11char_traitsIcEENS_9allocatorIcEEEES9_
000000000014804c W _ZNSt3__120__bracket_expressionIcNS_12regex_traitsIcEEE13__add_digraphB8ne180100Ecc
0000000000148a80 W _ZNSt3__120__bracket_expressionIcNS_12regex_traitsIcEEE14__add_neg_charB8ne180100Ec
0000000000145f74 W _ZNSt3__120__bracket_expressionIcNS_12regex_traitsIcEEEC2B8ne180100ERKS2_PNS_6__nodeIcEEbbb
00000000001462a0 W _ZNSt3__120__bracket_expressionIcNS_12regex_traitsIcEEED0Ev
0000000000146170 W _ZNSt3__120__bracket_expressionIcNS_12regex_traitsIcEEED2Ev
000000000020502c W _ZNSt3__120__bracket_expressionIwNS_12regex_traitsIwEEE10__add_charB8ne180100Ew
000000000020724c W _ZNSt3__120__bracket_expressionIwNS_12regex_traitsIwEEE11__add_rangeB8ne180100ENS_12basic_stringIwNS_11char_traitsIwEENS_9allocatorIwEEEES9_
00000000002076fc W _ZNSt3__120__bracket_expressionIwNS_12regex_traitsIwEEE13__add_digraphB8ne180100Eww
0000000000208678 W _ZNSt3__120__bracket_expressionIwNS_12regex_traitsIwEEE14__add_neg_charB8ne180100Ew
00000000002053c4 W _ZNSt3__120__bracket_expressionIwNS_12regex_traitsIwEEEC2B8ne180100ERKS2_PNS_6__nodeIwEEbbb
000000000020575c W _ZNSt3__120__bracket_expressionIwNS_12regex_traitsIwEEED0Ev
000000000020562c W _ZNSt3__120__bracket_expressionIwNS_12regex_traitsIwEEED2Ev
0000000000144558 W _ZNSt3__120__l_anchor_multilineIcED0Ev
0000000000202cf8 W _ZNSt3__120__l_anchor_multilineIwED0Ev
0000000000145690 W _ZNSt3__120__match_char_collateIcNS_12regex_traitsIcEEED0Ev
0000000000145644 W _ZNSt3__120__match_char_collateIcNS_12regex_traitsIcEEED2Ev
0000000000204b68 W _ZNSt3__120__match_char_collateIwNS_12regex_traitsIwEEED0Ev
0000000000204b1c W _ZNSt3__120__match_char_collateIwNS_12regex_traitsIwEEED2Ev
00000000001445f4 W _ZNSt3__120__r_anchor_multilineIcED0Ev
0000000000202d94 W _ZNSt3__120__r_anchor_multilineIwED0Ev
00000000001200cc W _ZNSt3__120__shared_ptr_emplaceIN12llama_ubatch6data_tENS_9allocatorIS2_EEE16__on_zero_sharedEv
00000000001200d4 W _ZNSt3__120__shared_ptr_emplaceIN12llama_ubatch6data_tENS_9allocatorIS2_EEE21__on_zero_shared_weakEv
00000000001200a4 W _ZNSt3__120__shared_ptr_emplaceIN12llama_ubatch6data_tENS_9allocatorIS2_EEED0Ev
0000000000120090 W _ZNSt3__120__shared_ptr_emplaceIN12llama_ubatch6data_tENS_9allocatorIS2_EEED2Ev
0000000000133574 W _ZNSt3__120__shared_ptr_pointerIP18llama_adapter_cvecNS_14default_deleteIS1_EENS_9allocatorIS1_EEE16__on_zero_sharedEv
00000000001335b8 W _ZNSt3__120__shared_ptr_pointerIP18llama_adapter_cvecNS_14default_deleteIS1_EENS_9allocatorIS1_EEE21__on_zero_shared_weakEv
000000000013355c W _ZNSt3__120__shared_ptr_pointerIP18llama_adapter_cvecNS_14default_deleteIS1_EENS_9allocatorIS1_EEED0Ev
0000000000143a90 W _ZNSt3__120__shared_ptr_pointerIPNS_13__empty_stateIcEENS_10shared_ptrIS2_E27__shared_ptr_default_deleteIS2_S2_EENS_9allocatorIS2_EEE16__on_zero_sharedEv
0000000000143ac4 W _ZNSt3__120__shared_ptr_pointerIPNS_13__empty_stateIcEENS_10shared_ptrIS2_E27__shared_ptr_default_deleteIS2_S2_EENS_9allocatorIS2_EEE21__on_zero_shared_weakEv
0000000000143a78 W _ZNSt3__120__shared_ptr_pointerIPNS_13__empty_stateIcEENS_10shared_ptrIS2_E27__shared_ptr_default_deleteIS2_S2_EENS_9allocatorIS2_EEED0Ev
0000000000202114 W _ZNSt3__120__shared_ptr_pointerIPNS_13__empty_stateIwEENS_10shared_ptrIS2_E27__shared_ptr_default_deleteIS2_S2_EENS_9allocatorIS2_EEE16__on_zero_sharedEv
0000000000202148 W _ZNSt3__120__shared_ptr_pointerIPNS_13__empty_stateIwEENS_10shared_ptrIS2_E27__shared_ptr_default_deleteIS2_S2_EENS_9allocatorIS2_EEE21__on_zero_shared_weakEv
00000000002020fc W _ZNSt3__120__shared_ptr_pointerIPNS_13__empty_stateIwEENS_10shared_ptrIS2_E27__shared_ptr_default_deleteIS2_S2_EENS_9allocatorIS2_EEED0Ev
00000000001dd880 W _ZNSt3__121discrete_distributionIiE10param_type6__initEv
00000000001ddb98 W _ZNSt3__121discrete_distributionIiEclINS_23mersenne_twister_engineIjLm32ELm624ELm397ELm31ELj2567483615ELm11ELj4294967295ELm7ELj2636928640ELm15ELj4022730752ELm18ELj1812433253EEEEEiRT_RKNS1_10param_typeE
000000000014991c W _ZNSt3__121__empty_non_own_stateIcED0Ev
00000000002093c8 W _ZNSt3__121__empty_non_own_stateIwED0Ev
0000000000144cb8 W _ZNSt3__123__match_any_but_newlineIcED0Ev
00000000002040fc W _ZNSt3__123__match_any_but_newlineIwED0Ev
000000000011fda8 W _ZNSt3__124__put_character_sequenceB8ne180100IcNS_11char_traitsIcEEEERNS_13basic_ostreamIT_T0_EES7_PKS4_m
0000000000155660 W _ZNSt3__125__throw_bad_function_callB8ne180100Ev
0000000000149298 W _ZNSt3__126__end_marked_subexpressionIcED0Ev
0000000000208dd4 W _ZNSt3__126__end_marked_subexpressionIwED0Ev
00000000001f52c0 W _ZNSt3__126__insertion_sort_unguardedB8ne180100INS_17_ClassicAlgPolicyERZN20llm_tokenizer_plamo25buildERK11llama_vocabEUlRKNS_12basic_stringIcNS_11char_traitsIcEENS_9allocatorIcEEEESD_E_PSB_EEvT1_SH_T0_
00000000001f5894 W _ZNSt3__127__insertion_sort_incompleteB8ne180100INS_17_ClassicAlgPolicyERZN20llm_tokenizer_plamo25buildERK11llama_vocabEUlRKNS_12basic_stringIcNS_11char_traitsIcEENS_9allocatorIcEEEESD_E_PSB_EEbT1_SH_T0_
000000000011626c W _ZNSt3__127__tree_balance_after_insertB8ne180100IPNS_16__tree_node_baseIPvEEEEvT_S5_
000000000014922c W _ZNSt3__128__begin_marked_subexpressionIcED0Ev
0000000000208d68 W _ZNSt3__128__begin_marked_subexpressionIwED0Ev
000000000014a7b0 W _ZNSt3__128__exception_guard_exceptionsINS_29_AllocatorDestroyRangeReverseINS_9allocatorI29llama_grammar_trigger_patternEEPS3_EEED2B8ne180100Ev
0000000000170fac W _ZNSt3__128__exception_guard_exceptionsINS_29_AllocatorDestroyRangeReverseINS_9allocatorIN22llama_memory_recurrent8mem_cellEEEPS4_EEED2B8ne180100Ev
0000000000134824 W _ZNSt3__128__exception_guard_exceptionsINS_29_AllocatorDestroyRangeReverseINS_9allocatorINS_12basic_stringIcNS_11char_traitsIcEENS2_IcEEEEEEPS7_EEED2B8ne180100Ev
000000000014a488 W _ZNSt3__128__exception_guard_exceptionsINS_29_AllocatorDestroyRangeReverseINS_9allocatorINS_6vectorI21llama_grammar_elementNS2_IS4_EEEEEEPS6_EEED2B8ne180100Ev
00000000001659cc W _ZNSt3__128__exception_guard_exceptionsINS_29_AllocatorDestroyRangeReverseINS_9allocatorINS_6vectorIjNS2_IjEEEEEEPS5_EEED2B8ne180100Ev
000000000014a658 W _ZNSt3__128__exception_guard_exceptionsINS_29_AllocatorDestroyRangeReverseINS_9allocatorINS_6vectorIPK21llama_grammar_elementNS2_IS6_EEEEEEPS8_EEED2B8ne180100Ev
0000000000169bec W _ZNSt3__128__exception_guard_exceptionsINS_6vectorI12llama_ubatchNS_9allocatorIS2_EEE16__destroy_vectorEED2B8ne180100Ev
0000000000170f2c W _ZNSt3__128__exception_guard_exceptionsINS_6vectorIN22llama_memory_recurrent8mem_cellENS_9allocatorIS3_EEE16__destroy_vectorEED2B8ne180100Ev
00000000001d170c W _ZNSt3__128__exception_guard_exceptionsINS_6vectorINS_10unique_ptrI12gguf_context20gguf_context_deleterEENS_9allocatorIS5_EEE16__destroy_vectorEED2B8ne180100Ev
000000000013479c W _ZNSt3__128__exception_guard_exceptionsINS_6vectorINS_12basic_stringIcNS_11char_traitsIcEENS_9allocatorIcEEEENS5_IS7_EEE16__destroy_vectorEED2B8ne180100Ev
000000000014291c W _ZNSt3__128__exception_guard_exceptionsINS_6vectorINS1_I21llama_grammar_elementNS_9allocatorIS2_EEEENS3_IS5_EEE16__destroy_vectorEED2B8ne180100Ev
0000000000120354 W _ZNSt3__128__exception_guard_exceptionsINS_6vectorINS1_IiNS_9allocatorIiEEEENS2_IS4_EEE16__destroy_vectorEED2B8ne180100Ev
0000000000165848 W _ZNSt3__128__exception_guard_exceptionsINS_6vectorINS1_IjNS_9allocatorIjEEEENS2_IS4_EEE16__destroy_vectorEED2B8ne180100Ev
000000000014a4e4 W _ZNSt3__128__exception_guard_exceptionsINS_6vectorINS1_IPK21llama_grammar_elementNS_9allocatorIS4_EEEENS5_IS7_EEE16__destroy_vectorEED2B8ne180100Ev
00000000001f5528 W _ZNSt3__131__partition_with_equals_on_leftB8ne180100INS_17_ClassicAlgPolicyEPNS_12basic_stringIcNS_11char_traitsIcEENS_9allocatorIcEEEERZN20llm_tokenizer_plamo25buildERK11llama_vocabEUlRKS7_SE_E_EET0_SH_SH_T1_
00000000001f56e0 W _ZNSt3__132__partition_with_equals_on_rightB8ne180100INS_17_ClassicAlgPolicyEPNS_12basic_stringIcNS_11char_traitsIcEENS_9allocatorIcEEEERZN20llm_tokenizer_plamo25buildERK11llama_vocabEUlRKS7_SE_E_EENS_4pairIT0_bEESI_SI_T1_
000000000014a6c4 W _ZNSt3__135__uninitialized_allocator_copy_implB8ne180100INS_9allocatorI29llama_grammar_trigger_patternEEPS2_S4_S4_EET2_RT_T0_T1_S5_
000000000014a39c W _ZNSt3__135__uninitialized_allocator_copy_implB8ne180100INS_9allocatorINS_6vectorI21llama_grammar_elementNS1_IS3_EEEEEEPS5_S7_S7_EET2_RT_T0_T1_S8_
00000000001658e0 W _ZNSt3__135__uninitialized_allocator_copy_implB8ne180100INS_9allocatorINS_6vectorIjNS1_IjEEEEEEPS4_S6_S6_EET2_RT_T0_T1_S7_
000000000014a9b4 W _ZNSt3__135__uninitialized_allocator_copy_implB8ne180100INS_9allocatorINS_6vectorIPK21llama_grammar_elementNS1_IS5_EEEEEEPKS7_SA_PS7_EET2_RT_T0_T1_SC_
000000000014a56c W _ZNSt3__135__uninitialized_allocator_copy_implB8ne180100INS_9allocatorINS_6vectorIPK21llama_grammar_elementNS1_IS5_EEEEEEPS7_S9_S9_EET2_RT_T0_T1_SA_
0000000000119c54 W _ZNSt3__13mapI10llm_tensor15llm_tensor_infoNS_4lessIS1_EENS_9allocatorINS_4pairIKS1_S2_EEEEEC2B8ne180100ESt16initializer_listIS8_ERKS4_
0000000000119d40 W _ZNSt3__13mapI10llm_tensor15llm_tensor_infoNS_4lessIS1_EENS_9allocatorINS_4pairIKS1_S2_EEEEED2B8ne180100Ev
0000000000119b6c W _ZNSt3__13mapI10llm_tensorPKcNS_4lessIS1_EENS_9allocatorINS_4pairIKS1_S3_EEEEEC2B8ne180100ESt16initializer_listIS9_ERKS5_
0000000000119c4c W _ZNSt3__13mapI10llm_tensorPKcNS_4lessIS1_EENS_9allocatorINS_4pairIKS1_S3_EEEEED2B8ne180100Ev
00000000001c19a0 W _ZNSt3__13mapI23llama_rope_scaling_typePKcNS_4lessIS1_EENS_9allocatorINS_4pairIKS1_S3_EEEEEC2B8ne180100ESt16initializer_listIS9_ERKS5_
00000000001c1a80 W _ZNSt3__13mapI23llama_rope_scaling_typePKcNS_4lessIS1_EENS_9allocatorINS_4pairIKS1_S3_EEEEED2B8ne180100Ev
0000000000119a84 W _ZNSt3__13mapI6llm_kvPKcNS_4lessIS1_EENS_9allocatorINS_4pairIKS1_S3_EEEEEC2B8ne180100ESt16initializer_listIS9_ERKS5_
0000000000119b64 W _ZNSt3__13mapI6llm_kvPKcNS_4lessIS1_EENS_9allocatorINS_4pairIKS1_S3_EEEEED2B8ne180100Ev
000000000011999c W _ZNSt3__13mapI8llm_archPKcNS_4lessIS1_EENS_9allocatorINS_4pairIKS1_S3_EEEEEC2B8ne180100ESt16initializer_listIS9_ERKS5_
0000000000119a7c W _ZNSt3__13mapI8llm_archPKcNS_4lessIS1_EENS_9allocatorINS_4pairIKS1_S3_EEEEED2B8ne180100Ev
00000000001ff2ec W _ZNSt3__13mapIiiNS_4lessIiEENS_9allocatorINS_4pairIKiiEEEEEC2B8ne180100ESt16initializer_listIS6_ERKS2_
00000000001ff3cc W _ZNSt3__13mapIiiNS_4lessIiEENS_9allocatorINS_4pairIKiiEEEEED2B8ne180100Ev
00000000001ff730 W _ZNSt3__13mapIiNS_12basic_stringIcNS_11char_traitsIcEENS_9allocatorIcEEEENS_4lessIiEENS4_INS_4pairIKiS6_EEEEEC2B8ne180100ESt16initializer_listISB_ERKS8_
00000000001ff7a4 W _ZNSt3__13mapIiNS_12basic_stringIcNS_11char_traitsIcEENS_9allocatorIcEEEENS_4lessIiEENS4_INS_4pairIKiS6_EEEEED2B8ne180100Ev
00000000001341cc W _ZNSt3__13mapIiP13llama_samplerNS_4lessIiEENS_9allocatorINS_4pairIKiS2_EEEEE6insertB8ne180100INS_20__map_const_iteratorINS_21__tree_const_iteratorINS_12__value_typeIiS2_EEPNS_11__tree_nodeISF_PvEElEEEEEEvT_SM_
0000000000125dd0 W _ZNSt3__13mapINS_12basic_stringIcNS_11char_traitsIcEENS_9allocatorIcEEEE17llm_chat_templateNS_4lessIS6_EENS4_INS_4pairIKS6_S7_EEEEED2B8ne180100Ev
00000000001ff270 W _ZNSt3__13mapINS_12basic_stringIcNS_11char_traitsIcEENS_9allocatorIcEEEEiNS_4lessIS6_EENS4_INS_4pairIKS6_iEEEEEC2B8ne180100ESt16initializer_listISB_ERKS8_
00000000001ff2e4 W _ZNSt3__13mapINS_12basic_stringIcNS_11char_traitsIcEENS_9allocatorIcEEEEiNS_4lessIS6_EENS4_INS_4pairIKS6_iEEEEED2B8ne180100Ev
0000000000119d48 W _ZNSt3__13setI10llm_tensorNS_4lessIS1_EENS_9allocatorIS1_EEEC2B8ne180100ESt16initializer_listIS1_ERKS3_
0000000000170ffc W _ZNSt3__13setIiNS_4lessIiEENS_9allocatorIiEEE6insertB8ne180100INS_21__tree_const_iteratorIiPNS_11__tree_nodeIiPvEElEEEEvT_SD_
00000000001ff684 W _ZNSt3__14pairIKiNS_12basic_stringIcNS_11char_traitsIcEENS_9allocatorIcEEEEEC2B8ne180100IN17unicode_cpt_flagsUt_ERA12_KcTnNS_9enable_ifIXclsr10_CheckArgsE17__enable_implicitIT_T0_EEEiE4typeELi0EEEOSG_OSH_
00000000001ff5d8 W _ZNSt3__14pairIKiNS_12basic_stringIcNS_11char_traitsIcEENS_9allocatorIcEEEEEC2B8ne180100IN17unicode_cpt_flagsUt_ERA1_KcTnNS_9enable_ifIXclsr10_CheckArgsE17__enable_implicitIT_T0_EEEiE4typeELi0EEEOSG_OSH_
00000000001ff52c W _ZNSt3__14pairIKiNS_12basic_stringIcNS_11char_traitsIcEENS_9allocatorIcEEEEEC2B8ne180100IN17unicode_cpt_flagsUt_ERA26_KcTnNS_9enable_ifIXclsr10_CheckArgsE17__enable_implicitIT_T0_EEEiE4typeELi0EEEOSG_OSH_
00000000001ff3d4 W _ZNSt3__14pairIKiNS_12basic_stringIcNS_11char_traitsIcEENS_9allocatorIcEEEEEC2B8ne180100IN17unicode_cpt_flagsUt_ERA4_KcTnNS_9enable_ifIXclsr10_CheckArgsE17__enable_implicitIT_T0_EEEiE4typeELi0EEEOSG_OSH_
00000000001ff480 W _ZNSt3__14pairIKiNS_12basic_stringIcNS_11char_traitsIcEENS_9allocatorIcEEEEEC2B8ne180100IN17unicode_cpt_flagsUt_ERA7_KcTnNS_9enable_ifIXclsr10_CheckArgsE17__enable_implicitIT_T0_EEEiE4typeELi0EEEOSG_OSH_
00000000001ff108 W _ZNSt3__14pairIKNS_12basic_stringIcNS_11char_traitsIcEENS_9allocatorIcEEEEiEC2B8ne180100IRA6_KcN17unicode_cpt_flagsUt_ETnNS_9enable_ifIXclsr10_CheckArgsE17__enable_implicitIT_T0_EEEiE4typeELi0EEEOSG_OSH_
00000000001ff1bc W _ZNSt3__14pairIKNS_12basic_stringIcNS_11char_traitsIcEENS_9allocatorIcEEEEiEC2B8ne180100IRA7_KcN17unicode_cpt_flagsUt_ETnNS_9enable_ifIXclsr10_CheckArgsE17__enable_implicitIT_T0_EEEiE4typeELi0EEEOSG_OSH_
0000000000116a44 W _ZNSt3__14pairIKNS_12basic_stringIcNS_11char_traitsIcEENS_9allocatorIcEEEES6_EC2B8ne180100IRPKcRS7_TnNS_9enable_ifIXclsr10_CheckArgsE17__enable_implicitIT_T0_EEEiE4typeELi0EEEOSF_OSG_
0000000000146b98 W _ZNSt3__14pairINS_12basic_stringIcNS_11char_traitsIcEENS_9allocatorIcEEEES6_ED2Ev
0000000000206004 W _ZNSt3__14pairINS_12basic_stringIwNS_11char_traitsIwEENS_9allocatorIwEEEES6_ED2Ev
0000000000112b80 W _ZNSt3__15arrayINS_12basic_stringIcNS_11char_traitsIcEENS_9allocatorIcEEEELm1000EED2Ev
0000000000132e30 W _ZNSt3__15arrayINS_12basic_stringIcNS_11char_traitsIcEENS_9allocatorIcEEEELm9EED2Ev
0000000000141040 W _ZNSt3__15dequeINS_7__stateIcEENS_9allocatorIS2_EEE19__add_back_capacityEv
000000000014194c W _ZNSt3__15dequeINS_7__stateIcEENS_9allocatorIS2_EEE20__add_front_capacityEv
0000000000140e98 W _ZNSt3__15dequeINS_7__stateIcEENS_9allocatorIS2_EEE5clearEv
0000000000140fd4 W _ZNSt3__15dequeINS_7__stateIcEENS_9allocatorIS2_EEED2B8ne180100Ev
000000000020b3a4 W _ZNSt3__15dequeINS_7__stateIwEENS_9allocatorIS2_EEE19__add_back_capacityEv
000000000020bcb0 W _ZNSt3__15dequeINS_7__stateIwEENS_9allocatorIS2_EEE20__add_front_capacityEv
000000000020b1fc W _ZNSt3__15dequeINS_7__stateIwEENS_9allocatorIS2_EEE5clearEv
000000000020b338 W _ZNSt3__15dequeINS_7__stateIwEENS_9allocatorIS2_EEED2B8ne180100Ev
00000000001494d8 W _ZNSt3__16__loopIcED0Ev
0000000000208f84 W _ZNSt3__16__loopIwED0Ev
0000000000149918 W _ZNSt3__16__nodeIcED2Ev
00000000002093c4 W _ZNSt3__16__nodeIwED2Ev
0000000000119e28 W _ZNSt3__16__treeI10llm_tensorNS_4lessIS1_EENS_9allocatorIS1_EEE12__find_equalIS1_EERPNS_16__tree_node_baseIPvEENS_21__tree_const_iteratorIS1_PNS_11__tree_nodeIS1_S9_EElEERPNS_15__tree_end_nodeISB_EESC_RKT_
0000000000119fd0 W _ZNSt3__16__treeI10llm_tensorNS_4lessIS1_EENS_9allocatorIS1_EEE7destroyEPNS_11__tree_nodeIS1_PvEE
00000000001710f4 W _ZNSt3__16__treeIiNS_4lessIiEENS_9allocatorIiEEE12__find_equalIiEERPNS_16__tree_node_baseIPvEENS_21__tree_const_iteratorIiPNS_11__tree_nodeIiS8_EElEERPNS_15__tree_end_nodeISA_EESB_RKT_
000000000011ee50 W _ZNSt3__16__treeIiNS_4lessIiEENS_9allocatorIiEEE7destroyEPNS_11__tree_nodeIiPvEE
00000000001655d4 W _ZNSt3__16__treeIjNS_4lessIjEENS_9allocatorIjEEE7destroyEPNS_11__tree_nodeIjPvEE
000000000011a5c8 W _ZNSt3__16__treeINS_12__value_typeI10llm_tensor15llm_tensor_infoEENS_19__map_value_compareIS2_S4_NS_4lessIS2_EELb1EEENS_9allocatorIS4_EEE12__find_equalIS2_EERPNS_16__tree_node_baseIPvEENS_21__tree_const_iteratorIS4_PNS_11__tree_nodeIS4_SE_EElEERPNS_15__tree_end_nodeISG_EESH_RKT_
000000000011a770 W _ZNSt3__16__treeINS_12__value_typeI10llm_tensor15llm_tensor_infoEENS_19__map_value_compareIS2_S4_NS_4lessIS2_EELb1EEENS_9allocatorIS4_EEE7destroyEPNS_11__tree_nodeIS4_PvEE
000000000011a3e0 W _ZNSt3__16__treeINS_12__value_typeI10llm_tensorPKcEENS_19__map_value_compareIS2_S5_NS_4lessIS2_EELb1EEENS_9allocatorIS5_EEE12__find_equalIS2_EERPNS_16__tree_node_baseIPvEENS_21__tree_const_iteratorIS5_PNS_11__tree_nodeIS5_SF_EElEERPNS_15__tree_end_nodeISH_EESI_RKT_
000000000011a588 W _ZNSt3__16__treeINS_12__value_typeI10llm_tensorPKcEENS_19__map_value_compareIS2_S5_NS_4lessIS2_EELb1EEENS_9allocatorIS5_EEE7destroyEPNS_11__tree_nodeIS5_PvEE
00000000001c7b58 W _ZNSt3__16__treeINS_12__value_typeI23llama_rope_scaling_typePKcEENS_19__map_value_compareIS2_S5_NS_4lessIS2_EELb1EEENS_9allocatorIS5_EEE12__find_equalIS2_EERPNS_16__tree_node_baseIPvEENS_21__tree_const_iteratorIS5_PNS_11__tree_nodeIS5_SF_EElEERPNS_15__tree_end_nodeISH_EESI_RKT_
00000000001c7d00 W _ZNSt3__16__treeINS_12__value_typeI23llama_rope_scaling_typePKcEENS_19__map_value_compareIS2_S5_NS_4lessIS2_EELb1EEENS_9allocatorIS5_EEE7destroyEPNS_11__tree_nodeIS5_PvEE
000000000011a1f8 W _ZNSt3__16__treeINS_12__value_typeI6llm_kvPKcEENS_19__map_value_compareIS2_S5_NS_4lessIS2_EELb1EEENS_9allocatorIS5_EEE12__find_equalIS2_EERPNS_16__tree_node_baseIPvEENS_21__tree_const_iteratorIS5_PNS_11__tree_nodeIS5_SF_EElEERPNS_15__tree_end_nodeISH_EESI_RKT_
000000000011a3a0 W _ZNSt3__16__treeINS_12__value_typeI6llm_kvPKcEENS_19__map_value_compareIS2_S5_NS_4lessIS2_EELb1EEENS_9allocatorIS5_EEE7destroyEPNS_11__tree_nodeIS5_PvEE
000000000011a010 W _ZNSt3__16__treeINS_12__value_typeI8llm_archPKcEENS_19__map_value_compareIS2_S5_NS_4lessIS2_EELb1EEENS_9allocatorIS5_EEE12__find_equalIS2_EERPNS_16__tree_node_baseIPvEENS_21__tree_const_iteratorIS5_PNS_11__tree_nodeIS5_SF_EElEERPNS_15__tree_end_nodeISH_EESI_RKT_
000000000011a1b8 W _ZNSt3__16__treeINS_12__value_typeI8llm_archPKcEENS_19__map_value_compareIS2_S5_NS_4lessIS2_EELb1EEENS_9allocatorIS5_EEE7destroyEPNS_11__tree_nodeIS5_PvEE
000000000017c2c8 W _ZNSt3__16__treeINS_12__value_typeI9ggml_typejEENS_19__map_value_compareIS2_S3_NS_4lessIS2_EELb1EEENS_9allocatorIS3_EEE7destroyEPNS_11__tree_nodeIS3_PvEE
00000000001f2ff4 W _ZNSt3__16__treeINS_12__value_typeIc10naive_trieEENS_19__map_value_compareIcS3_NS_4lessIcEELb1EEENS_9allocatorIS3_EEE25__emplace_unique_key_argsIcJNS_4pairIcS2_EEEEENSC_INS_15__tree_iteratorIS3_PNS_11__tree_nodeIS3_PvEElEEbEERKT_DpOT0_
00000000001f3104 W _ZNSt3__16__treeINS_12__value_typeIc10naive_trieEENS_19__map_value_compareIcS3_NS_4lessIcEELb1EEENS_9allocatorIS3_EEE7destroyEPNS_11__tree_nodeIS3_PvEE
000000000020099c W _ZNSt3__16__treeINS_12__value_typeIiiEENS_19__map_value_compareIiS2_NS_4lessIiEELb1EEENS_9allocatorIS2_EEE12__find_equalIiEERPNS_16__tree_node_baseIPvEENS_21__tree_const_iteratorIS2_PNS_11__tree_nodeIS2_SC_EElEERPNS_15__tree_end_nodeISE_EESF_RKT_
0000000000155010 W _ZNSt3__16__treeINS_12__value_typeIiiEENS_19__map_value_compareIiS2_NS_4lessIiEELb1EEENS_9allocatorIS2_EEE7destroyEPNS_11__tree_nodeIS2_PvEE
0000000000133fc8 W _ZNSt3__16__treeINS_12__value_typeIijEENS_19__map_value_compareIiS2_NS_4lessIiEELb1EEENS_9allocatorIS2_EEE7destroyEPNS_11__tree_nodeIS2_PvEE
0000000000200c38 W _ZNSt3__16__treeINS_12__value_typeIiNS_12basic_stringIcNS_11char_traitsIcEENS_9allocatorIcEEEEEENS_19__map_value_compareIiS8_NS_4lessIiEELb1EEENS5_IS8_EEE12__find_equalIiEERPNS_16__tree_node_baseIPvEENS_21__tree_const_iteratorIS8_PNS_11__tree_nodeIS8_SH_EElEERPNS_15__tree_end_nodeISJ_EESK_RKT_
0000000000200b44 W _ZNSt3__16__treeINS_12__value_typeIiNS_12basic_stringIcNS_11char_traitsIcEENS_9allocatorIcEEEEEENS_19__map_value_compareIiS8_NS_4lessIiEELb1EEENS5_IS8_EEE30__emplace_hint_unique_key_argsIiJRKNS_4pairIKiS7_EEEEENSG_INS_15__tree_iteratorIS8_PNS_11__tree_nodeIS8_PvEElEEbEENS_21__tree_const_iteratorIS8_SP_lEERKT_DpOT0_
00000000001d1bd8 W _ZNSt3__16__treeINS_12__value_typeIiNS_12basic_stringIcNS_11char_traitsIcEENS_9allocatorIcEEEEEENS_19__map_value_compareIiS8_NS_4lessIiEELb1EEENS5_IS8_EEE7destroyEPNS_11__tree_nodeIS8_PvEE
00000000001335bc W _ZNSt3__16__treeINS_12__value_typeIiNS_6vectorIfNS_9allocatorIfEEEEEENS_19__map_value_compareIiS6_NS_4lessIiEELb1EEENS3_IS6_EEE7destroyEPNS_11__tree_nodeIS6_PvEE
0000000000155464 W _ZNSt3__16__treeINS_12__value_typeIiP11ggml_tensorEENS_19__map_value_compareIiS4_NS_4lessIiEELb1EEENS_9allocatorIS4_EEE7destroyEPNS_11__tree_nodeIS4_PvEE
00000000001342c4 W _ZNSt3__16__treeINS_12__value_typeIiP13llama_samplerEENS_19__map_value_compareIiS4_NS_4lessIiEELb1EEENS_9allocatorIS4_EEE12__find_equalIiEERPNS_16__tree_node_baseIPvEENS_21__tree_const_iteratorIS4_PNS_11__tree_nodeIS4_SE_EElEERPNS_15__tree_end_nodeISG_EESH_RKT_
0000000000154bc8 W _ZNSt3__16__treeINS_12__value_typeIiP13llama_samplerEENS_19__map_value_compareIiS4_NS_4lessIiEELb1EEENS_9allocatorIS4_EEE14__assign_multiINS_21__tree_const_iteratorIS4_PNS_11__tree_nodeIS4_PvEElEEEEvT_SJ_
000000000013345c W _ZNSt3__16__treeINS_12__value_typeIiP13llama_samplerEENS_19__map_value_compareIiS4_NS_4lessIiEELb1EEENS_9allocatorIS4_EEE7destroyEPNS_11__tree_nodeIS4_PvEE
00000000001428b0 W _ZNSt3__16__treeINS_12__value_typeIjNS_12basic_stringIcNS_11char_traitsIcEENS_9allocatorIcEEEEEENS_19__map_value_compareIjS8_NS_4lessIjEELb1EEENS5_IS8_EEE7destroyEPNS_11__tree_nodeIS8_PvEE
00000000001260ac W _ZNSt3__16__treeINS_12__value_typeINS_12basic_stringIcNS_11char_traitsIcEENS_9allocatorIcEEEE17llm_chat_templateEENS_19__map_value_compareIS7_S9_NS_4lessIS7_EELb1EEENS5_IS9_EEE12__find_equalIS7_EERPNS_16__tree_node_baseIPvEENS_21__tree_const_iteratorIS9_PNS_11__tree_nodeIS9_SI_EElEERPNS_15__tree_end_nodeISK_EESL_RKT_
000000000012636c W _ZNSt3__16__treeINS_12__value_typeINS_12basic_stringIcNS_11char_traitsIcEENS_9allocatorIcEEEE17llm_chat_templateEENS_19__map_value_compareIS7_S9_NS_4lessIS7_EELb1EEENS5_IS9_EEE12__find_equalIS7_EERPNS_16__tree_node_baseIPvEERPNS_15__tree_end_nodeISK_EERKT_
0000000000125fbc W _ZNSt3__16__treeINS_12__value_typeINS_12basic_stringIcNS_11char_traitsIcEENS_9allocatorIcEEEE17llm_chat_templateEENS_19__map_value_compareIS7_S9_NS_4lessIS7_EELb1EEENS5_IS9_EEE30__emplace_hint_unique_key_argsIS7_JRKNS_4pairIKS7_S8_EEEEENSH_INS_15__tree_iteratorIS9_PNS_11__tree_nodeIS9_PvEElEEbEENS_21__tree_const_iteratorIS9_SQ_lEERKT_DpOT0_
000000000012646c W _ZNSt3__16__treeINS_12__value_typeINS_12basic_stringIcNS_11char_traitsIcEENS_9allocatorIcEEEE17llm_chat_templateEENS_19__map_value_compareIS7_S9_NS_4lessIS7_EELb1EEENS5_IS9_EEE7destroyEPNS_11__tree_nodeIS9_PvEE
00000000001176c4 W _ZNSt3__16__treeINS_12__value_typeINS_12basic_stringIcNS_11char_traitsIcEENS_9allocatorIcEEEE25llama_adapter_lora_weightEENS_19__map_value_compareIS7_S9_NS_4lessIS7_EELb1EEENS5_IS9_EEE12__find_equalIS7_EERPNS_16__tree_node_baseIPvEERPNS_15__tree_end_nodeISK_EERKT_
00000000001175d4 W _ZNSt3__16__treeINS_12__value_typeINS_12basic_stringIcNS_11char_traitsIcEENS_9allocatorIcEEEE25llama_adapter_lora_weightEENS_19__map_value_compareIS7_S9_NS_4lessIS7_EELb1EEENS5_IS9_EEE25__emplace_unique_key_argsIS7_JRKNS_21piecewise_construct_tENS_5tupleIJRKS7_EEENSK_IJEEEEEENS_4pairINS_15__tree_iteratorIS9_PNS_11__tree_nodeIS9_PvEElEEbEERKT_DpOT0_
00000000001174dc W _ZNSt3__16__treeINS_12__value_typeINS_12basic_stringIcNS_11char_traitsIcEENS_9allocatorIcEEEE25llama_adapter_lora_weightEENS_19__map_value_compareIS7_S9_NS_4lessIS7_EELb1EEENS5_IS9_EEE4findIS7_EENS_15__tree_iteratorIS9_PNS_11__tree_nodeIS9_PvEElEERKT_
000000000011855c W _ZNSt3__16__treeINS_12__value_typeINS_12basic_stringIcNS_11char_traitsIcEENS_9allocatorIcEEEE25llama_adapter_lora_weightEENS_19__map_value_compareIS7_S9_NS_4lessIS7_EELb1EEENS5_IS9_EEE7destroyEPNS_11__tree_nodeIS9_PvEE
0000000000200590 W _ZNSt3__16__treeINS_12__value_typeINS_12basic_stringIcNS_11char_traitsIcEENS_9allocatorIcEEEEiEENS_19__map_value_compareIS7_S8_NS_4lessIS7_EELb1EEENS5_IS8_EEE12__find_equalIS7_EERPNS_16__tree_node_baseIPvEENS_21__tree_const_iteratorIS8_PNS_11__tree_nodeIS8_SH_EElEERPNS_15__tree_end_nodeISJ_EESK_RKT_
0000000000200850 W _ZNSt3__16__treeINS_12__value_typeINS_12basic_stringIcNS_11char_traitsIcEENS_9allocatorIcEEEEiEENS_19__map_value_compareIS7_S8_NS_4lessIS7_EELb1EEENS5_IS8_EEE12__find_equalIS7_EERPNS_16__tree_node_baseIPvEERPNS_15__tree_end_nodeISJ_EERKT_
00000000002004a0 W _ZNSt3__16__treeINS_12__value_typeINS_12basic_stringIcNS_11char_traitsIcEENS_9allocatorIcEEEEiEENS_19__map_value_compareIS7_S8_NS_4lessIS7_EELb1EEENS5_IS8_EEE30__emplace_hint_unique_key_argsIS7_JRKNS_4pairIKS7_iEEEEENSG_INS_15__tree_iteratorIS8_PNS_11__tree_nodeIS8_PvEElEEbEENS_21__tree_const_iteratorIS8_SP_lEERKT_DpOT0_
0000000000200950 W _ZNSt3__16__treeINS_12__value_typeINS_12basic_stringIcNS_11char_traitsIcEENS_9allocatorIcEEEEiEENS_19__map_value_compareIS7_S8_NS_4lessIS7_EELb1EEENS5_IS8_EEE7destroyEPNS_11__tree_nodeIS8_PvEE
0000000000142498 W _ZNSt3__16__treeINS_12__value_typeINS_12basic_stringIcNS_11char_traitsIcEENS_9allocatorIcEEEEjEENS_19__map_value_compareIS7_S8_NS_4lessIS7_EELb1EEENS5_IS8_EEE12__find_equalIS7_EERPNS_16__tree_node_baseIPvEERPNS_15__tree_end_nodeISJ_EERKT_
0000000000142a64 W _ZNSt3__16__treeINS_12__value_typeINS_12basic_stringIcNS_11char_traitsIcEENS_9allocatorIcEEEEjEENS_19__map_value_compareIS7_S8_NS_4lessIS7_EELb1EEENS5_IS8_EEE4findIS7_EENS_15__tree_iteratorIS8_PNS_11__tree_nodeIS8_PvEElEERKT_
000000000013ed3c W _ZNSt3__16__treeINS_12__value_typeINS_12basic_stringIcNS_11char_traitsIcEENS_9allocatorIcEEEEjEENS_19__map_value_compareIS7_S8_NS_4lessIS7_EELb1EEENS5_IS8_EEE7destroyEPNS_11__tree_nodeIS8_PvEE
000000000017bb1c W _ZNSt3__16__treeINS_12__value_typeINS_12basic_stringIcNS_11char_traitsIcEENS_9allocatorIcEEEEN18llama_model_loader19llama_tensor_weightEEENS_19__map_value_compareIS7_SA_NS8_20weight_name_comparerELb1EEENS5_ISA_EEE25__emplace_unique_key_argsIS7_JRS7_S9_EEENS_4pairINS_15__tree_iteratorISA_PNS_11__tree_nodeISA_PvEElEEbEERKT_DpOT0_
00000000001131c4 W _ZNSt3__16__treeINS_12__value_typeINS_12basic_stringIcNS_11char_traitsIcEENS_9allocatorIcEEEEN18llama_model_loader19llama_tensor_weightEEENS_19__map_value_compareIS7_SA_NS8_20weight_name_comparerELb1EEENS5_ISA_EEE7destroyEPNS_11__tree_nodeISA_PvEE
00000000001ee188 W _ZNSt3__16__treeINS_12__value_typeINS_12basic_stringIcNS_11char_traitsIcEENS_9allocatorIcEEEENS_4pairIiiEEEENS_19__map_value_compareIS7_SA_NS_4lessIS7_EELb1EEENS5_ISA_EEE12__find_equalIS7_EERPNS_16__tree_node_baseIPvEERPNS_15__tree_end_nodeISL_EERKT_
00000000001ee098 W _ZNSt3__16__treeINS_12__value_typeINS_12basic_stringIcNS_11char_traitsIcEENS_9allocatorIcEEEENS_4pairIiiEEEENS_19__map_value_compareIS7_SA_NS_4lessIS7_EELb1EEENS5_ISA_EEE25__emplace_unique_key_argsIS7_JRKNS_21piecewise_construct_tENS_5tupleIJRKS7_EEENSL_IJEEEEEENS8_INS_15__tree_iteratorISA_PNS_11__tree_nodeISA_PvEElEEbEERKT_DpOT0_
00000000001ee4a8 W _ZNSt3__16__treeINS_12__value_typeINS_12basic_stringIcNS_11char_traitsIcEENS_9allocatorIcEEEENS_4pairIiiEEEENS_19__map_value_compareIS7_SA_NS_4lessIS7_EELb1EEENS5_ISA_EEE4findIS7_EENS_15__tree_iteratorISA_PNS_11__tree_nodeISA_PvEElEERKT_
00000000001ee5a0 W _ZNSt3__16__treeINS_12__value_typeINS_12basic_stringIcNS_11char_traitsIcEENS_9allocatorIcEEEENS_4pairIiiEEEENS_19__map_value_compareIS7_SA_NS_4lessIS7_EELb1EEENS5_ISA_EEE7destroyEPNS_11__tree_nodeISA_PvEE
00000000001c7ed4 W _ZNSt3__16__treeINS_12__value_typeIP19ggml_backend_deviceNS_6vectorINS_4pairIS3_P24ggml_backend_buffer_typeEENS_9allocatorIS8_EEEEEENS_19__map_value_compareIS3_SC_NS_4lessIS3_EELb1EEENS9_ISC_EEE7destroyEPNS_11__tree_nodeISC_PvEE
0000000000112720 W _ZNSt3__16__treeINS_12__value_typeIP24ggml_backend_buffer_type27llama_memory_breakdown_dataEENS_19__map_value_compareIS3_S5_NS_4lessIS3_EELb1EEENS_9allocatorIS5_EEE7destroyEPNS_11__tree_nodeIS5_PvEE
0000000000134470 W _ZNSt3__16__treeINS_12__value_typeIP24ggml_backend_buffer_typemEENS_19__map_value_compareIS3_S4_NS_4lessIS3_EELb1EEENS_9allocatorIS4_EEE7destroyEPNS_11__tree_nodeIS4_PvEE
00000000001185a8 W _ZNSt3__16__treeINS_12__value_typeIP24ggml_backend_buffer_typeP12ggml_contextEENS_19__map_value_compareIS3_S6_NS_4lessIS3_EELb1EEENS_9allocatorIS6_EEE7destroyEPNS_11__tree_nodeIS6_PvEE
0000000000134880 W _ZNSt3__16__treeIP24ggml_backend_buffer_typeNS_4lessIS2_EENS_9allocatorIS2_EEE7destroyEPNS_11__tree_nodeIS2_PvEE
00000000001eeff8 W _ZNSt3__16vectorI10llm_symbolNS_9allocatorIS1_EEE18__assign_with_sizeB8ne180100IPS1_S6_EEvT_T0_l
00000000001c1bac W _ZNSt3__16vectorI11llama_layerNS_9allocatorIS1_EEE6resizeEm
00000000001c8450 W _ZNSt3__16vectorI11llama_layerNS_9allocatorIS1_EEE8__appendEm
0000000000167008 W _ZNSt3__16vectorI12llama_ubatchNS_9allocatorIS1_EEE21__push_back_slow_pathIS1_EEPS1_OT_
0000000000164ad0 W _ZNSt3__16vectorI12llama_ubatchNS_9allocatorIS1_EEED2B8ne180100Ev
0000000000167550 W _ZNSt3__16vectorI14llama_kv_cellsNS_9allocatorIS1_EEE21__push_back_slow_pathIS1_EEPS1_OT_
0000000000165f98 W _ZNSt3__16vectorI14llama_kv_cellsNS_9allocatorIS1_EEE8__appendEm
0000000000164168 W _ZNSt3__16vectorI14llama_kv_cellsNS_9allocatorIS1_EEED2B8ne180100Ev
00000000001eea08 W _ZNSt3__16vectorI14llm_bigram_bpeNS_9allocatorIS1_EEE21__push_back_slow_pathIRKS1_EEPS1_OT_
00000000001df628 W _ZNSt3__16vectorI16llama_token_dataNS_9allocatorIS1_EEE8__appendEm
00000000001652fc W _ZNSt3__16vectorI17llama_kv_cell_extNS_9allocatorIS1_EEE8__appendEm
00000000001ff030 W _ZNSt3__16vectorI17unicode_cpt_flagsNS_9allocatorIS1_EEED2B8ne180100Ev
000000000014278c W _ZNSt3__16vectorI21llama_grammar_elementNS_9allocatorIS1_EEE18__assign_with_sizeB8ne180100IPS1_S6_EEvT_T0_l
000000000013e734 W _ZNSt3__16vectorI21llama_grammar_elementNS_9allocatorIS1_EEE18__insert_with_sizeB8ne180100INS_11__wrap_iterIPS1_EES8_EES8_NS6_IPKS1_EET_T0_l
000000000013e590 W _ZNSt3__16vectorI21llama_grammar_elementNS_9allocatorIS1_EEE8__appendEm
00000000001429a4 W _ZNSt3__16vectorI29llama_grammar_trigger_patternNS_9allocatorIS1_EEE16__destroy_vectorclB8ne180100Ev
0000000000142b5c W _ZNSt3__16vectorI29llama_grammar_trigger_patternNS_9allocatorIS1_EEE24__emplace_back_slow_pathIJEEEPS1_DpOT_
00000000001d1a24 W _ZNSt3__16vectorI7no_initIfENS_9allocatorIS2_EEE8__appendEm
000000000017c9d4 W _ZNSt3__16vectorI7no_initIhENS_9allocatorIS2_EEE8__appendEm
000000000012017c W _ZNSt3__16vectorIaNS_9allocatorIaEEE8__appendEm
000000000011f768 W _ZNSt3__16vectorIaNS_9allocatorIaEEE8__appendEmRKa
000000000011e83c W _ZNSt3__16vectorIbNS_9allocatorIbEEE6resizeEmb
000000000011f278 W _ZNSt3__16vectorIbNS_9allocatorIbEEE7reserveEm
00000000001f13ac W _ZNSt3__16vectorIcNS_9allocatorIcEEE18__assign_with_sizeB8ne180100IPKcS6_EEvT_T0_l
00000000001df450 W _ZNSt3__16vectorIcNS_9allocatorIcEEE8__appendEm
00000000001dda94 W _ZNSt3__16vectorIdNS_9allocatorIdEEE13shrink_to_fitEv
0000000000120714 W _ZNSt3__16vectorIfNS_9allocatorIfEEE8__appendEm
0000000000117f28 W _ZNSt3__16vectorIhNS_9allocatorIhEEE8__appendEm
00000000001d1578 W _ZNSt3__16vectorIiNS_9allocatorIiEEE18__assign_with_sizeB8ne180100IPiS5_EEvT_T0_l
00000000001203dc W _ZNSt3__16vectorIiNS_9allocatorIiEEE18__insert_with_sizeB8ne180100INS_11__wrap_iterIPiEES7_EES7_NS5_IPKiEET_T0_l
00000000001de9c8 W _ZNSt3__16vectorIiNS_9allocatorIiEEE6assignEmRKi
0000000000117328 W _ZNSt3__16vectorIiNS_9allocatorIiEEE8__appendEm
000000000011f388 W _ZNSt3__16vectorIiNS_9allocatorIiEEE8__appendEmRKi
00000000001feec0 W _ZNSt3__16vectorIjNS_9allocatorIjEEE12emplace_backIJiEEERjDpOT_
0000000000134018 W _ZNSt3__16vectorIjNS_9allocatorIjEEE8__appendEm
000000000016631c W _ZNSt3__16vectorIjNS_9allocatorIjEEE8__appendEmRKj
0000000000112a5c W _ZNSt3__16vectorIlNS_9allocatorIlEEE18__assign_with_sizeB8ne180100IPlS5_EEvT_T0_l
00000000001c8304 W _ZNSt3__16vectorIN11llama_model4impl9layer_devENS_9allocatorIS3_EEE8__appendEm
00000000001f0b98 W _ZNSt3__16vectorIN11llama_vocab10token_dataENS_9allocatorIS2_EEE8__appendEm
000000000013292c W _ZNSt3__16vectorIN13llama_context9swap_infoENS_9allocatorIS2_EEE9push_backB8ne180100EOS2_
0000000000166960 W _ZNSt3__16vectorIN14llama_kv_cache8kv_layerENS_9allocatorIS2_EEE21__push_back_slow_pathIS2_EEPS2_OT_
00000000001640bc W _ZNSt3__16vectorIN14llama_kv_cache8kv_layerENS_9allocatorIS2_EEED2B8ne180100Ev
0000000000167200 W _ZNSt3__16vectorIN14llama_kv_cache9slot_infoENS_9allocatorIS2_EEE16__destroy_vectorclB8ne180100Ev
00000000001672d4 W _ZNSt3__16vectorIN14llama_kv_cache9slot_infoENS_9allocatorIS2_EEE21__push_back_slow_pathIRKS2_EEPS2_OT_
00000000001650c0 W _ZNSt3__16vectorIN14llama_kv_cache9slot_infoENS_9allocatorIS2_EEE6resizeEm
0000000000168010 W _ZNSt3__16vectorIN14llama_kv_cache9slot_infoENS_9allocatorIS2_EEE8__appendEm
0000000000170df4 W _ZNSt3__16vectorIN22llama_memory_recurrent8mem_cellENS_9allocatorIS2_EEE16__init_with_sizeB8ne180100IPS2_S7_EEvT_T0_m
0000000000170a38 W _ZNSt3__16vectorIN22llama_memory_recurrent8mem_cellENS_9allocatorIS2_EEE8__appendEm
0000000000170920 W _ZNSt3__16vectorIN22llama_memory_recurrent8mem_cellENS_9allocatorIS2_EEED2B8ne180100Ev
000000000013df54 W _ZNSt3__16vectorINS0_I21llama_grammar_elementNS_9allocatorIS1_EEEENS2_IS4_EEE5clearB8ne180100Ev
0000000000142598 W _ZNSt3__16vectorINS0_I21llama_grammar_elementNS_9allocatorIS1_EEEENS2_IS4_EEE8__appendEm
000000000013e130 W _ZNSt3__16vectorINS0_I21llama_grammar_elementNS_9allocatorIS1_EEEENS2_IS4_EEED2B8ne180100Ev
000000000011f098 W _ZNSt3__16vectorINS0_IbNS_9allocatorIbEEEENS1_IS3_EEE8__appendEm
000000000011eb04 W _ZNSt3__16vectorINS0_IbNS_9allocatorIbEEEENS1_IS3_EEED2B8ne180100Ev
00000000001f65d4 W _ZNSt3__16vectorINS0_IiNS_9allocatorIiEEEENS1_IS3_EEE8__appendEmRKS3_
00000000001f0370 W _ZNSt3__16vectorINS0_IiNS_9allocatorIiEEEENS1_IS3_EEEC2EmRKS3_
000000000011ede4 W _ZNSt3__16vectorINS0_IiNS_9allocatorIiEEEENS1_IS3_EEED2B8ne180100Ev
0000000000165c9c W _ZNSt3__16vectorINS0_IjNS_9allocatorIjEEEENS1_IS3_EEE8__appendEm
000000000013ea80 W _ZNSt3__16vectorINS0_IPK21llama_grammar_elementNS_9allocatorIS3_EEEENS4_IS6_EEE24__emplace_back_slow_pathIJRKS6_EEEPS6_DpOT_
000000000014aaa0 W _ZNSt3__16vectorINS0_IPK21llama_grammar_elementNS_9allocatorIS3_EEEENS4_IS6_EEE24__emplace_back_slow_pathIJRS6_EEEPS6_DpOT_
000000000013dfa4 W _ZNSt3__16vectorINS0_IPK21llama_grammar_elementNS_9allocatorIS3_EEEENS4_IS6_EEE7reserveEm
000000000013e0c4 W _ZNSt3__16vectorINS0_IPK21llama_grammar_elementNS_9allocatorIS3_EEEENS4_IS6_EEED2B8ne180100Ev
000000000017b884 W _ZNSt3__16vectorINS_10unique_ptrI10llama_fileNS_14default_deleteIS2_EEEENS_9allocatorIS5_EEE24__emplace_back_slow_pathIJPS2_EEEPS5_DpOT_
0000000000179524 W _ZNSt3__16vectorINS_10unique_ptrI10llama_fileNS_14default_deleteIS2_EEEENS_9allocatorIS5_EEED2B8ne180100Ev
000000000017c4d8 W _ZNSt3__16vectorINS_10unique_ptrI10llama_mmapNS_14default_deleteIS2_EEEENS_9allocatorIS5_EEE24__emplace_back_slow_pathIJS5_EEEPS5_DpOT_
00000000001795a0 W _ZNSt3__16vectorINS_10unique_ptrI10llama_mmapNS_14default_deleteIS2_EEEENS_9allocatorIS5_EEE7reserveEm
00000000001794a8 W _ZNSt3__16vectorINS_10unique_ptrI10llama_mmapNS_14default_deleteIS2_EEEENS_9allocatorIS5_EEED2B8ne180100Ev
00000000001c8c1c W _ZNSt3__16vectorINS_10unique_ptrI11llama_mlockNS_14default_deleteIS2_EEEENS_9allocatorIS5_EEE24__emplace_back_slow_pathIJPS2_EEEPS5_DpOT_
000000000017c318 W _ZNSt3__16vectorINS_10unique_ptrI11llama_mlockNS_14default_deleteIS2_EEEENS_9allocatorIS5_EEE24__emplace_back_slow_pathIJS5_EEEPS5_DpOT_
0000000000133608 W _ZNSt3__16vectorINS_10unique_ptrI12ggml_backend20ggml_backend_deleterEENS_9allocatorIS4_EEE24__emplace_back_slow_pathIJRPS2_EEEPS4_DpOT_
0000000000132680 W _ZNSt3__16vectorINS_10unique_ptrI12ggml_backend20ggml_backend_deleterEENS_9allocatorIS4_EEED2B8ne180100Ev
0000000000116408 W _ZNSt3__16vectorINS_10unique_ptrI12ggml_context20ggml_context_deleterEENS_9allocatorIS4_EEE24__emplace_back_slow_pathIJRPS2_EEEPS4_DpOT_
00000000001165e4 W _ZNSt3__16vectorINS_10unique_ptrI12ggml_context20ggml_context_deleterEENS_9allocatorIS4_EEE7reserveEm
00000000001793e0 W _ZNSt3__16vectorINS_10unique_ptrI12ggml_context20ggml_context_deleterEENS_9allocatorIS4_EEED2B8ne180100Ev
00000000001d14b8 W _ZNSt3__16vectorINS_10unique_ptrI12gguf_context20gguf_context_deleterEENS_9allocatorIS4_EEED2B8ne180100Ev
00000000001554a4 W _ZNSt3__16vectorINS_10unique_ptrI17llm_graph_input_iNS_14default_deleteIS2_EEEENS_9allocatorIS5_EEE24__emplace_back_slow_pathIJS5_EEEPS5_DpOT_
00000000001540cc W _ZNSt3__16vectorINS_10unique_ptrI17llm_graph_input_iNS_14default_deleteIS2_EEEENS_9allocatorIS5_EEED2B8ne180100Ev
00000000001185f8 W _ZNSt3__16vectorINS_10unique_ptrI19ggml_backend_buffer27ggml_backend_buffer_deleterEENS_9allocatorIS4_EEE24__emplace_back_slow_pathIJRPS2_EEEPS4_DpOT_
0000000000117d70 W _ZNSt3__16vectorINS_10unique_ptrI19ggml_backend_buffer27ggml_backend_buffer_deleterEENS_9allocatorIS4_EEE24__emplace_back_slow_pathIJS4_EEEPS4_DpOT_
0000000000115fb4 W _ZNSt3__16vectorINS_10unique_ptrI19ggml_backend_buffer27ggml_backend_buffer_deleterEENS_9allocatorIS4_EEE7reserveEm
00000000001c1e7c W _ZNSt3__16vectorINS_10unique_ptrI19ggml_backend_buffer27ggml_backend_buffer_deleterEENS_9allocatorIS4_EEED2B8ne180100Ev
00000000001f28b4 W _ZNSt3__16vectorINS_12basic_stringIcNS_11char_traitsIcEENS_9allocatorIcEEEENS4_IS6_EEE18__assign_with_sizeB8ne180100IPKS6_SB_EEvT_T0_l
0000000000112770 W _ZNSt3__16vectorINS_12basic_stringIcNS_11char_traitsIcEENS_9allocatorIcEEEENS4_IS6_EEE21__push_back_slow_pathIRKS6_EEPS6_OT_
0000000000113210 W _ZNSt3__16vectorINS_12basic_stringIcNS_11char_traitsIcEENS_9allocatorIcEEEENS4_IS6_EEE21__push_back_slow_pathIS6_EEPS6_OT_
00000000001ef45c W _ZNSt3__16vectorINS_12basic_stringIcNS_11char_traitsIcEENS_9allocatorIcEEEENS4_IS6_EEE24__emplace_back_slow_pathIJEEEPS6_DpOT_
0000000000179950 W _ZNSt3__16vectorINS_12basic_stringIcNS_11char_traitsIcEENS_9allocatorIcEEEENS4_IS6_EEE24__emplace_back_slow_pathIJRKS6_EEEPS6_DpOT_
00000000002002e0 W _ZNSt3__16vectorINS_12basic_stringIcNS_11char_traitsIcEENS_9allocatorIcEEEENS4_IS6_EEE24__emplace_back_slow_pathIJRS6_EEEPS6_DpOT_
0000000000112428 W _ZNSt3__16vectorINS_12basic_stringIcNS_11char_traitsIcEENS_9allocatorIcEEEENS4_IS6_EEE7reserveEm
0000000000132f14 W _ZNSt3__16vectorINS_12basic_stringIcNS_11char_traitsIcEENS_9allocatorIcEEEENS4_IS6_EEEC2B8ne180100ESt16initializer_listIS6_E
00000000001123bc W _ZNSt3__16vectorINS_12basic_stringIcNS_11char_traitsIcEENS_9allocatorIcEEEENS4_IS6_EEED2B8ne180100Ev
000000000020813c W _ZNSt3__16vectorINS_12basic_stringIwNS_11char_traitsIwEENS_9allocatorIwEEEENS4_IS6_EEE21__push_back_slow_pathIRKS6_EEPS6_OT_
0000000000205548 W _ZNSt3__16vectorINS_12basic_stringIwNS_11char_traitsIwEENS_9allocatorIwEEEENS4_IS6_EEED2B8ne180100Ev
000000000011ee90 W _ZNSt3__16vectorINS_3setIiNS_4lessIiEENS_9allocatorIiEEEENS4_IS6_EEE8__appendEm
000000000011eb64 W _ZNSt3__16vectorINS_3setIiNS_4lessIiEENS_9allocatorIiEEEENS4_IS6_EEED2B8ne180100Ev
0000000000142028 W _ZNSt3__16vectorINS_4pairImPKcEENS_9allocatorIS4_EEE18__assign_with_sizeB8ne180100IPS4_S9_EEvT_T0_l
0000000000140d5c W _ZNSt3__16vectorINS_4pairImPKcEENS_9allocatorIS4_EEE8__appendEm
000000000020c38c W _ZNSt3__16vectorINS_4pairImPKwEENS_9allocatorIS4_EEE18__assign_with_sizeB8ne180100IPS4_S9_EEvT_T0_l
0000000000203e1c W _ZNSt3__16vectorINS_4pairImPKwEENS_9allocatorIS4_EEE8__appendEm
000000000014a858 W _ZNSt3__16vectorINS_4pairINS0_IjNS_9allocatorIjEEEE18llama_partial_utf8EENS2_IS6_EEE21__push_back_slow_pathIS6_EEPS6_OT_
000000000013e40c W _ZNSt3__16vectorINS_4pairINS0_IjNS_9allocatorIjEEEE18llama_partial_utf8EENS2_IS6_EEE7reserveEm
000000000013e514 W _ZNSt3__16vectorINS_4pairINS0_IjNS_9allocatorIjEEEE18llama_partial_utf8EENS2_IS6_EEED2B8ne180100Ev
00000000001c8dcc W _ZNSt3__16vectorINS_4pairINS_10unique_ptrI12ggml_context20ggml_context_deleterEENS0_INS2_I19ggml_backend_buffer27ggml_backend_buffer_deleterEENS_9allocatorIS8_EEEEEENS9_ISC_EEE24__emplace_back_slow_pathIJS5_SB_EEEPSC_DpOT_
00000000001c1d7c W _ZNSt3__16vectorINS_4pairINS_10unique_ptrI12ggml_context20ggml_context_deleterEENS0_INS2_I19ggml_backend_buffer27ggml_backend_buffer_deleterEENS_9allocatorIS8_EEEEEENS9_ISC_EEE7reserveEm
0000000000165e80 W _ZNSt3__16vectorINS_4pairINS_10unique_ptrI12ggml_context20ggml_context_deleterEENS2_I19ggml_backend_buffer27ggml_backend_buffer_deleterEEEENS_9allocatorIS9_EEE16__destroy_vectorclB8ne180100Ev
0000000000166e14 W _ZNSt3__16vectorINS_4pairINS_10unique_ptrI12ggml_context20ggml_context_deleterEENS2_I19ggml_backend_buffer27ggml_backend_buffer_deleterEEEENS_9allocatorIS9_EEE24__emplace_back_slow_pathIJS5_RPS6_EEEPS9_DpOT_
00000000001c9540 W _ZNSt3__16vectorINS_4pairINS_12basic_stringIcNS_11char_traitsIcEENS_9allocatorIcEEEEP11ggml_tensorEENS5_ISA_EEE24__emplace_back_slow_pathIJPKcRS9_EEEPSA_DpOT_
00000000001c1ad0 W _ZNSt3__16vectorINS_4pairINS_12basic_stringIcNS_11char_traitsIcEENS_9allocatorIcEEEEP11ggml_tensorEENS5_ISA_EEED2B8ne180100Ev
000000000014906c W _ZNSt3__16vectorINS_4pairINS_12basic_stringIcNS_11char_traitsIcEENS_9allocatorIcEEEES7_EENS5_IS8_EEE21__push_back_slow_pathIS8_EEPS8_OT_
00000000001460f8 W _ZNSt3__16vectorINS_4pairINS_12basic_stringIcNS_11char_traitsIcEENS_9allocatorIcEEEES7_EENS5_IS8_EEED2B8ne180100Ev
0000000000208ba8 W _ZNSt3__16vectorINS_4pairINS_12basic_stringIwNS_11char_traitsIwEENS_9allocatorIwEEEES7_EENS5_IS8_EEE21__push_back_slow_pathIS8_EEPS8_OT_
00000000002055b4 W _ZNSt3__16vectorINS_4pairINS_12basic_stringIwNS_11char_traitsIwEENS_9allocatorIwEEEES7_EENS5_IS8_EEED2B8ne180100Ev
00000000001c8f2c W _ZNSt3__16vectorINS_4pairIP12ggml_contextNS_13unordered_mapIjP19ggml_backend_bufferNS_4hashIjEENS_8equal_toIjEENS_9allocatorINS1_IKjS6_EEEEEEEENSB_ISG_EEE24__emplace_back_slow_pathIJRS3_RSF_EEEPSG_DpOT_
00000000001c1bf0 W _ZNSt3__16vectorINS_4pairIP12ggml_contextNS_13unordered_mapIjP19ggml_backend_bufferNS_4hashIjEENS_8equal_toIjEENS_9allocatorINS1_IKjS6_EEEEEEEENSB_ISG_EEE7reserveEm
00000000001c1f2c W _ZNSt3__16vectorINS_4pairIP12ggml_contextNS_13unordered_mapIjP19ggml_backend_bufferNS_4hashIjEENS_8equal_toIjEENS_9allocatorINS1_IKjS6_EEEEEEEENSB_ISG_EEED2B8ne180100Ev
00000000001c7f94 W _ZNSt3__16vectorINS_4pairIP19ggml_backend_deviceP24ggml_backend_buffer_typeEENS_9allocatorIS6_EEE18__insert_with_sizeB8ne180100INS_11__wrap_iterIPS6_EESD_EESD_NSB_IPKS6_EET_T0_l
00000000001344c0 W _ZNSt3__16vectorINS_5arrayINS_12basic_stringIcNS_11char_traitsIcEENS_9allocatorIcEEEELm9EEENS5_IS8_EEE21__push_back_slow_pathIS8_EEPS8_OT_
0000000000132c60 W _ZNSt3__16vectorINS_5arrayINS_12basic_stringIcNS_11char_traitsIcEENS_9allocatorIcEEEELm9EEENS5_IS8_EEE7reserveEm
0000000000133018 W _ZNSt3__16vectorINS_5arrayINS_12basic_stringIcNS_11char_traitsIcEENS_9allocatorIcEEEELm9EEENS5_IS8_EEED2B8ne180100Ev
00000000001654b0 W _ZNSt3__16vectorINS_6bitsetILm256EEENS_9allocatorIS2_EEE8__appendEm
000000000017c7b8 W _ZNSt3__16vectorINS_6futureINS_4pairIP11ggml_tensorbEEEENS_9allocatorIS6_EEE24__emplace_back_slow_pathIJS6_EEEPS6_DpOT_
0000000000179768 W _ZNSt3__16vectorINS_6futureINS_4pairIP11ggml_tensorbEEEENS_9allocatorIS6_EEED2B8ne180100Ev
00000000001d1320 W _ZNSt3__16vectorINS_6threadENS_9allocatorIS1_EEE7reserveEm
00000000001d1520 W _ZNSt3__16vectorINS_6threadENS_9allocatorIS1_EEED2B8ne180100Ev
00000000001409b8 W _ZNSt3__16vectorINS_7__stateIcEENS_9allocatorIS2_EEE21__push_back_slow_pathIS2_EEPS2_OT_
0000000000140940 W _ZNSt3__16vectorINS_7__stateIcEENS_9allocatorIS2_EEED2B8ne180100Ev
0000000000203a88 W _ZNSt3__16vectorINS_7__stateIwEENS_9allocatorIS2_EEE21__push_back_slow_pathIS2_EEPS2_OT_
0000000000203a10 W _ZNSt3__16vectorINS_7__stateIwEENS_9allocatorIS2_EEED2B8ne180100Ev
0000000000142300 W _ZNSt3__16vectorINS_9sub_matchINS_11__wrap_iterIPKcEEEENS_9allocatorIS6_EEE8__appendEm
000000000020c664 W _ZNSt3__16vectorINS_9sub_matchINS_11__wrap_iterIPKwEEEENS_9allocatorIS6_EEE8__appendEm
0000000000141e48 W _ZNSt3__16vectorINS_9sub_matchIPKcEENS_9allocatorIS4_EEE18__assign_with_sizeB8ne180100IPS4_S9_EEvT_T0_l
000000000013f314 W _ZNSt3__16vectorINS_9sub_matchIPKcEENS_9allocatorIS4_EEE6assignEmRKS4_
0000000000140ba8 W _ZNSt3__16vectorINS_9sub_matchIPKcEENS_9allocatorIS4_EEE8__appendEmRKS4_
000000000020c1ac W _ZNSt3__16vectorINS_9sub_matchIPKwEENS_9allocatorIS4_EEE18__assign_with_sizeB8ne180100IPS4_S9_EEvT_T0_l
000000000020369c W _ZNSt3__16vectorINS_9sub_matchIPKwEENS_9allocatorIS4_EEE6assignEmRKS4_
0000000000203c78 W _ZNSt3__16vectorINS_9sub_matchIPKwEENS_9allocatorIS4_EEE8__appendEmRKS4_
0000000000170c50 W _ZNSt3__16vectorIP11ggml_tensorNS_9allocatorIS2_EEE8__appendEm
00000000001125ec W _ZNSt3__16vectorIP19ggml_backend_deviceNS_9allocatorIS2_EEE18__assign_with_sizeB8ne180100IPS2_S7_EEvT_T0_l
0000000000112ce4 W _ZNSt3__16vectorIP19ggml_backend_deviceNS_9allocatorIS2_EEE18__insert_with_sizeB8ne180100INS_11__wrap_iterIPS2_EES9_EES9_NS7_IPKS2_EET_T0_l
0000000000112bc0 W _ZNSt3__16vectorIP24ggml_backend_buffer_typeNS_9allocatorIS2_EEE18__assign_with_sizeB8ne180100IPS2_S7_EEvT_T0_l
000000000011f5b4 W _ZNSt3__16vectorIPiNS_9allocatorIS1_EEE8__appendEm
0000000000113374 W _ZNSt3__16vectorIPK18llama_chat_messageNS_9allocatorIS3_EEE8__appendEm
0000000000165a28 W _ZNSt3__17__countB8ne180100INS_17_ClassicAlgPolicyENS_8__bitsetILm4ELm256EEELb1EbNS_10__identityETnNS_9enable_ifIXsr13__is_identityIT3_EE5valueEiE4typeELi0EEENS_15iterator_traitsINS_14__bit_iteratorIT0_XT1_ELi0EEEE15difference_typeESC_SC_RKT2_RS6_
00000000001f53e4 W _ZNSt3__17__sort3B8ne180100INS_17_ClassicAlgPolicyERZN20llm_tokenizer_plamo25buildERK11llama_vocabEUlRKNS_12basic_stringIcNS_11char_traitsIcEENS_9allocatorIcEEEESD_E_PSB_EEjT1_SH_SH_T0_
00000000001f5b90 W _ZNSt3__17__sort5B8ne180100INS_17_ClassicAlgPolicyERZN20llm_tokenizer_plamo25buildERK11llama_vocabEUlRKNS_12basic_stringIcNS_11char_traitsIcEENS_9allocatorIcEEEESD_E_PSB_EEvT1_SH_SH_SH_SH_T0_
000000000014078c W _ZNSt3__17__stateIcEC2ERKS1_
0000000000140710 W _ZNSt3__17__stateIcED2Ev
00000000002038a4 W _ZNSt3__17__stateIwEC2ERKS1_
0000000000203870 W _ZNSt3__17__stateIwED2Ev
0000000000165f14 W _ZNSt3__19allocatorI14llama_kv_cellsE7destroyB8ne180100EPS1_
0000000000166200 W _ZNSt3__19allocatorI14llama_kv_cellsE9constructB8ne180100IS1_JS1_EEEvPT_DpOT0_
00000000001c7f20 W _ZNSt3__19allocatorINS_4pairINS_10unique_ptrI12ggml_context20ggml_context_deleterEENS_6vectorINS2_I19ggml_backend_buffer27ggml_backend_buffer_deleterEENS0_IS9_EEEEEEE7destroyB8ne180100EPSC_
00000000001eec68 W _ZNSt3__19__sift_upB8ne180100INS_17_ClassicAlgPolicyERN14llm_bigram_bpe10comparatorENS_11__wrap_iterIPS2_EEEEvT1_S8_OT0_NS_15iterator_traitsIS8_E15difference_typeE
00000000001f60ac W _ZNSt3__19__sift_upB8ne180100INS_17_ClassicAlgPolicyERZN20llm_tokenizer_plamo25buildERK11llama_vocabEUlRKNS_12basic_stringIcNS_11char_traitsIcEENS_9allocatorIcEEEESD_E_PSB_EEvT1_SH_OT0_NS_15iterator_traitsISH_E15difference_typeE
0000000000125ea8 W _ZNSt3__1eqB8ne180100IcNS_11char_traitsIcEENS_9allocatorIcEEEEbRKNS_12basic_stringIT_T0_T1_EEPKS6_
00000000001f1108 W _ZNSt3__1eqB8ne180100INS_12basic_stringIcNS_11char_traitsIcEENS_9allocatorIcEEEES6_S6_S6_EEbRKNS_4pairIT_T0_EERKNS7_IT1_T2_EE
0000000000125f24 W _ZNSt3__1lsB8ne180100IcNS_11char_traitsIcEENS_9allocatorIcEEEERNS_13basic_ostreamIT_T0_EES9_RKNS_12basic_stringIS6_S7_T1_EE
0000000000125f40 W _ZNSt3__1neB8ne180100IcNS_11char_traitsIcEENS_9allocatorIcEEEEbRKNS_12basic_stringIT_T0_T1_EEPKS6_
000000000013df10 W _ZNSt3__1plB8ne180100IcNS_11char_traitsIcEENS_9allocatorIcEEEENS_12basic_stringIT_T0_T1_EEOS9_SA_
00000000001ed618 W _ZNSt3__1plB8ne180100IcNS_11char_traitsIcEENS_9allocatorIcEEEENS_12basic_stringIT_T0_T1_EERKS9_PKS6_
00000000001ee8f8 W _ZNSt3__1plB8ne180100IcNS_11char_traitsIcEENS_9allocatorIcEEEENS_12basic_stringIT_T0_T1_EERKS9_SB_
                 U _Znwm
00000000002b8710 V _ZTI13llm_build_mpt
00000000002b8bf0 V _ZTI13llm_build_plm
00000000002b6e50 V _ZTI13llm_tokenizer
00000000002b5f90 D _ZTI14llama_kv_cache
00000000002b6008 V _ZTI14llama_memory_i
00000000002b78b8 V _ZTI14llm_build_bert
00000000002b7ab0 V _ZTI14llm_build_dbrx
00000000002b7ae8 V _ZTI14llm_build_deci
00000000002b7fd0 V _ZTI14llm_build_glm4
00000000002b8008 V _ZTI14llm_build_gpt2
00000000002b80e8 V _ZTI14llm_build_grok
00000000002b8200 V _ZTI14llm_build_jais
00000000002b8318 V _ZTI14llm_build_lfm2ILb0EE
00000000002b8300 V _ZTI14llm_build_lfm2ILb1EE
00000000002b87f0 V _ZTI14llm_build_olmo
00000000002b89e8 V _ZTI14llm_build_phi2
00000000002b8a40 V _ZTI14llm_build_phi3ILb0EE
00000000002b8a58 V _ZTI14llm_build_phi3ILb1EE
00000000002b8c28 V _ZTI14llm_build_qwen
00000000002b8ec8 V _ZTI14llm_build_rnd1
00000000002b4f38 V _ZTI15llama_io_read_i
00000000002b76e0 V _ZTI15llm_build_afmoe
00000000002b7750 V _ZTI15llm_build_arcee
00000000002b7928 V _ZTI15llm_build_bloom
00000000002b7bc8 V _ZTI15llm_build_dots1
00000000002b7c00 V _ZTI15llm_build_dream
00000000002b7e80 V _ZTI15llm_build_gemma
00000000002b8238 V _ZTI15llm_build_jais2
00000000002b8270 V _ZTI15llm_build_jamba
00000000002b8388 V _ZTI15llm_build_llada
00000000002b8418 V _ZTI15llm_build_llamaILb0EE
00000000002b8430 V _ZTI15llm_build_llamaILb1EE
00000000002b85c0 V _ZTI15llm_build_mamba
00000000002b8848 V _ZTI15llm_build_olmo2ILb0EE
00000000002b8860 V _ZTI15llm_build_olmo2ILb1EE
00000000002b8898 V _ZTI15llm_build_olmoe
00000000002b8940 V _ZTI15llm_build_orion
00000000002b8a90 V _ZTI15llm_build_plamo
00000000002b8c60 V _ZTI15llm_build_qwen2
00000000002b8d08 V _ZTI15llm_build_qwen3
00000000002b8f38 V _ZTI15llm_build_rwkv6
00000000002b8fc8 V _ZTI15llm_build_rwkv7
00000000002b4e88 V _ZTI16llama_io_write_i
00000000002b7788 V _ZTI16llm_build_arctic
00000000002b77d8 V _ZTI16llm_build_arwkv7
00000000002b78f0 V _ZTI16llm_build_bitnet
00000000002b7a08 V _ZTI16llm_build_cogvlm
00000000002b7d18 V _ZTI16llm_build_exaone
00000000002b7e10 V _ZTI16llm_build_falcon
00000000002b7f10 V _ZTI16llm_build_gemma3ILb0EE
00000000002b7f28 V _ZTI16llm_build_gemma3ILb1EE
00000000002b8ac8 V _ZTI16llm_build_plamo2
00000000002b8ba0 V _ZTI16llm_build_plamo3ILb0EE
00000000002b8bb8 V _ZTI16llm_build_plamo3ILb1EE
00000000002b8d40 V _ZTI16llm_build_qwen35
00000000002b8e90 V _ZTI16llm_build_refact
00000000002b91c0 V _ZTI16llm_build_t5_dec
00000000002b91f8 V _ZTI16llm_build_t5_enc
00000000002b9268 V _ZTI16llm_build_xverse
00000000002b5d78 V _ZTI16llm_graph_result
00000000002b7718 V _ZTI17llm_build_apertus
00000000002b7998 V _ZTI17llm_build_chatglm
00000000002b7d70 V _ZTI17llm_build_exaone4ILb0EE
00000000002b7d88 V _ZTI17llm_build_exaone4ILb1EE
00000000002b8040 V _ZTI17llm_build_gptneox
00000000002b80b0 V _ZTI17llm_build_granite
00000000002b8908 V _ZTI17llm_build_openelm
00000000002b8cd0 V _ZTI17llm_build_qwen2vl
00000000002b8e58 V _ZTI17llm_build_qwen3vl
00000000002b90a8 V _ZTI17llm_build_smollm3
00000000002b5d88 V _ZTI17llm_graph_context
00000000002b5d68 V _ZTI17llm_graph_input_i
00000000002b6e98 V _ZTI17llm_tokenizer_bpe
00000000002b6e60 V _ZTI17llm_tokenizer_spm
00000000002b6f08 V _ZTI17llm_tokenizer_ugm
00000000002b6ed0 V _ZTI17llm_tokenizer_wpm
00000000002b4f98 V _ZTI18llama_io_read_file
00000000002b7810 V _ZTI18llm_build_baichuan
00000000002b7b20 V _ZTI18llm_build_deepseek
00000000002b7c70 V _ZTI18llm_build_ernie4_5
00000000002b7ca8 V _ZTI18llm_build_eurobert
00000000002b7f98 V _ZTI18llm_build_glm4_moe
00000000002b8120 V _ZTI18llm_build_grovemoe
00000000002b8630 V _ZTI18llm_build_minicpm3
00000000002b86a0 V _ZTI18llm_build_mistral3
00000000002b8780 V _ZTI18llm_build_nemotron
00000000002b87b8 V _ZTI18llm_build_neo_bert
00000000002b8c98 V _ZTI18llm_build_qwen2moe
00000000002b8db0 V _ZTI18llm_build_qwen3moe
00000000002b9000 V _ZTI18llm_build_seed_oss
00000000002b90e0 V _ZTI18llm_build_stablelm
00000000002b5a80 D _ZTI18llm_graph_input_rs
00000000002b6f40 V _ZTI18llm_tokenizer_rwkv
00000000002b4fe8 V _ZTI19llama_io_write_file
00000000002b6100 D _ZTI19llama_kv_cache_iswa
00000000002b6318 D _ZTI19llama_memory_hybrid
00000000002b7960 V _ZTI19llm_build_chameleon
00000000002b79d0 V _ZTI19llm_build_codeshell
00000000002b7a78 V _ZTI19llm_build_command_r
00000000002b7b58 V _ZTI19llm_build_deepseek2
00000000002b7dd8 V _ZTI19llm_build_falcon_h1
00000000002b81c8 V _ZTI19llm_build_internlm2
00000000002b8350 V _ZTI19llm_build_llada_moe
00000000002b8468 V _ZTI19llm_build_maincoder
00000000002b8978 V _ZTI19llm_build_paddleocr
00000000002b8d78 V _ZTI19llm_build_qwen35moe
00000000002b8de8 V _ZTI19llm_build_qwen3next
00000000002b9118 V _ZTI19llm_build_starcoder
00000000002b5a38 D _ZTI19llm_graph_input_cls
00000000002b5888 D _ZTI19llm_graph_input_pos
00000000002b4f48 V _ZTI20llama_io_read_buffer
00000000002b4e98 V _ZTI20llama_io_write_dummy
00000000002b7848 V _ZTI20llm_build_bailingmoe
00000000002b7ce0 V _ZTI20llm_build_exaone_moe
00000000002b83c0 V _ZTI20llm_build_llama_iswa
00000000002b7dc0 V _ZTI20llm_build_mamba_base
00000000002b85f8 V _ZTI20llm_build_mimo2_iswa
00000000002b8668 V _ZTI20llm_build_minimax_m2
00000000002b8748 V _ZTI20llm_build_nemotron_h
00000000002b8e20 V _ZTI20llm_build_qwen3vlmoe
00000000002b8f00 V _ZTI20llm_build_rwkv6_base
00000000002b8f70 V _ZTI20llm_build_rwkv6qwen2
00000000002b77c0 V _ZTI20llm_build_rwkv7_base
00000000002b9150 V _ZTI20llm_build_starcoder2
00000000002b5840 D _ZTI20llm_graph_input_embd
00000000002b59f0 D _ZTI20llm_graph_input_mean
00000000002b6f78 V _ZTI20llm_tokenizer_plamo2
00000000002b4ee8 V _ZTI21llama_io_write_buffer
00000000002b7880 V _ZTI21llm_build_bailingmoe2
00000000002b7eb8 V _ZTI21llm_build_gemma2_iswa
00000000002b8190 V _ZTI21llm_build_hunyuan_moe
00000000002b82a8 V _ZTI21llm_build_kimi_linear
00000000002b86d8 V _ZTI21llm_build_modern_bert
00000000002b9188 V _ZTI21llm_build_step35_iswa
00000000002b5ff0 D _ZTI22llama_kv_cache_context
00000000002b6018 V _ZTI22llama_memory_context_i
00000000002b6728 D _ZTI22llama_memory_recurrent
00000000002b7a40 V _ZTI22llm_build_cohere2_iswa
00000000002b7c38 V _ZTI22llm_build_ernie4_5_moe
00000000002b7f60 V _ZTI22llm_build_gemma3n_iswa
00000000002b9058 V _ZTI22llm_build_smallthinkerILb0EE
00000000002b9070 V _ZTI22llm_build_smallthinkerILb1EE
00000000002b5ba0 D _ZTI22llm_graph_input_attn_k
00000000002b8158 V _ZTI23llm_build_hunyuan_dense
00000000002b5b58 D _ZTI23llm_graph_input_attn_kv
00000000002b5fd8 D _ZTI23llm_graph_input_k_shift
00000000002b59a8 D _ZTI23llm_graph_input_out_ids
00000000002b6520 D _ZTI24llama_memory_hybrid_iswa
00000000002b7b90 V _ZTI24llm_build_delta_net_base
00000000002b8078 V _ZTI24llm_build_granite_hybrid
00000000002b89b0 V _ZTI24llm_build_pangu_embedded
00000000002b5d50 D _ZTI24llm_graph_input_sampling
00000000002b7e48 V _ZTI25llm_build_gemma_embedding
00000000002b88d0 V _ZTI25llm_build_openai_moe_iswa
00000000002b58d0 D _ZTI25llm_graph_input_attn_temp
00000000002b2e80 V _ZTI26llama_params_fit_exception
00000000002b9230 V _ZTI26llm_build_wavtokenizer_dec
00000000002b5c30 D _ZTI26llm_graph_input_attn_cross
00000000002b5ac8 D _ZTI26llm_graph_input_cross_embd
00000000002b5c78 D _ZTI26llm_graph_input_mem_hybrid
00000000002b5918 D _ZTI26llm_graph_input_pos_bucket
00000000002b6118 D _ZTI27llama_kv_cache_iswa_context
00000000002b6330 D _ZTI27llama_memory_hybrid_context
00000000002b5be8 D _ZTI28llm_graph_input_attn_kv_iswa
00000000002b5cc0 D _ZTI28llm_graph_input_mem_hybrid_k
00000000002b5b10 D _ZTI29llm_graph_input_attn_no_cache
00000000002b5960 D _ZTI29llm_graph_input_pos_bucket_kv
00000000002b6740 D _ZTI30llama_memory_recurrent_context
00000000002b5d08 D _ZTI31llm_graph_input_mem_hybrid_iswa
00000000002b6538 D _ZTI32llama_memory_hybrid_iswa_context
00000000002b5e88 V _ZTIFP11ggml_tensorP12ggml_contextS0_S0_E
00000000002b5530 V _ZTINSt3__110__back_refIcEE
00000000002b7420 V _ZTINSt3__110__back_refIwEE
00000000002b6230 V _ZTINSt3__110__function6__baseIFbiEEE
00000000002b6e08 V _ZTINSt3__110__function6__baseIFiiEEE
00000000002b6df8 V _ZTINSt3__110__function6__baseIFjjEEE
00000000002b5e60 V _ZTINSt3__110__function6__baseIFP11ggml_tensorP12ggml_contextS3_S3_EEE
00000000002b50d0 V _ZTINSt3__110__function6__baseIFvRK12llama_ubatchP11ggml_tensorPKciEEE
00000000002b5e70 V _ZTINSt3__110__function6__funcIPFP11ggml_tensorP12ggml_contextS3_S3_ENS_9allocatorIS7_EES6_EE
00000000002b5728 V _ZTINSt3__111__alternateIcEE
00000000002b7618 V _ZTINSt3__111__alternateIwEE
00000000002b5120 V _ZTINSt3__111__end_stateIcEE
00000000002b7010 V _ZTINSt3__111__end_stateIwEE
00000000002b5338 V _ZTINSt3__111__lookaheadIcNS_12regex_traitsIcEEEE
00000000002b7228 V _ZTINSt3__111__lookaheadIwNS_12regex_traitsIwEEEE
00000000002b57b8 V _ZTINSt3__111__match_anyIcEE
00000000002b76a8 V _ZTINSt3__111__match_anyIwEE
00000000002b5458 V _ZTINSt3__112__match_charIcEE
00000000002b7348 V _ZTINSt3__112__match_charIwEE
00000000002b6820 V _ZTINSt3__113__assoc_stateINS_4pairIP11ggml_tensorbEEEE
00000000002b51e8 V _ZTINSt3__113__empty_stateIcEE
00000000002b70d8 V _ZTINSt3__113__empty_stateIwEE
00000000002b51b8 V _ZTINSt3__115__has_one_stateIcEE
00000000002b70a8 V _ZTINSt3__115__has_one_stateIwEE
00000000002b52f0 V _ZTINSt3__115__word_boundaryIcNS_12regex_traitsIcEEEE
00000000002b71e0 V _ZTINSt3__115__word_boundaryIwNS_12regex_traitsIwEEEE
00000000002b54a0 V _ZTINSt3__116__back_ref_icaseIcNS_12regex_traitsIcEEEE
00000000002b7390 V _ZTINSt3__116__back_ref_icaseIwNS_12regex_traitsIwEEEE
00000000002b51d0 V _ZTINSt3__116__owns_one_stateIcEE
00000000002b70c0 V _ZTINSt3__116__owns_one_stateIwEE
00000000002b5dc8 V _ZTINSt3__117bad_function_callE
00000000002b5650 V _ZTINSt3__117__owns_two_statesIcEE
00000000002b7540 V _ZTINSt3__117__owns_two_statesIwEE
00000000002b56e0 V _ZTINSt3__117__repeat_one_loopIcEE
00000000002b75d0 V _ZTINSt3__117__repeat_one_loopIwEE
00000000002b54e8 V _ZTINSt3__118__back_ref_collateIcNS_12regex_traitsIcEEEE
00000000002b73d8 V _ZTINSt3__118__back_ref_collateIwNS_12regex_traitsIwEEEE
00000000002b53c8 V _ZTINSt3__118__match_char_icaseIcNS_12regex_traitsIcEEEE
00000000002b72b8 V _ZTINSt3__118__match_char_icaseIwNS_12regex_traitsIwEEEE
00000000002b5578 V _ZTINSt3__120__bracket_expressionIcNS_12regex_traitsIcEEEE
00000000002b7468 V _ZTINSt3__120__bracket_expressionIwNS_12regex_traitsIwEEEE
00000000002b5260 V _ZTINSt3__120__l_anchor_multilineIcEE
00000000002b7150 V _ZTINSt3__120__l_anchor_multilineIwEE
00000000002b5410 V _ZTINSt3__120__match_char_collateIcNS_12regex_traitsIcEEEE
00000000002b7300 V _ZTINSt3__120__match_char_collateIwNS_12regex_traitsIwEEEE
00000000002b52a8 V _ZTINSt3__120__r_anchor_multilineIcEE
00000000002b7198 V _ZTINSt3__120__r_anchor_multilineIwEE
00000000002b4e38 V _ZTINSt3__120__shared_ptr_emplaceIN12llama_ubatch6data_tENS_9allocatorIS2_EEEE
00000000002b5038 V _ZTINSt3__120__shared_ptr_pointerIP18llama_adapter_cvecNS_14default_deleteIS1_EENS_9allocatorIS1_EEEE
00000000002b5170 V _ZTINSt3__120__shared_ptr_pointerIPNS_13__empty_stateIcEENS_10shared_ptrIS2_E27__shared_ptr_default_deleteIS2_S2_EENS_9allocatorIS2_EEEE
00000000002b7060 V _ZTINSt3__120__shared_ptr_pointerIPNS_13__empty_stateIwEENS_10shared_ptrIS2_E27__shared_ptr_default_deleteIS2_S2_EENS_9allocatorIS2_EEEE
00000000002b5770 V _ZTINSt3__121__empty_non_own_stateIcEE
00000000002b7660 V _ZTINSt3__121__empty_non_own_stateIwEE
00000000002b5380 V _ZTINSt3__123__match_any_but_newlineIcEE
00000000002b7270 V _ZTINSt3__123__match_any_but_newlineIwEE
00000000002b5608 V _ZTINSt3__126__end_marked_subexpressionIcEE
00000000002b74f8 V _ZTINSt3__126__end_marked_subexpressionIwEE
00000000002b55c0 V _ZTINSt3__128__begin_marked_subexpressionIcEE
00000000002b74b0 V _ZTINSt3__128__begin_marked_subexpressionIwEE
00000000002b5668 V _ZTINSt3__16__loopIcEE
00000000002b7558 V _ZTINSt3__16__loopIwEE
00000000002b5110 V _ZTINSt3__16__nodeIcEE
00000000002b7000 V _ZTINSt3__16__nodeIwEE
00000000002b5e98 V _ZTIPFP11ggml_tensorP12ggml_contextS0_S0_E
00000000000ae7ec V _ZTS13llm_build_mpt
00000000000aead3 V _ZTS13llm_build_plm
000000000009e2fa V _ZTS13llm_tokenizer
000000000009c8c9 R _ZTS14llama_kv_cache
000000000009c90d V _ZTS14llama_memory_i
00000000000ae060 V _ZTS14llm_build_bert
00000000000ae118 V _ZTS14llm_build_dbrx
00000000000ae129 V _ZTS14llm_build_deci
00000000000ae32b V _ZTS14llm_build_glm4
00000000000ae33c V _ZTS14llm_build_gpt2
00000000000ae390 V _ZTS14llm_build_grok
00000000000ae3fe V _ZTS14llm_build_jais
00000000000ae462 V _ZTS14llm_build_lfm2ILb0EE
00000000000ae44b V _ZTS14llm_build_lfm2ILb1EE
00000000000ae83d V _ZTS14llm_build_olmo
00000000000ae903 V _ZTS14llm_build_phi2
00000000000ae914 V _ZTS14llm_build_phi3ILb0EE
00000000000ae92b V _ZTS14llm_build_phi3ILb1EE
00000000000aeae3 V _ZTS14llm_build_qwen
00000000000aebd3 V _ZTS14llm_build_rnd1
000000000009bf86 V _ZTS15llama_io_read_i
00000000000adfa7 V _ZTS15llm_build_afmoe
00000000000adfcd V _ZTS15llm_build_arcee
00000000000ae084 V _ZTS15llm_build_bloom
00000000000ae180 V _ZTS15llm_build_dots1
00000000000ae192 V _ZTS15llm_build_dream
00000000000ae2a1 V _ZTS15llm_build_gemma
00000000000ae40f V _ZTS15llm_build_jais2
00000000000ae421 V _ZTS15llm_build_jamba
00000000000ae48f V _ZTS15llm_build_llada
00000000000ae4b8 V _ZTS15llm_build_llamaILb0EE
00000000000ae4d0 V _ZTS15llm_build_llamaILb1EE
00000000000ae76a V _ZTS15llm_build_mamba
00000000000ae84e V _ZTS15llm_build_olmo2ILb0EE
00000000000ae866 V _ZTS15llm_build_olmo2ILb1EE
00000000000ae87e V _ZTS15llm_build_olmoe
00000000000ae8c0 V _ZTS15llm_build_orion
00000000000ae942 V _ZTS15llm_build_plamo
00000000000aeaf4 V _ZTS15llm_build_qwen2
00000000000aeb2f V _ZTS15llm_build_qwen3
00000000000aebfb V _ZTS15llm_build_rwkv6
00000000000aec24 V _ZTS15llm_build_rwkv7
000000000009bf44 V _ZTS16llama_io_write_i
00000000000adfdf V _ZTS16llm_build_arctic
00000000000adff2 V _ZTS16llm_build_arwkv7
00000000000ae071 V _ZTS16llm_build_bitnet
00000000000ae0d6 V _ZTS16llm_build_cogvlm
00000000000ae1fe V _ZTS16llm_build_exaone
00000000000ae272 V _ZTS16llm_build_falcon
00000000000ae2cb V _ZTS16llm_build_gemma3ILb0EE
00000000000ae2e4 V _ZTS16llm_build_gemma3ILb1EE
00000000000ae954 V _ZTS16llm_build_plamo2
00000000000aeaa1 V _ZTS16llm_build_plamo3ILb0EE
00000000000aeaba V _ZTS16llm_build_plamo3ILb1EE
00000000000aeb41 V _ZTS16llm_build_qwen35
00000000000aebc0 V _ZTS16llm_build_refact
00000000000aecf7 V _ZTS16llm_build_t5_dec
00000000000aed0a V _ZTS16llm_build_t5_enc
00000000000aed3a V _ZTS16llm_build_xverse
000000000009c79c V _ZTS16llm_graph_result
00000000000adfb9 V _ZTS17llm_build_apertus
00000000000ae0ac V _ZTS17llm_build_chatglm
00000000000ae211 V _ZTS17llm_build_exaone4ILb0EE
00000000000ae22b V _ZTS17llm_build_exaone4ILb1EE
00000000000ae34d V _ZTS17llm_build_gptneox
00000000000ae37c V _ZTS17llm_build_granite
00000000000ae8ac V _ZTS17llm_build_openelm
00000000000aeb1b V _ZTS17llm_build_qwen2vl
00000000000aebac V _ZTS17llm_build_qwen3vl
00000000000aec89 V _ZTS17llm_build_smollm3
000000000009c7af V _ZTS17llm_graph_context
000000000009c788 V _ZTS17llm_graph_input_i
000000000009e30a V _ZTS17llm_tokenizer_bpe
000000000009e2e6 V _ZTS17llm_tokenizer_spm
000000000009e332 V _ZTS17llm_tokenizer_ugm
000000000009e31e V _ZTS17llm_tokenizer_wpm
000000000009bf98 V _ZTS18llama_io_read_file
00000000000ae01c V _ZTS18llm_build_baichuan
00000000000ae13a V _ZTS18llm_build_deepseek
00000000000ae1bd V _ZTS18llm_build_ernie4_5
00000000000ae1d2 V _ZTS18llm_build_eurobert
00000000000ae316 V _ZTS18llm_build_glm4_moe
00000000000ae3a1 V _ZTS18llm_build_grovemoe
00000000000ae793 V _ZTS18llm_build_minicpm3
00000000000ae7bf V _ZTS18llm_build_mistral3
00000000000ae813 V _ZTS18llm_build_nemotron
00000000000ae828 V _ZTS18llm_build_neo_bert
00000000000aeb06 V _ZTS18llm_build_qwen2moe
00000000000aeb6a V _ZTS18llm_build_qwen3moe
00000000000aec36 V _ZTS18llm_build_seed_oss
00000000000aec9d V _ZTS18llm_build_stablelm
000000000009c63d R _ZTS18llm_graph_input_rs
000000000009e346 V _ZTS18llm_tokenizer_rwkv
000000000009bfad V _ZTS19llama_io_write_file
000000000009c937 R _ZTS19llama_kv_cache_iswa
000000000009cb93 R _ZTS19llama_memory_hybrid
00000000000ae096 V _ZTS19llm_build_chameleon
00000000000ae0c0 V _ZTS19llm_build_codeshell
00000000000ae102 V _ZTS19llm_build_command_r
00000000000ae14f V _ZTS19llm_build_deepseek2
00000000000ae245 V _ZTS19llm_build_falcon_h1
00000000000ae3e8 V _ZTS19llm_build_internlm2
00000000000ae479 V _ZTS19llm_build_llada_moe
00000000000ae4e8 V _ZTS19llm_build_maincoder
00000000000ae8d2 V _ZTS19llm_build_paddleocr
00000000000aeb54 V _ZTS19llm_build_qwen35moe
00000000000aeb7f V _ZTS19llm_build_qwen3next
00000000000aecb2 V _ZTS19llm_build_starcoder
000000000009c627 R _ZTS19llm_graph_input_cls
000000000009c587 R _ZTS19llm_graph_input_pos
000000000009bf6f V _ZTS20llama_io_read_buffer
000000000009bf2d V _ZTS20llama_io_write_dummy
00000000000ae031 V _ZTS20llm_build_bailingmoe
00000000000ae1e7 V _ZTS20llm_build_exaone_moe
00000000000ae4a1 V _ZTS20llm_build_llama_iswa
00000000000ae25b V _ZTS20llm_build_mamba_base
00000000000ae77c V _ZTS20llm_build_mimo2_iswa
00000000000ae7a8 V _ZTS20llm_build_minimax_m2
00000000000ae7fc V _ZTS20llm_build_nemotron_h
00000000000aeb95 V _ZTS20llm_build_qwen3vlmoe
00000000000aebe4 V _ZTS20llm_build_rwkv6_base
00000000000aec0d V _ZTS20llm_build_rwkv6qwen2
00000000000ae005 V _ZTS20llm_build_rwkv7_base
00000000000aecc8 V _ZTS20llm_build_starcoder2
000000000009c570 R _ZTS20llm_graph_input_embd
000000000009c610 R _ZTS20llm_graph_input_mean
000000000009e35b V _ZTS20llm_tokenizer_plamo2
000000000009bf57 V _ZTS21llama_io_write_buffer
00000000000ae048 V _ZTS21llm_build_bailingmoe2
00000000000ae2b3 V _ZTS21llm_build_gemma2_iswa
00000000000ae3d0 V _ZTS21llm_build_hunyuan_moe
00000000000ae433 V _ZTS21llm_build_kimi_linear
00000000000ae7d4 V _ZTS21llm_build_modern_bert
00000000000aecdf V _ZTS21llm_build_step35_iswa
000000000009c8f4 R _ZTS22llama_kv_cache_context
000000000009c91e V _ZTS22llama_memory_context_i
000000000009d049 R _ZTS22llama_memory_recurrent
00000000000ae0e9 V _ZTS22llm_build_cohere2_iswa
00000000000ae1a4 V _ZTS22llm_build_ernie4_5_moe
00000000000ae2fd V _ZTS22llm_build_gemma3n_iswa
00000000000aec4b V _ZTS22llm_build_smallthinkerILb0EE
00000000000aec6a V _ZTS22llm_build_smallthinkerILb1EE
000000000009c6a9 R _ZTS22llm_graph_input_attn_k
00000000000ae3b6 V _ZTS23llm_build_hunyuan_dense
000000000009c68f R _ZTS23llm_graph_input_attn_kv
000000000009c8da R _ZTS23llm_graph_input_k_shift
000000000009c5f6 R _ZTS23llm_graph_input_out_ids
000000000009cdfd R _ZTS24llama_memory_hybrid_iswa
00000000000ae165 V _ZTS24llm_build_delta_net_base
00000000000ae361 V _ZTS24llm_build_granite_hybrid
00000000000ae8e8 V _ZTS24llm_build_pangu_embedded
000000000009c75c R _ZTS24llm_graph_input_sampling
00000000000ae285 V _ZTS25llm_build_gemma_embedding
00000000000ae890 V _ZTS25llm_build_openai_moe_iswa
000000000009c59d R _ZTS25llm_graph_input_attn_temp
00000000000994f6 V _ZTS26llama_params_fit_exception
00000000000aed1d V _ZTS26llm_build_wavtokenizer_dec
000000000009c6e1 R _ZTS26llm_graph_input_attn_cross
000000000009c652 R _ZTS26llm_graph_input_cross_embd
000000000009c6fe R _ZTS26llm_graph_input_mem_hybrid
000000000009c5b9 R _ZTS26llm_graph_input_pos_bucket
000000000009c94d R _ZTS27llama_kv_cache_iswa_context
000000000009cba9 R _ZTS27llama_memory_hybrid_context
000000000009c6c2 R _ZTS28llm_graph_input_attn_kv_iswa
000000000009c71b R _ZTS28llm_graph_input_mem_hybrid_k
000000000009c66f R _ZTS29llm_graph_input_attn_no_cache
000000000009c5d6 R _ZTS29llm_graph_input_pos_bucket_kv
000000000009d062 R _ZTS30llama_memory_recurrent_context
000000000009c73a R _ZTS31llm_graph_input_mem_hybrid_iswa
000000000009ce18 R _ZTS32llama_memory_hybrid_iswa_context
000000000009c8a3 V _ZTSFP11ggml_tensorP12ggml_contextS0_S0_E
000000000009c428 V _ZTSNSt3__110__back_refIcEE
00000000000ade60 V _ZTSNSt3__110__back_refIwEE
000000000009cb71 V _ZTSNSt3__110__function6__baseIFbiEEE
000000000009e126 V _ZTSNSt3__110__function6__baseIFiiEEE
000000000009e104 V _ZTSNSt3__110__function6__baseIFjjEEE
000000000009c839 V _ZTSNSt3__110__function6__baseIFP11ggml_tensorP12ggml_contextS3_S3_EEE
000000000009c054 V _ZTSNSt3__110__function6__baseIFvRK12llama_ubatchP11ggml_tensorPKciEEE
000000000009c7df V _ZTSNSt3__110__function6__funcIPFP11ggml_tensorP12ggml_contextS3_S3_ENS_9allocatorIS7_EES6_EE
000000000009c1c9 V _ZTSNSt3__110shared_ptrINS_13__empty_stateIcEEE27__shared_ptr_default_deleteIS2_S2_EE
00000000000adc01 V _ZTSNSt3__110shared_ptrINS_13__empty_stateIwEEE27__shared_ptr_default_deleteIS2_S2_EE
000000000009c51a V _ZTSNSt3__111__alternateIcEE
00000000000adf52 V _ZTSNSt3__111__alternateIwEE
000000000009c118 V _ZTSNSt3__111__end_stateIcEE
00000000000adb50 V _ZTSNSt3__111__end_stateIwEE
000000000009c2e7 V _ZTSNSt3__111__lookaheadIcNS_12regex_traitsIcEEEE
00000000000add1f V _ZTSNSt3__111__lookaheadIwNS_12regex_traitsIwEEEE
000000000009c556 V _ZTSNSt3__111__match_anyIcEE
00000000000adf8e V _ZTSNSt3__111__match_anyIwEE
000000000009c3a6 V _ZTSNSt3__112__match_charIcEE
00000000000addde V _ZTSNSt3__112__match_charIwEE
000000000009d3f0 V _ZTSNSt3__113__assoc_stateINS_4pairIP11ggml_tensorbEEEE
000000000009c21b V _ZTSNSt3__113__empty_stateIcEE
00000000000adc53 V _ZTSNSt3__113__empty_stateIwEE
000000000009c025 V _ZTSNSt3__114default_deleteI18llama_adapter_cvecEE
000000000009c254 V _ZTSNSt3__115__has_one_stateIcEE
00000000000adc8c V _ZTSNSt3__115__has_one_stateIwEE
000000000009c2b5 V _ZTSNSt3__115__word_boundaryIcNS_12regex_traitsIcEEEE
00000000000adced V _ZTSNSt3__115__word_boundaryIwNS_12regex_traitsIwEEEE
000000000009c3c0 V _ZTSNSt3__116__back_ref_icaseIcNS_12regex_traitsIcEEEE
00000000000addf8 V _ZTSNSt3__116__back_ref_icaseIwNS_12regex_traitsIwEEEE
000000000009c236 V _ZTSNSt3__116__owns_one_stateIcEE
00000000000adc6e V _ZTSNSt3__116__owns_one_stateIwEE
000000000009c7c3 V _ZTSNSt3__117bad_function_callE
000000000009c4dc V _ZTSNSt3__117__owns_two_statesIcEE
00000000000adf14 V _ZTSNSt3__117__owns_two_statesIwEE
000000000009c4fb V _ZTSNSt3__117__repeat_one_loopIcEE
00000000000adf33 V _ZTSNSt3__117__repeat_one_loopIwEE
000000000009c3f3 V _ZTSNSt3__118__back_ref_collateIcNS_12regex_traitsIcEEEE
00000000000ade2b V _ZTSNSt3__118__back_ref_collateIwNS_12regex_traitsIwEEEE
000000000009c33a V _ZTSNSt3__118__match_char_icaseIcNS_12regex_traitsIcEEEE
00000000000add72 V _ZTSNSt3__118__match_char_icaseIwNS_12regex_traitsIwEEEE
000000000009c440 V _ZTSNSt3__120__bracket_expressionIcNS_12regex_traitsIcEEEE
00000000000ade78 V _ZTSNSt3__120__bracket_expressionIwNS_12regex_traitsIwEEEE
000000000009c271 V _ZTSNSt3__120__l_anchor_multilineIcEE
00000000000adca9 V _ZTSNSt3__120__l_anchor_multilineIwEE
000000000009c36f V _ZTSNSt3__120__match_char_collateIcNS_12regex_traitsIcEEEE
00000000000adda7 V _ZTSNSt3__120__match_char_collateIwNS_12regex_traitsIwEEEE
000000000009c293 V _ZTSNSt3__120__r_anchor_multilineIcEE
00000000000adccb V _ZTSNSt3__120__r_anchor_multilineIwEE
000000000009b92c V _ZTSNSt3__120__shared_ptr_emplaceIN12llama_ubatch6data_tENS_9allocatorIS2_EEEE
000000000009bfc3 V _ZTSNSt3__120__shared_ptr_pointerIP18llama_adapter_cvecNS_14default_deleteIS1_EENS_9allocatorIS1_EEEE
000000000009c144 V _ZTSNSt3__120__shared_ptr_pointerIPNS_13__empty_stateIcEENS_10shared_ptrIS2_E27__shared_ptr_default_deleteIS2_S2_EENS_9allocatorIS2_EEEE
00000000000adb7c V _ZTSNSt3__120__shared_ptr_pointerIPNS_13__empty_stateIwEENS_10shared_ptrIS2_E27__shared_ptr_default_deleteIS2_S2_EENS_9allocatorIS2_EEEE
000000000009c533 V _ZTSNSt3__121__empty_non_own_stateIcEE
00000000000adf6b V _ZTSNSt3__121__empty_non_own_stateIwEE
000000000009c315 V _ZTSNSt3__123__match_any_but_newlineIcEE
00000000000add4d V _ZTSNSt3__123__match_any_but_newlineIwEE
000000000009c4a1 V _ZTSNSt3__126__end_marked_subexpressionIcEE
00000000000aded9 V _ZTSNSt3__126__end_marked_subexpressionIwEE
000000000009c477 V _ZTSNSt3__128__begin_marked_subexpressionIcEE
00000000000adeaf V _ZTSNSt3__128__begin_marked_subexpressionIwEE
000000000009c4c9 V _ZTSNSt3__16__loopIcEE
00000000000adf01 V _ZTSNSt3__16__loopIwEE
000000000009c131 V _ZTSNSt3__16__nodeIcEE
00000000000adb69 V _ZTSNSt3__16__nodeIwEE
000000000009c87c V _ZTSPFP11ggml_tensorP12ggml_contextS0_S0_E
00000000002b86f0 V _ZTV13llm_build_mpt
00000000002b8bd0 V _ZTV13llm_build_plm
00000000002b5eb8 D _ZTV14llama_kv_cache
00000000002b7898 V _ZTV14llm_build_bert
00000000002b7a90 V _ZTV14llm_build_dbrx
00000000002b7ac8 V _ZTV14llm_build_deci
00000000002b7fb0 V _ZTV14llm_build_glm4
00000000002b7fe8 V _ZTV14llm_build_gpt2
00000000002b80c8 V _ZTV14llm_build_grok
00000000002b81e0 V _ZTV14llm_build_jais
00000000002b82e0 V _ZTV14llm_build_lfm2ILb0EE
00000000002b82c0 V _ZTV14llm_build_lfm2ILb1EE
00000000002b87d0 V _ZTV14llm_build_olmo
00000000002b89c8 V _ZTV14llm_build_phi2
00000000002b8a00 V _ZTV14llm_build_phi3ILb0EE
00000000002b8a20 V _ZTV14llm_build_phi3ILb1EE
00000000002b8c08 V _ZTV14llm_build_qwen
00000000002b8ea8 V _ZTV14llm_build_rnd1
00000000002b76c0 V _ZTV15llm_build_afmoe
00000000002b7730 V _ZTV15llm_build_arcee
00000000002b7908 V _ZTV15llm_build_bloom
00000000002b7ba8 V _ZTV15llm_build_dots1
00000000002b7be0 V _ZTV15llm_build_dream
00000000002b7e60 V _ZTV15llm_build_gemma
00000000002b8218 V _ZTV15llm_build_jais2
00000000002b8250 V _ZTV15llm_build_jamba
00000000002b8368 V _ZTV15llm_build_llada
00000000002b83d8 V _ZTV15llm_build_llamaILb0EE
00000000002b83f8 V _ZTV15llm_build_llamaILb1EE
00000000002b85a0 V _ZTV15llm_build_mamba
00000000002b8808 V _ZTV15llm_build_olmo2ILb0EE
00000000002b8828 V _ZTV15llm_build_olmo2ILb1EE
00000000002b8878 V _ZTV15llm_build_olmoe
00000000002b8920 V _ZTV15llm_build_orion
00000000002b8a70 V _ZTV15llm_build_plamo
00000000002b8c40 V _ZTV15llm_build_qwen2
00000000002b8ce8 V _ZTV15llm_build_qwen3
00000000002b8f18 V _ZTV15llm_build_rwkv6
00000000002b8fa8 V _ZTV15llm_build_rwkv7
00000000002b7768 V _ZTV16llm_build_arctic
00000000002b77a0 V _ZTV16llm_build_arwkv7
00000000002b78d0 V _ZTV16llm_build_bitnet
00000000002b79e8 V _ZTV16llm_build_cogvlm
00000000002b7cf8 V _ZTV16llm_build_exaone
00000000002b7df0 V _ZTV16llm_build_falcon
00000000002b7ed0 V _ZTV16llm_build_gemma3ILb0EE
00000000002b7ef0 V _ZTV16llm_build_gemma3ILb1EE
00000000002b8aa8 V _ZTV16llm_build_plamo2
00000000002b8b60 V _ZTV16llm_build_plamo3ILb0EE
00000000002b8b80 V _ZTV16llm_build_plamo3ILb1EE
00000000002b8d20 V _ZTV16llm_build_qwen35
00000000002b8e70 V _ZTV16llm_build_refact
00000000002b91a0 V _ZTV16llm_build_t5_dec
00000000002b91d8 V _ZTV16llm_build_t5_enc
00000000002b9248 V _ZTV16llm_build_xverse
00000000002b57d0 V _ZTV16llm_graph_result
00000000002b76f8 V _ZTV17llm_build_apertus
00000000002b7978 V _ZTV17llm_build_chatglm
00000000002b7d30 V _ZTV17llm_build_exaone4ILb0EE
00000000002b7d50 V _ZTV17llm_build_exaone4ILb1EE
00000000002b8020 V _ZTV17llm_build_gptneox
00000000002b8090 V _ZTV17llm_build_granite
00000000002b88e8 V _ZTV17llm_build_openelm
00000000002b8cb0 V _ZTV17llm_build_qwen2vl
00000000002b8e38 V _ZTV17llm_build_qwen3vl
00000000002b9088 V _ZTV17llm_build_smollm3
00000000002b57f0 V _ZTV17llm_graph_context
00000000002b5d98 V _ZTV17llm_graph_input_i
00000000002b6e78 V _ZTV17llm_tokenizer_bpe
00000000002b6e30 V _ZTV17llm_tokenizer_spm
00000000002b6ee8 V _ZTV17llm_tokenizer_ugm
00000000002b6eb0 V _ZTV17llm_tokenizer_wpm
00000000002b4f60 V _ZTV18llama_io_read_file
00000000002b77f0 V _ZTV18llm_build_baichuan
00000000002b7b00 V _ZTV18llm_build_deepseek
00000000002b7c50 V _ZTV18llm_build_ernie4_5
00000000002b7c88 V _ZTV18llm_build_eurobert
00000000002b7f78 V _ZTV18llm_build_glm4_moe
00000000002b8100 V _ZTV18llm_build_grovemoe
00000000002b8610 V _ZTV18llm_build_minicpm3
00000000002b8680 V _ZTV18llm_build_mistral3
00000000002b8760 V _ZTV18llm_build_nemotron
00000000002b8798 V _ZTV18llm_build_neo_bert
00000000002b8c78 V _ZTV18llm_build_qwen2moe
00000000002b8d90 V _ZTV18llm_build_qwen3moe
00000000002b8fe0 V _ZTV18llm_build_seed_oss
00000000002b90c0 V _ZTV18llm_build_stablelm
00000000002b5a50 D _ZTV18llm_graph_input_rs
00000000002b6f20 V _ZTV18llm_tokenizer_rwkv
00000000002b4fb0 V _ZTV19llama_io_write_file
00000000002b6028 D _ZTV19llama_kv_cache_iswa
00000000002b6240 D _ZTV19llama_memory_hybrid
00000000002b7940 V _ZTV19llm_build_chameleon
00000000002b79b0 V _ZTV19llm_build_codeshell
00000000002b7a58 V _ZTV19llm_build_command_r
00000000002b7b38 V _ZTV19llm_build_deepseek2
00000000002b7da0 V _ZTV19llm_build_falcon_h1
00000000002b81a8 V _ZTV19llm_build_internlm2
00000000002b8330 V _ZTV19llm_build_llada_moe
00000000002b8448 V _ZTV19llm_build_maincoder
00000000002b8958 V _ZTV19llm_build_paddleocr
00000000002b8d58 V _ZTV19llm_build_qwen35moe
00000000002b8dc8 V _ZTV19llm_build_qwen3next
00000000002b90f8 V _ZTV19llm_build_starcoder
00000000002b5a08 D _ZTV19llm_graph_input_cls
00000000002b5858 D _ZTV19llm_graph_input_pos
00000000002b4f00 V _ZTV20llama_io_read_buffer
00000000002b4e50 V _ZTV20llama_io_write_dummy
00000000002b7828 V _ZTV20llm_build_bailingmoe
00000000002b7cc0 V _ZTV20llm_build_exaone_moe
00000000002b83a0 V _ZTV20llm_build_llama_iswa
00000000002b8480 V _ZTV20llm_build_mamba_base
00000000002b85d8 V _ZTV20llm_build_mimo2_iswa
00000000002b8648 V _ZTV20llm_build_minimax_m2
00000000002b8728 V _ZTV20llm_build_nemotron_h
00000000002b8e00 V _ZTV20llm_build_qwen3vlmoe
00000000002b8ee0 V _ZTV20llm_build_rwkv6_base
00000000002b8f50 V _ZTV20llm_build_rwkv6qwen2
00000000002b8f88 V _ZTV20llm_build_rwkv7_base
00000000002b9130 V _ZTV20llm_build_starcoder2
00000000002b5810 D _ZTV20llm_graph_input_embd
00000000002b59c0 D _ZTV20llm_graph_input_mean
00000000002b6f58 V _ZTV20llm_tokenizer_plamo2
00000000002b4eb0 V _ZTV21llama_io_write_buffer
00000000002b7860 V _ZTV21llm_build_bailingmoe2
00000000002b7e98 V _ZTV21llm_build_gemma2_iswa
00000000002b8170 V _ZTV21llm_build_hunyuan_moe
00000000002b8288 V _ZTV21llm_build_kimi_linear
00000000002b86b8 V _ZTV21llm_build_modern_bert
00000000002b9168 V _ZTV21llm_build_step35_iswa
00000000002b5f50 D _ZTV22llama_kv_cache_context
00000000002b6650 D _ZTV22llama_memory_recurrent
00000000002b7a20 V _ZTV22llm_build_cohere2_iswa
00000000002b7c18 V _ZTV22llm_build_ernie4_5_moe
00000000002b7f40 V _ZTV22llm_build_gemma3n_iswa
00000000002b9018 V _ZTV22llm_build_smallthinkerILb0EE
00000000002b9038 V _ZTV22llm_build_smallthinkerILb1EE
00000000002b5b70 D _ZTV22llm_graph_input_attn_k
00000000002b8138 V _ZTV23llm_build_hunyuan_dense
00000000002b5b28 D _ZTV23llm_graph_input_attn_kv
00000000002b5fa8 D _ZTV23llm_graph_input_k_shift
00000000002b5978 D _ZTV23llm_graph_input_out_ids
00000000002b6448 D _ZTV24llama_memory_hybrid_iswa
00000000002b7b70 V _ZTV24llm_build_delta_net_base
00000000002b8058 V _ZTV24llm_build_granite_hybrid
00000000002b8990 V _ZTV24llm_build_pangu_embedded
00000000002b5d20 D _ZTV24llm_graph_input_sampling
00000000002b7e28 V _ZTV25llm_build_gemma_embedding
00000000002b88b0 V _ZTV25llm_build_openai_moe_iswa
00000000002b58a0 D _ZTV25llm_graph_input_attn_temp
00000000002b2e98 V _ZTV26llama_params_fit_exception
00000000002b9210 V _ZTV26llm_build_wavtokenizer_dec
00000000002b5c00 D _ZTV26llm_graph_input_attn_cross
00000000002b5a98 D _ZTV26llm_graph_input_cross_embd
00000000002b5c48 D _ZTV26llm_graph_input_mem_hybrid
00000000002b58e8 D _ZTV26llm_graph_input_pos_bucket
00000000002b60c0 D _ZTV27llama_kv_cache_iswa_context
00000000002b62d8 D _ZTV27llama_memory_hybrid_context
00000000002b5bb8 D _ZTV28llm_graph_input_attn_kv_iswa
00000000002b5c90 D _ZTV28llm_graph_input_mem_hybrid_k
00000000002b5ae0 D _ZTV29llm_graph_input_attn_no_cache
00000000002b5930 D _ZTV29llm_graph_input_pos_bucket_kv
00000000002b66e8 D _ZTV30llama_memory_recurrent_context
00000000002b5cd8 D _ZTV31llm_graph_input_mem_hybrid_iswa
00000000002b64e0 D _ZTV32llama_memory_hybrid_iswa_context
00000000002b5500 V _ZTVNSt3__110__back_refIcEE
00000000002b73f0 V _ZTVNSt3__110__back_refIwEE
00000000002b5e08 V _ZTVNSt3__110__function6__funcIPFP11ggml_tensorP12ggml_contextS3_S3_ENS_9allocatorIS7_EES6_EE
00000000002b56f8 V _ZTVNSt3__111__alternateIcEE
00000000002b75e8 V _ZTVNSt3__111__alternateIwEE
00000000002b50e0 V _ZTVNSt3__111__end_stateIcEE
00000000002b6fd0 V _ZTVNSt3__111__end_stateIwEE
00000000002b5308 V _ZTVNSt3__111__lookaheadIcNS_12regex_traitsIcEEEE
00000000002b71f8 V _ZTVNSt3__111__lookaheadIwNS_12regex_traitsIwEEEE
00000000002b5788 V _ZTVNSt3__111__match_anyIcEE
00000000002b7678 V _ZTVNSt3__111__match_anyIwEE
00000000002b5428 V _ZTVNSt3__112__match_charIcEE
00000000002b7318 V _ZTVNSt3__112__match_charIwEE
00000000002b5188 V _ZTVNSt3__113__empty_stateIcEE
00000000002b7078 V _ZTVNSt3__113__empty_stateIwEE
00000000002b52c0 V _ZTVNSt3__115__word_boundaryIcNS_12regex_traitsIcEEEE
00000000002b71b0 V _ZTVNSt3__115__word_boundaryIwNS_12regex_traitsIwEEEE
00000000002b5470 V _ZTVNSt3__116__back_ref_icaseIcNS_12regex_traitsIcEEEE
00000000002b7360 V _ZTVNSt3__116__back_ref_icaseIwNS_12regex_traitsIwEEEE
00000000002b5200 V _ZTVNSt3__116__owns_one_stateIcEE
00000000002b70f0 V _ZTVNSt3__116__owns_one_stateIwEE
00000000002b5de0 V _ZTVNSt3__117bad_function_callE
00000000002b5680 V _ZTVNSt3__117__owns_two_statesIcEE
00000000002b7570 V _ZTVNSt3__117__owns_two_statesIwEE
00000000002b56b0 V _ZTVNSt3__117__repeat_one_loopIcEE
00000000002b75a0 V _ZTVNSt3__117__repeat_one_loopIwEE
00000000002b54b8 V _ZTVNSt3__118__back_ref_collateIcNS_12regex_traitsIcEEEE
00000000002b73a8 V _ZTVNSt3__118__back_ref_collateIwNS_12regex_traitsIwEEEE
00000000002b5398 V _ZTVNSt3__118__match_char_icaseIcNS_12regex_traitsIcEEEE
00000000002b7288 V _ZTVNSt3__118__match_char_icaseIwNS_12regex_traitsIwEEEE
00000000002b5548 V _ZTVNSt3__120__bracket_expressionIcNS_12regex_traitsIcEEEE
00000000002b7438 V _ZTVNSt3__120__bracket_expressionIwNS_12regex_traitsIwEEEE
00000000002b5230 V _ZTVNSt3__120__l_anchor_multilineIcEE
00000000002b7120 V _ZTVNSt3__120__l_anchor_multilineIwEE
00000000002b53e0 V _ZTVNSt3__120__match_char_collateIcNS_12regex_traitsIcEEEE
00000000002b72d0 V _ZTVNSt3__120__match_char_collateIwNS_12regex_traitsIwEEEE
00000000002b5278 V _ZTVNSt3__120__r_anchor_multilineIcEE
00000000002b7168 V _ZTVNSt3__120__r_anchor_multilineIwEE
00000000002b4e00 V _ZTVNSt3__120__shared_ptr_emplaceIN12llama_ubatch6data_tENS_9allocatorIS2_EEEE
00000000002b5000 V _ZTVNSt3__120__shared_ptr_pointerIP18llama_adapter_cvecNS_14default_deleteIS1_EENS_9allocatorIS1_EEEE
00000000002b5138 V _ZTVNSt3__120__shared_ptr_pointerIPNS_13__empty_stateIcEENS_10shared_ptrIS2_E27__shared_ptr_default_deleteIS2_S2_EENS_9allocatorIS2_EEEE
00000000002b7028 V _ZTVNSt3__120__shared_ptr_pointerIPNS_13__empty_stateIwEENS_10shared_ptrIS2_E27__shared_ptr_default_deleteIS2_S2_EENS_9allocatorIS2_EEEE
00000000002b5740 V _ZTVNSt3__121__empty_non_own_stateIcEE
00000000002b7630 V _ZTVNSt3__121__empty_non_own_stateIwEE
00000000002b5350 V _ZTVNSt3__123__match_any_but_newlineIcEE
00000000002b7240 V _ZTVNSt3__123__match_any_but_newlineIwEE
00000000002b55d8 V _ZTVNSt3__126__end_marked_subexpressionIcEE
00000000002b74c8 V _ZTVNSt3__126__end_marked_subexpressionIwEE
00000000002b5590 V _ZTVNSt3__128__begin_marked_subexpressionIcEE
00000000002b7480 V _ZTVNSt3__128__begin_marked_subexpressionIwEE
00000000002b5620 V _ZTVNSt3__16__loopIcEE
00000000002b7510 V _ZTVNSt3__16__loopIwEE
000000000022771c W _ZZN14llm_build_lfm2ILb0EEC1ERK11llama_modelRK16llm_graph_paramsENKUlP11ggml_tensorP18llm_graph_input_rsiE_clES8_SA_i
0000000000227c48 W _ZZN14llm_build_lfm2ILb0EEC1ERK11llama_modelRK16llm_graph_paramsENKUlP11ggml_tensorS8_P23llm_graph_input_attn_kviE_clES8_S8_SA_i
0000000000226ae8 W _ZZN14llm_build_lfm2ILb1EEC1ERK11llama_modelRK16llm_graph_paramsENKUlP11ggml_tensorP18llm_graph_input_rsiE_clES8_SA_i
0000000000227014 W _ZZN14llm_build_lfm2ILb1EEC1ERK11llama_modelRK16llm_graph_paramsENKUlP11ggml_tensorS8_P28llm_graph_input_attn_kv_iswaiE_clES8_S8_SA_i
00000000001f4ea0 W _ZZN20llm_tokenizer_plamo25buildERK11llama_vocabENKUlRKNSt3__112basic_stringIcNS3_11char_traitsIcEENS3_9allocatorIcEEEESB_E_clESB_SB_

/tmp/aosp-cache-pin/assets/arm64-v8a/libggml-base.so:
                 U abort
                 U aligned_alloc
                 U atoi
                 U bcmp
                 U calloc
                 U clock
                 U clock_gettime
                 U close
                 U __cxa_atexit
000000000008a2c8 T dequantize_row_iq1_m
000000000008a0cc T dequantize_row_iq1_s
0000000000089a00 T dequantize_row_iq2_s
00000000000897d4 T dequantize_row_iq2_xs
0000000000089630 T dequantize_row_iq2_xxs
0000000000089da0 T dequantize_row_iq3_s
0000000000089be8 T dequantize_row_iq3_xxs
000000000008a538 T dequantize_row_iq4_nl
000000000008a60c T dequantize_row_iq4_xs
000000000007cf18 T dequantize_row_mxfp4
000000000007c440 T dequantize_row_q1_0
000000000007c57c T dequantize_row_q1_0_g128
000000000007e0d8 T dequantize_row_q2_K
000000000007f244 T dequantize_row_q3_K
000000000007c6a0 T dequantize_row_q4_0
000000000007c7e4 T dequantize_row_q4_1
0000000000080574 T dequantize_row_q4_K
0000000000088c3c T dequantize_row_q4_polar
000000000007c970 T dequantize_row_q5_0
000000000007cb74 T dequantize_row_q5_1
00000000000819a0 T dequantize_row_q5_K
0000000000083018 T dequantize_row_q6_K
000000000007cdbc T dequantize_row_q8_0
000000000008a89c T dequantize_row_q8_K
                 U dequantize_row_qjl1_256
0000000000087c10 T dequantize_row_tbq3_0
0000000000087e50 T dequantize_row_tbq4_0
00000000000866e4 T dequantize_row_tq1_0
0000000000087420 T dequantize_row_tq2_0
                 U dladdr
                 U dl_iterate_phdr
                 U __errno_location
                 U execlp
                 U _Exit
                 U expf
                 U fclose
                 U fflush
000000000005a848 T _fini
                 U fopen
                 U fork
                 U fprintf
                 U fputc
                 U fputs
                 U fread
                 U free
                 U fseeko
                 U ftello
                 U fwrite
                 U getenv
                 U getline
                 U getpid
000000000005aaa0 T ggml_abort
000000000005e2dc T ggml_abs
000000000005e36c T ggml_abs_inplace
000000000005cf90 T ggml_acc
000000000005d1ac T ggml_acc_inplace
000000000005cad4 T ggml_add
000000000005ce3c T ggml_add1
000000000005cf88 T ggml_add1_inplace
000000000005cc14 T ggml_add_cast
000000000005cd38 T ggml_add_id
000000000005cc0c T ggml_add_inplace
000000000006614c T ggml_add_rel_pos
00000000000664e8 T ggml_add_rel_pos_inplace
000000000005ad74 T ggml_aligned_free
000000000005acd4 T ggml_aligned_malloc
0000000000065040 T ggml_arange
000000000005bda4 T ggml_are_same_shape
000000000005bdf0 T ggml_are_same_stride
000000000005ddb4 T ggml_argmax
0000000000064e18 T ggml_argsort
0000000000064e88 T ggml_argsort_top_k
00000000000654a0 T ggml_attn_score_qjl
000000000007059c T ggml_backend_alloc_buffer
000000000006ef70 T ggml_backend_alloc_ctx_tensors
000000000006ef58 T ggml_backend_alloc_ctx_tensors_from_buft
000000000006ed1c T ggml_backend_alloc_ctx_tensors_from_buft_size
0000000000070104 T ggml_backend_buffer_clear
00000000000704ac T ggml_backend_buffer_copy_tensor
000000000006fffc T ggml_backend_buffer_free
0000000000070140 T ggml_backend_buffer_get_alignment
0000000000070208 T ggml_backend_buffer_get_alloc_size
0000000000070054 T ggml_backend_buffer_get_base
000000000007019c T ggml_backend_buffer_get_max_size
0000000000070024 T ggml_backend_buffer_get_size
000000000006ffcc T ggml_backend_buffer_get_type
0000000000070444 T ggml_backend_buffer_get_usage
000000000006fe08 T ggml_backend_buffer_init
00000000000700c8 T ggml_backend_buffer_init_tensor
0000000000070274 T ggml_backend_buffer_is_host
0000000000070364 T ggml_backend_buffer_is_multi_buffer
000000000006ff70 T ggml_backend_buffer_name
0000000000070474 T ggml_backend_buffer_reset
00000000000702e0 T ggml_backend_buffer_set_usage
000000000006fda4 T ggml_backend_buft_alloc_buffer
000000000006fe5c T ggml_backend_buft_get_alignment
000000000006fec8 T ggml_backend_buft_get_alloc_size
000000000006ff40 T ggml_backend_buft_get_device
000000000006fe8c T ggml_backend_buft_get_max_size
000000000006ff04 T ggml_backend_buft_is_host
000000000006fd74 T ggml_backend_buft_name
00000000000765e4 T ggml_backend_compare_graph_backend
0000000000076930 T ggml_backend_cpu_buffer_from_ptr
0000000000076888 T ggml_backend_cpu_buffer_type
00000000000716d0 T ggml_backend_dev_backend_reg
000000000007176c T ggml_backend_dev_buffer_from_host_ptr
000000000007056c T ggml_backend_dev_buffer_type
0000000000071628 T ggml_backend_dev_description
00000000000716b8 T ggml_backend_dev_get_props
0000000000071730 T ggml_backend_dev_host_buffer_type
0000000000071700 T ggml_backend_dev_init
0000000000071658 T ggml_backend_dev_memory
00000000000715f8 T ggml_backend_dev_name
0000000000071090 T ggml_backend_dev_offload_op
0000000000070ff4 T ggml_backend_dev_supports_buft
0000000000070f68 T ggml_backend_dev_supports_op
0000000000071688 T ggml_backend_dev_type
00000000000714c4 T ggml_backend_event_free
00000000000714ac T ggml_backend_event_new
00000000000714dc T ggml_backend_event_record
0000000000071540 T ggml_backend_event_synchronize
00000000000715a0 T ggml_backend_event_wait
0000000000070500 T ggml_backend_free
000000000007065c T ggml_backend_get_alignment
0000000000070510 T ggml_backend_get_default_buffer_type
00000000000710cc T ggml_backend_get_device
00000000000706e4 T ggml_backend_get_max_size
0000000000070e80 T ggml_backend_graph_compute
0000000000070edc T ggml_backend_graph_compute_async
0000000000075ec4 T ggml_backend_graph_copy
00000000000765a0 T ggml_backend_graph_copy_free
0000000000070e28 T ggml_backend_graph_plan_compute
0000000000070d78 T ggml_backend_graph_plan_create
0000000000070dd0 T ggml_backend_graph_plan_free
00000000000704dc T ggml_backend_guid
0000000000071868 T ggml_backend_multi_buffer_alloc_buffer
00000000000703a4 T ggml_backend_multi_buffer_set_usage
00000000000704e8 T ggml_backend_name
0000000000071024 T ggml_backend_offload_op
00000000000717cc T ggml_backend_reg_dev_count
00000000000717fc T ggml_backend_reg_dev_get
000000000007182c T ggml_backend_reg_get_proc_address
000000000007179c T ggml_backend_reg_name
0000000000074890 T ggml_backend_sched_alloc_graph
0000000000074404 T ggml_backend_sched_free
0000000000075864 T ggml_backend_sched_get_backend
0000000000075954 T ggml_backend_sched_get_buffer_size
00000000000758cc T ggml_backend_sched_get_buffer_type
0000000000075834 T ggml_backend_sched_get_n_backends
0000000000075804 T ggml_backend_sched_get_n_copies
00000000000757d4 T ggml_backend_sched_get_n_splits
0000000000075ae8 T ggml_backend_sched_get_tensor_backend
0000000000074b00 T ggml_backend_sched_graph_compute
0000000000074bbc T ggml_backend_sched_graph_compute_async
0000000000073eec T ggml_backend_sched_new
0000000000074728 T ggml_backend_sched_reserve
0000000000074500 T ggml_backend_sched_reserve_size
0000000000074378 T ggml_backend_sched_reset
00000000000757a0 T ggml_backend_sched_set_eval_callback
00000000000759e0 T ggml_backend_sched_set_tensor_backend
00000000000719e4 T ggml_backend_sched_split_graph
0000000000074680 T ggml_backend_sched_synchronize
0000000000070f98 T ggml_backend_supports_buft
0000000000070f0c T ggml_backend_supports_op
00000000000708a8 T ggml_backend_synchronize
0000000000075cac T ggml_backend_tensor_alloc
00000000000710fc T ggml_backend_tensor_copy
0000000000071328 T ggml_backend_tensor_copy_async
0000000000070b24 T ggml_backend_tensor_get
00000000000709f8 T ggml_backend_tensor_get_async
0000000000070c3c T ggml_backend_tensor_memset
00000000000708e0 T ggml_backend_tensor_set
000000000007077c T ggml_backend_tensor_set_async
0000000000075bb4 T ggml_backend_view_init
000000000005ae64 T ggml_bf16_to_fp32
000000000005b15c T ggml_bf16_to_fp32_row
000000000005b62c T ggml_blck_size
0000000000068660 T ggml_build_backward_expand
00000000000685f8 T ggml_build_forward_expand
0000000000068500 T ggml_build_forward_select
000000000006b668 T ggml_can_fuse_subgraph_ext
000000000005be4c T ggml_can_repeat
0000000000060c2c T ggml_cast
000000000005f808 T ggml_ceil
000000000005f898 T ggml_ceil_inplace
0000000000062bcc T ggml_clamp
000000000005b40c T ggml_commit
000000000005e16c T ggml_concat
0000000000060c70 T ggml_cont
0000000000060cb4 T ggml_cont_1d
0000000000060dec T ggml_cont_2d
0000000000060e88 T ggml_cont_3d
0000000000060d50 T ggml_cont_4d
0000000000062f08 T ggml_conv_1d
0000000000063064 T ggml_conv_1d_dw
0000000000063114 T ggml_conv_1d_dw_ph
0000000000062fb0 T ggml_conv_1d_ph
0000000000063350 T ggml_conv_2d
0000000000063c74 T ggml_conv_2d_direct
0000000000063950 T ggml_conv_2d_dw
0000000000063a74 T ggml_conv_2d_dw_direct
0000000000063908 T ggml_conv_2d_s1_ph
00000000000638d4 T ggml_conv_2d_sk_p0
00000000000636cc T ggml_conv_3d
0000000000063d90 T ggml_conv_3d_direct
00000000000631d0 T ggml_conv_transpose_1d
0000000000063f54 T ggml_conv_transpose_2d_p0
000000000005dbd4 T ggml_cos
000000000005dc08 T ggml_cos_inplace
000000000005de60 T ggml_count_equal
0000000000060b38 T ggml_cpy
000000000007adcc T ggml_critical_section_end
00000000000f6ab0 B ggml_critical_section_mutex
000000000007adc0 T ggml_critical_section_start
0000000000067bb8 T ggml_cross_entropy_loss
0000000000067c60 T ggml_cross_entropy_loss_back
000000000005dd04 T ggml_cumsum
00000000000679a8 T ggml_custom_4d
0000000000067a74 T ggml_custom_inplace
000000000005b4a8 T ggml_cycles
000000000005b4ac T ggml_cycles_per_ms
0000000000061f7c T ggml_diag
0000000000061ff4 T ggml_diag_mask_inf
0000000000062058 T ggml_diag_mask_inf_inplace
00000000000620c8 T ggml_diag_mask_zero
000000000006212c T ggml_diag_mask_zero_inplace
000000000005d434 T ggml_div
000000000005d56c T ggml_div_inplace
000000000005ca3c T ggml_dup
000000000005ca70 T ggml_dup_inplace
000000000005c854 T ggml_dup_tensor
000000000005b854 T ggml_element_size
000000000005e96c T ggml_elu
000000000005e9fc T ggml_elu_inplace
000000000005f568 T ggml_exp
000000000005f5f8 T ggml_exp_inplace
000000000005d73c T ggml_expm1
000000000005d864 T ggml_expm1_inplace
0000000000064cc8 T ggml_fill
0000000000064e10 T ggml_fill_inplace
00000000000656cc T ggml_flash_attn_back
00000000000650d0 T ggml_flash_attn_ext
00000000000653d0 T ggml_flash_attn_ext_add_sinks
0000000000065398 T ggml_flash_attn_ext_get_prec
0000000000065360 T ggml_flash_attn_ext_set_prec
000000000005f6b8 T ggml_floor
000000000005f748 T ggml_floor_inplace
000000000005b4b4 T ggml_fopen
000000000005c8fc T ggml_format_name
000000000005ada4 T ggml_fp16_to_fp32
000000000005aea8 T ggml_fp16_to_fp32_row
000000000005ae70 T ggml_fp32_to_bf16
000000000005b2ec T ggml_fp32_to_bf16_row
000000000005b1f0 T ggml_fp32_to_bf16_row_ref
000000000005adf0 T ggml_fp32_to_fp16
000000000005afc8 T ggml_fp32_to_fp16_row
000000000005c0a8 T ggml_free
000000000005b94c T ggml_ftype_to_ggml_type
000000000006e684 T ggml_gallocr_alloc_graph
000000000006d86c T ggml_gallocr_free
000000000006eab8 T ggml_gallocr_get_buffer_size
000000000006d854 T ggml_gallocr_new
000000000006d660 T ggml_gallocr_new_n
000000000006e674 T ggml_gallocr_reserve
000000000006e66c T ggml_gallocr_reserve_n
000000000006da38 T ggml_gallocr_reserve_n_size
0000000000066a40 T ggml_gated_linear_attn
000000000005fe58 T ggml_geglu
000000000005feb0 T ggml_geglu_erf
000000000005fed0 T ggml_geglu_erf_split
000000000005fec0 T ggml_geglu_erf_swapped
000000000005fedc T ggml_geglu_quick
000000000005fefc T ggml_geglu_quick_split
000000000005feec T ggml_geglu_quick_swapped
000000000005fe78 T ggml_geglu_split
000000000005fe68 T ggml_geglu_swapped
000000000005ee0c T ggml_gelu
000000000005ef5c T ggml_gelu_erf
000000000005efec T ggml_gelu_erf_inplace
000000000005ee9c T ggml_gelu_inplace
000000000005f0ac T ggml_gelu_quick
000000000005f13c T ggml_gelu_quick_inplace
000000000005c8b8 T ggml_get_data
000000000005c8c0 T ggml_get_data_f32
000000000005c204 T ggml_get_first_tensor
000000000005b81c T ggml_get_glu_op
000000000005c114 T ggml_get_max_tensor_size
000000000005c104 T ggml_get_mem_buffer
000000000005c10c T ggml_get_mem_size
000000000005c8c8 T ggml_get_name
000000000005c234 T ggml_get_next_tensor
000000000005c0f4 T ggml_get_no_alloc
00000000000660a0 T ggml_get_rel_pos
0000000000061ac0 T ggml_get_rows
0000000000061bd8 T ggml_get_rows_back
000000000005c9d8 T ggml_get_tensor
000000000005b4b8 T ggml_get_type_traits
000000000005b7e4 T ggml_get_unary_op
000000000005fbf8 T ggml_glu
000000000005b78c T ggml_glu_op_name
000000000005fe24 T ggml_glu_split
000000000006b374 T ggml_graph_add_node
000000000006b2d0 T ggml_graph_clear
000000000006aa78 T ggml_graph_cpy
000000000006b8e4 T ggml_graph_dump_dot
000000000006ae90 T ggml_graph_dup
000000000006b448 T ggml_graph_get_grad
000000000006b260 T ggml_graph_get_grad_acc
000000000006b3bc T ggml_graph_get_tensor
000000000006b36c T ggml_graph_n_nodes
000000000006b2f8 T ggml_graph_node
000000000006b364 T ggml_graph_nodes
000000000006a828 T ggml_graph_overhead
000000000006a798 T ggml_graph_overhead_custom
000000000006b4b8 T ggml_graph_print
000000000006b074 T ggml_graph_reset
000000000006b2f0 T ggml_graph_size
000000000006aa38 T ggml_graph_view
0000000000060160 T ggml_group_norm
00000000000601b0 T ggml_group_norm_inplace
000000000005b3e8 T ggml_guid_matches
000000000005f4d8 T ggml_hardsigmoid
000000000005f448 T ggml_hardswish
00000000000684e4 T ggml_hash_set_free
0000000000068354 T ggml_hash_set_new
00000000000684cc T ggml_hash_set_reset
0000000000068484 T ggml_hash_size
0000000000062c44 T ggml_im2col
00000000000634ec T ggml_im2col_3d
0000000000062e68 T ggml_im2col_back
000000000005bee4 T ggml_init
0000000000064490 T ggml_interpolate
000000000005b900 T ggml_is_3d
000000000005b9b0 T ggml_is_contiguous
000000000005ba4c T ggml_is_contiguous_0
000000000005bae8 T ggml_is_contiguous_1
000000000005bb70 T ggml_is_contiguous_2
000000000005bce4 T ggml_is_contiguous_channels
000000000005bbdc T ggml_is_contiguously_allocated
000000000005bd2c T ggml_is_contiguous_rows
000000000005bd74 T ggml_is_empty
000000000005b8dc T ggml_is_matrix
000000000005bcac T ggml_is_permuted
000000000005b744 T ggml_is_quantized
000000000005b870 T ggml_is_scalar
000000000005b9a0 T ggml_is_transposed
000000000005b8ac T ggml_is_vector
000000000005be3c T ggml_is_view
0000000000060230 T ggml_l2_norm
0000000000060274 T ggml_l2_norm_inplace
000000000005ec0c T ggml_leaky_relu
000000000005d6a4 T ggml_log
000000000005acac T ggml_log_callback_default
000000000006cc54 T ggml_log_get
000000000005d6d8 T ggml_log_inplace
000000000005ab8c T ggml_log_internal
000000000006cc70 T ggml_log_set
0000000000067534 T ggml_map_custom1
00000000000675e4 T ggml_map_custom1_inplace
00000000000676a0 T ggml_map_custom2
0000000000067754 T ggml_map_custom2_inplace
0000000000067814 T ggml_map_custom3
00000000000678d8 T ggml_map_custom3_inplace
000000000005dd60 T ggml_mean
000000000005d2f4 T ggml_mul
000000000005d42c T ggml_mul_inplace
00000000000602e8 T ggml_mul_mat
00000000000603fc T ggml_mul_mat_id
00000000000603c4 T ggml_mul_mat_set_prec
000000000005b588 T ggml_nbytes
000000000005b65c T ggml_nbytes_pad
000000000005b910 T ggml_n_dims
000000000005e57c T ggml_neg
000000000005e60c T ggml_neg_inplace
000000000005b55c T ggml_nelements
000000000005c6e8 T ggml_new_buffer
000000000006aa2c T ggml_new_graph
000000000006a894 T ggml_new_graph_custom
000000000005c264 T ggml_new_tensor
000000000005c640 T ggml_new_tensor_1d
000000000005c660 T ggml_new_tensor_2d
000000000005c68c T ggml_new_tensor_3d
000000000005c6b8 T ggml_new_tensor_4d
000000000005ff34 T ggml_norm
000000000005ff9c T ggml_norm_inplace
000000000005b574 T ggml_nrows
000000000006d504 T ggml_op_can_inplace
000000000005b79c T ggml_op_desc
000000000005b75c T ggml_op_name
000000000005b76c T ggml_op_symbol
0000000000078830 T ggml_opt_alloc
0000000000079eb0 T ggml_opt_context_optimizer_type
000000000007742c T ggml_opt_dataset_data
00000000000773f0 T ggml_opt_dataset_free
00000000000775a0 T ggml_opt_dataset_get_batch
00000000000777ec T ggml_opt_dataset_get_batch_host
00000000000771b4 T ggml_opt_dataset_init
0000000000077434 T ggml_opt_dataset_labels
0000000000077424 T ggml_opt_dataset_ndata
000000000007743c T ggml_opt_dataset_shuffle
0000000000077954 T ggml_opt_default_params
00000000000793f8 T ggml_opt_epoch
0000000000079624 T ggml_opt_epoch_callback_progress_bar
0000000000078c84 T ggml_opt_eval
0000000000079a50 T ggml_opt_fit
00000000000784d0 T ggml_opt_free
0000000000077940 T ggml_opt_get_constant_optimizer_params
0000000000077920 T ggml_opt_get_default_optimizer_params
00000000000785a4 T ggml_opt_grad_acc
0000000000077988 T ggml_opt_init
0000000000078574 T ggml_opt_inputs
0000000000078584 T ggml_opt_labels
000000000007858c T ggml_opt_loss
000000000007859c T ggml_opt_ncorrect
0000000000079eb8 T ggml_opt_optimizer_name
000000000007857c T ggml_opt_outputs
0000000000078594 T ggml_opt_pred
00000000000787f0 T ggml_opt_prepare_alloc
000000000007853c T ggml_opt_reset
0000000000078784 T ggml_opt_result_accuracy
00000000000785d8 T ggml_opt_result_free
00000000000785ac T ggml_opt_result_init
000000000007863c T ggml_opt_result_loss
0000000000078630 T ggml_opt_result_ndata
0000000000078700 T ggml_opt_result_pred
0000000000078614 T ggml_opt_result_reset
000000000007856c T ggml_opt_static_graphs
0000000000067d58 T ggml_opt_step_adamw
0000000000067f70 T ggml_opt_step_sgd
00000000000605d8 T ggml_out_prod
0000000000064538 T ggml_pad
0000000000064690 T ggml_pad_circular
00000000000645c8 T ggml_pad_ext
0000000000064724 T ggml_pad_ext_circular
00000000000647f0 T ggml_pad_reflect_1d
0000000000061790 T ggml_permute
0000000000063ffc T ggml_pool_1d
00000000000640f0 T ggml_pool_2d
0000000000064248 T ggml_pool_2d_back
000000000005a858 T ggml_print_backtrace
000000000005b4cc T ggml_print_object
000000000005b4e8 T ggml_print_objects
000000000008807c T ggml_q4_polar_get_use_qjl
0000000000088070 T ggml_q4_polar_set_use_qjl
000000000006c498 T ggml_quantize_chunk
000000000006c43c T ggml_quantize_free
000000000006c3dc T ggml_quantize_init
000000000006c484 T ggml_quantize_requires_imatrix
000000000005fe2c T ggml_reglu
000000000005fe4c T ggml_reglu_split
000000000005fe3c T ggml_reglu_swapped
000000000005eabc T ggml_relu
000000000005eb4c T ggml_relu_inplace
000000000005df08 T ggml_repeat
000000000005dfe0 T ggml_repeat_4d
000000000005e094 T ggml_repeat_back
000000000005c094 T ggml_reset
0000000000060f24 T ggml_reshape
000000000006105c T ggml_reshape_1d
0000000000061188 T ggml_reshape_2d
00000000000612b8 T ggml_reshape_3d
00000000000613f0 T ggml_reshape_4d
0000000000060010 T ggml_rms_norm
00000000000600ec T ggml_rms_norm_back
0000000000060078 T ggml_rms_norm_inplace
00000000000649e4 T ggml_roll
0000000000062688 T ggml_rope
0000000000062a5c T ggml_rope_custom
0000000000062a8c T ggml_rope_custom_inplace
0000000000062a08 T ggml_rope_ext
0000000000062b78 T ggml_rope_ext_back
0000000000062a30 T ggml_rope_ext_inplace
00000000000629b4 T ggml_rope_inplace
0000000000062978 T ggml_rope_multi
0000000000062ba8 T ggml_rope_multi_back
0000000000062994 T ggml_rope_multi_inplace
0000000000062ac0 T ggml_rope_yarn_corr_dims
000000000005f958 T ggml_round
000000000005f9e8 T ggml_round_inplace
000000000005b708 T ggml_row_size
00000000000664f0 T ggml_rwkv_wkv6
0000000000066ef0 T ggml_rwkv_wkv7
00000000000606b4 T ggml_scale
00000000000608b0 T ggml_scale_bias
0000000000060984 T ggml_scale_bias_inplace
00000000000608a4 T ggml_scale_inplace
000000000006098c T ggml_set
0000000000060af0 T ggml_set_1d
0000000000060b04 T ggml_set_1d_inplace
0000000000060b18 T ggml_set_2d
0000000000060b28 T ggml_set_2d_inplace
000000000005aa88 T ggml_set_abort_callback
0000000000060ae8 T ggml_set_inplace
000000000006c2f0 T ggml_set_input
000000000006c34c T ggml_set_loss
000000000005c8d0 T ggml_set_name
000000000005c0fc T ggml_set_no_alloc
000000000006c300 T ggml_set_output
000000000006c310 T ggml_set_param
0000000000061cd8 T ggml_set_rows
000000000006aed8 T ggml_set_zero
000000000005e42c T ggml_sgn
000000000005e4bc T ggml_sgn_inplace
000000000005ecbc T ggml_sigmoid
000000000005ed4c T ggml_sigmoid_inplace
000000000005f1fc T ggml_silu
000000000005f408 T ggml_silu_back
000000000005f28c T ggml_silu_inplace
000000000005db3c T ggml_sin
000000000005db70 T ggml_sin_inplace
000000000006219c T ggml_soft_max
00000000000624e0 T ggml_soft_max_add_sinks
00000000000624d0 T ggml_soft_max_ext
00000000000625b0 T ggml_soft_max_ext_back
0000000000062604 T ggml_soft_max_ext_back_inplace
00000000000624d8 T ggml_soft_max_ext_inplace
00000000000624bc T ggml_soft_max_inplace
000000000005d9ec T ggml_softplus
000000000005da7c T ggml_softplus_inplace
00000000000680d4 T ggml_solve_tri
000000000005d574 T ggml_sqr
000000000005d5a8 T ggml_sqr_inplace
000000000005d60c T ggml_sqrt
000000000005d640 T ggml_sqrt_inplace
00000000000656e8 T ggml_ssm_conv
0000000000065808 T ggml_ssm_scan
000000000005ad78 T ggml_status_to_string
000000000005e6cc T ggml_step
000000000005e75c T ggml_step_inplace
000000000005d1b4 T ggml_sub
000000000005d2ec T ggml_sub_inplace
000000000005dc6c T ggml_sum
000000000005dcb0 T ggml_sum_rows
000000000005fe84 T ggml_swiglu
000000000005ff08 T ggml_swiglu_oai
000000000005fea4 T ggml_swiglu_split
000000000005fe94 T ggml_swiglu_swapped
000000000006d5a0 T ggml_tallocr_alloc
000000000006d554 T ggml_tallocr_new
000000000005e81c T ggml_tanh
000000000005e8ac T ggml_tanh_inplace
000000000005b998 T ggml_tensor_overhead
000000000006ccf0 T ggml_threadpool_params_default
000000000006cc94 T ggml_threadpool_params_init
000000000006cd4c T ggml_threadpool_params_match
000000000005b418 T ggml_time_init
000000000005b41c T ggml_time_ms
0000000000064b50 T ggml_timestep_embedding
000000000005b460 T ggml_time_us
0000000000064fc0 T ggml_top_k
0000000000061a2c T ggml_transpose
0000000000064bac T ggml_tri
000000000005faa8 T ggml_trunc
000000000005fb38 T ggml_trunc_inplace
000000000005b72c T ggml_type_name
000000000005b644 T ggml_type_size
000000000005d7cc T ggml_unary
000000000005d924 T ggml_unary_inplace
000000000005b77c T ggml_unary_op_name
000000000005c86c T ggml_unravel_index
00000000000642f4 T ggml_upscale
00000000000643d8 T ggml_upscale_ext
000000000005c0d8 T ggml_used_mem
0000000000094b60 T ggml_validate_row_data
000000000005b400 T ggml_version
000000000006152c T ggml_view_1d
00000000000615a8 T ggml_view_2d
0000000000061644 T ggml_view_3d
00000000000616ec T ggml_view_4d
000000000005c980 T ggml_view_tensor
0000000000065ecc T ggml_win_part
0000000000065ff4 T ggml_win_unpart
000000000005f34c T ggml_xielu
000000000009c43c T gguf_add_tensor
00000000000989a8 T gguf_find_key
0000000000099894 T gguf_find_tensor
0000000000098958 T gguf_free
0000000000098bd8 T gguf_get_alignment
0000000000098d64 T gguf_get_arr_data
0000000000098e9c T gguf_get_arr_n
0000000000098df4 T gguf_get_arr_str
0000000000098cd8 T gguf_get_arr_type
0000000000098be0 T gguf_get_data_offset
0000000000098c04 T gguf_get_key
0000000000098c68 T gguf_get_kv_type
000000000009d064 T gguf_get_meta_data
000000000009d000 T gguf_get_meta_size
0000000000098be8 T gguf_get_n_kv
0000000000099870 T gguf_get_n_tensors
0000000000099914 T gguf_get_tensor_name
0000000000099974 T gguf_get_tensor_offset
0000000000099a34 T gguf_get_tensor_size
00000000000999d4 T gguf_get_tensor_type
00000000000995dc T gguf_get_val_bool
0000000000099798 T gguf_get_val_data
000000000009932c T gguf_get_val_f32
0000000000099530 T gguf_get_val_f64
00000000000991d4 T gguf_get_val_i16
0000000000099280 T gguf_get_val_i32
0000000000099484 T gguf_get_val_i64
000000000009907c T gguf_get_val_i8
0000000000099688 T gguf_get_val_str
0000000000099128 T gguf_get_val_u16
0000000000098a30 T gguf_get_val_u32
00000000000993d8 T gguf_get_val_u64
0000000000098fd0 T gguf_get_val_u8
0000000000098bd0 T gguf_get_version
0000000000097460 T gguf_init_empty
0000000000098adc T gguf_init_from_file
0000000000099a90 T gguf_remove_key
000000000009b7fc T gguf_set_arr_data
000000000009bbf0 T gguf_set_arr_str
000000000009bf64 T gguf_set_kv
000000000009c800 T gguf_set_tensor_data
000000000009c67c T gguf_set_tensor_type
000000000009b2c0 T gguf_set_val_bool
000000000009a970 T gguf_set_val_f32
000000000009b06c T gguf_set_val_f64
000000000009a258 T gguf_set_val_i16
000000000009a71c T gguf_set_val_i32
000000000009ae18 T gguf_set_val_i64
0000000000099db0 T gguf_set_val_i8
000000000009b514 T gguf_set_val_str
000000000009a004 T gguf_set_val_u16
000000000009a4ac T gguf_set_val_u32
000000000009abc4 T gguf_set_val_u64
0000000000099b5c T gguf_set_val_u8
0000000000098b60 T gguf_type_name
000000000009cc18 T gguf_write_to_file
000000000005a838 T _init
000000000008b7a0 T iq2xs_free_impl
000000000008a9b0 T iq2xs_init_impl
000000000008e7fc T iq3xs_free_impl
000000000008dddc T iq3xs_init_impl
                 U isprint
                 U isxdigit
                 U log2f
                 U logf
                 U malloc
                 U memchr
                 U memcpy
                 U memmove
                 U memset
                 U nanosleep
                 U pipe
                 U posix_memalign
                 U powf
                 U prctl
                 U printf
                 U pthread_cond_broadcast
                 U pthread_cond_destroy
                 U pthread_cond_signal
                 U pthread_cond_timedwait
                 U pthread_cond_wait
                 U pthread_detach
                 U pthread_getspecific
                 U pthread_join
                 U pthread_key_create
                 U pthread_mutexattr_destroy
                 U pthread_mutexattr_init
                 U pthread_mutexattr_settype
                 U pthread_mutex_destroy
                 U pthread_mutex_init
                 U pthread_mutex_lock
                 U pthread_mutex_trylock
                 U pthread_mutex_unlock
                 U pthread_once
                 U pthread_rwlock_rdlock
                 U pthread_rwlock_unlock
                 U pthread_rwlock_wrlock
                 U pthread_self
                 U pthread_setspecific
                 U putchar
                 U puts
                 U qsort
0000000000091a84 T quantize_iq1_m
0000000000090db0 T quantize_iq1_s
0000000000093ab0 T quantize_iq2_s
000000000008cd00 T quantize_iq2_xs
000000000008b860 T quantize_iq2_xxs
000000000008fb58 T quantize_iq3_s
000000000008e884 T quantize_iq3_xxs
0000000000092d90 T quantize_iq4_nl
00000000000938e0 T quantize_iq4_xs
0000000000085848 T quantize_mxfp4
0000000000083f38 T quantize_q1_0
0000000000084458 T quantize_q1_0_g128
000000000007e348 T quantize_q2_K
000000000007f878 T quantize_q3_K
00000000000847bc T quantize_q4_0
0000000000084ab0 T quantize_q4_1
0000000000080980 T quantize_q4_K
00000000000895e0 T quantize_q4_polar
0000000000084dec T quantize_q5_0
0000000000085200 T quantize_q5_1
0000000000081ecc T quantize_q5_K
0000000000083a50 T quantize_q6_K
0000000000085660 T quantize_q8_0
                 U quantize_qjl1_256
0000000000094b50 T quantize_row_iq2_s_ref
0000000000090da0 T quantize_row_iq3_s_ref
000000000008fb50 T quantize_row_iq3_xxs_ref
000000000009383c T quantize_row_iq4_nl_ref
0000000000093a04 T quantize_row_iq4_xs_ref
000000000007beb0 T quantize_row_mxfp4_ref
000000000007b020 T quantize_row_q1_0_g128_ref
000000000007adf4 T quantize_row_q1_0_ref
000000000007cfc0 T quantize_row_q2_K_ref
000000000007e8fc T quantize_row_q3_K_ref
000000000007b18c T quantize_row_q4_0_ref
000000000007b354 T quantize_row_q4_1_ref
000000000007feac T quantize_row_q4_K_ref
0000000000088088 T quantize_row_q4_polar_ref
000000000007b578 T quantize_row_q5_0_ref
000000000007b824 T quantize_row_q5_1_ref
00000000000811d0 T quantize_row_q5_K_ref
00000000000827f4 T quantize_row_q6_K_ref
000000000007bafc T quantize_row_q8_0_ref
000000000007bcac T quantize_row_q8_1_ref
000000000008a728 T quantize_row_q8_K_ref
                 U quantize_row_qjl1_256_ref
0000000000085e54 T quantize_row_tbq3_0_ref
0000000000086204 T quantize_row_tbq4_0_ref
000000000008587c T quantize_row_tq1_0_ref
0000000000085c74 T quantize_row_tq2_0_ref
0000000000086644 T quantize_tbq3_0
0000000000086694 T quantize_tbq4_0
00000000000865a4 T quantize_tq1_0
00000000000865f4 T quantize_tq2_0
                 U read
                 U realloc
                 U snprintf
                 U stderr
                 U stdout
                 U strcmp
                 U strcpy
                 U strerror
                 U strerror_r
                 U strlen
                 U strncmp
                 U strtod
                 U strtof
                 U strtol
                 U strtold
                 U strtoll
                 U strtoul
                 U strtoull
                 U swprintf
                 U syscall
                 U sysconf
00000000000ce478 W unw_getcontext
00000000000cae7c W unw_get_fpreg
00000000000caf4c W unw_get_proc_info
00000000000caf94 W unw_get_proc_name
00000000000cad60 W unw_get_reg
00000000000cac68 T _Unwind_DeleteException
00000000000cabc0 T _Unwind_ForcedUnwind
00000000000cac80 T _Unwind_GetGR
00000000000cac9c T _Unwind_GetIP
00000000000cac18 T _Unwind_GetLanguageSpecificData
00000000000cac40 T _Unwind_GetRegionStart
00000000000ca874 T _Unwind_RaiseException
00000000000caa58 T _Unwind_Resume
00000000000cac98 T _Unwind_SetGR
00000000000cacb8 T _Unwind_SetIP
00000000000cacc4 W unw_init_local
00000000000cafb8 W unw_is_fpreg
00000000000cafe0 W unw_is_signal_frame
00000000000caffc W unw_iterate_dwarf_unwind_cache
00000000000f69e8 D unw_local_addr_space
00000000000cafd4 W unw_regname
00000000000caf78 W unw_resume
00000000000caed0 W unw_set_fpreg
00000000000cadb8 W unw_set_reg
00000000000caf2c W unw_step
                 U vfprintf
                 U vsnprintf
                 U waitpid
                 U wcstod
                 U wcstof
                 U wcstol
                 U wcstold
                 U wcstoll
                 U wcstoul
                 U wcstoull
00000000000973f0 T _Z14gguf_type_size9gguf_type
000000000009c894 T _Z17gguf_write_to_bufPK12gguf_contextRNSt3__16vectorIaNS2_9allocatorIaEEEEb
0000000000097498 T _Z24gguf_init_from_file_implP8_IO_FILE16gguf_init_params
000000000009d650 W _Z24gguf_read_emplace_helperIaEbRK11gguf_readerRNSt3__16vectorI7gguf_kvNS3_9allocatorIS5_EEEERKNS3_12basic_stringIcNS3_11char_traitsIcEENS6_IcEEEEbm
000000000009e34c W _Z24gguf_read_emplace_helperIbEbRK11gguf_readerRNSt3__16vectorI7gguf_kvNS3_9allocatorIS5_EEEERKNS3_12basic_stringIcNS3_11char_traitsIcEENS6_IcEEEEbm
000000000009ebf0 W _Z24gguf_read_emplace_helperIdEbRK11gguf_readerRNSt3__16vectorI7gguf_kvNS3_9allocatorIS5_EEEERKNS3_12basic_stringIcNS3_11char_traitsIcEENS6_IcEEEEbm
000000000009e138 W _Z24gguf_read_emplace_helperIfEbRK11gguf_readerRNSt3__16vectorI7gguf_kvNS3_9allocatorIS5_EEEERKNS3_12basic_stringIcNS3_11char_traitsIcEENS6_IcEEEEbm
000000000009d3b8 W _Z24gguf_read_emplace_helperIhEbRK11gguf_readerRNSt3__16vectorI7gguf_kvNS3_9allocatorIS5_EEEERKNS3_12basic_stringIcNS3_11char_traitsIcEENS6_IcEEEEbm
000000000009df24 W _Z24gguf_read_emplace_helperIiEbRK11gguf_readerRNSt3__16vectorI7gguf_kvNS3_9allocatorIS5_EEEERKNS3_12basic_stringIcNS3_11char_traitsIcEENS6_IcEEEEbm
000000000009dd10 W _Z24gguf_read_emplace_helperIjEbRK11gguf_readerRNSt3__16vectorI7gguf_kvNS3_9allocatorIS5_EEEERKNS3_12basic_stringIcNS3_11char_traitsIcEENS6_IcEEEEbm
000000000009e9dc W _Z24gguf_read_emplace_helperIlEbRK11gguf_readerRNSt3__16vectorI7gguf_kvNS3_9allocatorIS5_EEEERKNS3_12basic_stringIcNS3_11char_traitsIcEENS6_IcEEEEbm
000000000009e7c8 W _Z24gguf_read_emplace_helperImEbRK11gguf_readerRNSt3__16vectorI7gguf_kvNS3_9allocatorIS5_EEEERKNS3_12basic_stringIcNS3_11char_traitsIcEENS6_IcEEEEbm
000000000009e574 W _Z24gguf_read_emplace_helperINSt3__112basic_stringIcNS0_11char_traitsIcEENS0_9allocatorIcEEEEEbRK11gguf_readerRNS0_6vectorI7gguf_kvNS4_ISB_EEEERKS6_bm
000000000009dafc W _Z24gguf_read_emplace_helperIsEbRK11gguf_readerRNSt3__16vectorI7gguf_kvNS3_9allocatorIS5_EEEERKNS3_12basic_stringIcNS3_11char_traitsIcEENS6_IcEEEEbm
000000000009d8e8 W _Z24gguf_read_emplace_helperItEbRK11gguf_readerRNSt3__16vectorI7gguf_kvNS3_9allocatorIS5_EEEERKNS3_12basic_stringIcNS3_11char_traitsIcEENS6_IcEEEEbm
00000000000c2ee8 W _ZdaPv
00000000000c2f54 W _ZdaPvSt11align_val_t
00000000000c2edc W _ZdlPv
00000000000c2f44 W _ZdlPvSt11align_val_t
000000000009fedc W _ZN15gguf_writer_buf17write_tensor_dataERK16gguf_tensor_infomm
000000000009fcf4 W _ZN15gguf_writer_buf5writeEa
000000000009fe98 W _ZN15gguf_writer_buf5writeERKNSt3__16vectorIaNS0_9allocatorIaEEEE
00000000000aa31c W _ZN16gguf_writer_base17write_tensor_metaERK16gguf_tensor_info
00000000000aa6c8 W _ZN16gguf_writer_base5writeEPKc
00000000000a9ff4 W _ZN16gguf_writer_base5writeERK7gguf_kv
00000000000aa564 W _ZN16gguf_writer_base5writeERKNSt3__112basic_stringIcNS0_11char_traitsIcEENS0_9allocatorIcEEEE
00000000000a0a1c W _ZN16gguf_writer_file17write_tensor_dataERK16gguf_tensor_infomm
00000000000a058c W _ZN16gguf_writer_file5writeEa
00000000000a07cc W _ZN16gguf_writer_file5writeERKNSt3__16vectorIaNS0_9allocatorIaEEEE
00000000000a773c W _ZN7gguf_kvaSEOS_
00000000000a56d4 W _ZN7gguf_kvC2ERKNSt3__112basic_stringIcNS0_11char_traitsIcEENS0_9allocatorIcEEEERKNS0_6vectorIS6_NS4_IS6_EEEE
00000000000a5ce4 W _ZN7gguf_kvC2ERKNSt3__112basic_stringIcNS0_11char_traitsIcEENS0_9allocatorIcEEEES8_
00000000000a1ccc W _ZN7gguf_kvC2IaEERKNSt3__112basic_stringIcNS1_11char_traitsIcEENS1_9allocatorIcEEEERKNS1_6vectorIT_NS5_ISB_EEEE
00000000000a1fc8 W _ZN7gguf_kvC2IaEERKNSt3__112basic_stringIcNS1_11char_traitsIcEENS1_9allocatorIcEEEET_
00000000000a4d84 W _ZN7gguf_kvC2IbEERKNSt3__112basic_stringIcNS1_11char_traitsIcEENS1_9allocatorIcEEEERKNS1_6vectorIT_NS5_ISB_EEEE
00000000000a508c W _ZN7gguf_kvC2IbEERKNSt3__112basic_stringIcNS1_11char_traitsIcEENS1_9allocatorIcEEEET_
00000000000a732c W _ZN7gguf_kvC2IdEERKNSt3__112basic_stringIcNS1_11char_traitsIcEENS1_9allocatorIcEEEERKNS1_6vectorIT_NS5_ISB_EEEE
00000000000a7630 W _ZN7gguf_kvC2IdEERKNSt3__112basic_stringIcNS1_11char_traitsIcEENS1_9allocatorIcEEEET_
00000000000a4350 W _ZN7gguf_kvC2IfEERKNSt3__112basic_stringIcNS1_11char_traitsIcEENS1_9allocatorIcEEEERKNS1_6vectorIT_NS5_ISB_EEEE
00000000000a4654 W _ZN7gguf_kvC2IfEERKNSt3__112basic_stringIcNS1_11char_traitsIcEENS1_9allocatorIcEEEET_
00000000000a1590 W _ZN7gguf_kvC2IhEERKNSt3__112basic_stringIcNS1_11char_traitsIcEENS1_9allocatorIcEEEERKNS1_6vectorIT_NS5_ISB_EEEE
00000000000a1a0c W _ZN7gguf_kvC2IhEERKNSt3__112basic_stringIcNS1_11char_traitsIcEENS1_9allocatorIcEEEET_
00000000000a3af4 W _ZN7gguf_kvC2IiEERKNSt3__112basic_stringIcNS1_11char_traitsIcEENS1_9allocatorIcEEEERKNS1_6vectorIT_NS5_ISB_EEEE
00000000000a3df8 W _ZN7gguf_kvC2IiEERKNSt3__112basic_stringIcNS1_11char_traitsIcEENS1_9allocatorIcEEEET_
00000000000a343c W _ZN7gguf_kvC2IjEERKNSt3__112basic_stringIcNS1_11char_traitsIcEENS1_9allocatorIcEEEERKNS1_6vectorIT_NS5_ISB_EEEE
00000000000a3740 W _ZN7gguf_kvC2IjEERKNSt3__112basic_stringIcNS1_11char_traitsIcEENS1_9allocatorIcEEEET_
00000000000a6ac0 W _ZN7gguf_kvC2IlEERKNSt3__112basic_stringIcNS1_11char_traitsIcEENS1_9allocatorIcEEEERKNS1_6vectorIT_NS5_ISB_EEEE
00000000000a6dc4 W _ZN7gguf_kvC2IlEERKNSt3__112basic_stringIcNS1_11char_traitsIcEENS1_9allocatorIcEEEET_
00000000000a6408 W _ZN7gguf_kvC2ImEERKNSt3__112basic_stringIcNS1_11char_traitsIcEENS1_9allocatorIcEEEERKNS1_6vectorIT_NS5_ISB_EEEE
00000000000a670c W _ZN7gguf_kvC2ImEERKNSt3__112basic_stringIcNS1_11char_traitsIcEENS1_9allocatorIcEEEET_
00000000000a2d84 W _ZN7gguf_kvC2IsEERKNSt3__112basic_stringIcNS1_11char_traitsIcEENS1_9allocatorIcEEEERKNS1_6vectorIT_NS5_ISB_EEEE
00000000000a3088 W _ZN7gguf_kvC2IsEERKNSt3__112basic_stringIcNS1_11char_traitsIcEENS1_9allocatorIcEEEET_
00000000000a2524 W _ZN7gguf_kvC2ItEERKNSt3__112basic_stringIcNS1_11char_traitsIcEENS1_9allocatorIcEEEERKNS1_6vectorIT_NS5_ISB_EEEE
00000000000a2828 W _ZN7gguf_kvC2ItEERKNSt3__112basic_stringIcNS1_11char_traitsIcEENS1_9allocatorIcEEEET_
00000000000ce568 W _Znam
00000000000ce5f4 W _ZnamSt11align_val_t
000000000009d2a8 W _ZNK11gguf_reader4readERNSt3__112basic_stringIcNS0_11char_traitsIcEENS0_9allocatorIcEEEE
00000000000a4750 W _ZNK11gguf_reader4readIbEEbRNSt3__16vectorIT_NS1_9allocatorIS3_EEEEm
00000000000a6ec0 W _ZNK11gguf_reader4readIdEEbRNSt3__16vectorIT_NS1_9allocatorIS3_EEEEm
00000000000a3ef4 W _ZNK11gguf_reader4readIfEEbRNSt3__16vectorIT_NS1_9allocatorIS3_EEEEm
00000000000a383c W _ZNK11gguf_reader4readIiEEbRNSt3__16vectorIT_NS1_9allocatorIS3_EEEEm
00000000000a3184 W _ZNK11gguf_reader4readIjEEbRNSt3__16vectorIT_NS1_9allocatorIS3_EEEEm
00000000000a6808 W _ZNK11gguf_reader4readIlEEbRNSt3__16vectorIT_NS1_9allocatorIS3_EEEEm
00000000000a5f9c W _ZNK11gguf_reader4readImEEbRNSt3__16vectorIT_NS1_9allocatorIS3_EEEEm
00000000000a518c W _ZNK11gguf_reader4readINSt3__112basic_stringIcNS1_11char_traitsIcEENS1_9allocatorIcEEEEEEbRNS1_6vectorIT_NS5_IS9_EEEEm
00000000000a2924 W _ZNK11gguf_reader4readIsEEbRNSt3__16vectorIT_NS1_9allocatorIS3_EEEEm
00000000000a20c4 W _ZNK11gguf_reader4readItEEbRNSt3__16vectorIT_NS1_9allocatorIS3_EEEEm
000000000009ef4c W _ZNK7gguf_kv6get_neEv
000000000009f184 W _ZNK7gguf_kv7get_valIaEERKT_m
000000000009facc W _ZNK7gguf_kv7get_valIbEERKT_m
000000000009f9c4 W _ZNK7gguf_kv7get_valIdEERKT_m
000000000009f6ac W _ZNK7gguf_kv7get_valIfEERKT_m
000000000009f080 W _ZNK7gguf_kv7get_valIhEERKT_m
000000000009f5a4 W _ZNK7gguf_kv7get_valIiEERKT_m
000000000009f49c W _ZNK7gguf_kv7get_valIjEERKT_m
000000000009f8bc W _ZNK7gguf_kv7get_valIlEERKT_m
000000000009f7b4 W _ZNK7gguf_kv7get_valImEERKT_m
000000000009f394 W _ZNK7gguf_kv7get_valIsEERKT_m
000000000009f28c W _ZNK7gguf_kv7get_valItEERKT_m
00000000000a772c W _ZNKSt3__16vectorI16gguf_tensor_infoNS_9allocatorIS1_EEE20__throw_length_errorB8ne180100Ev
00000000000a176c W _ZNKSt3__16vectorI7gguf_kvNS_9allocatorIS1_EEE20__throw_length_errorB8ne180100Ev
00000000000a0050 W _ZNKSt3__16vectorIaNS_9allocatorIaEEE20__throw_length_errorB8ne180100Ev
00000000000a4ba4 W _ZNKSt3__16vectorIbNS_9allocatorIbEEE20__throw_length_errorB8ne180100Ev
00000000000a11c8 W _ZNKSt3__16vectorIcNS_9allocatorIcEEE20__throw_length_errorB8ne180100Ev
00000000000a714c W _ZNKSt3__16vectorIdNS_9allocatorIdEEE20__throw_length_errorB8ne180100Ev
000000000007aa78 W _ZNKSt3__16vectorIfNS_9allocatorIfEEE20__throw_length_errorB8ne180100Ev
00000000000a13b0 W _ZNKSt3__16vectorIhNS_9allocatorIhEEE20__throw_length_errorB8ne180100Ev
0000000000076f54 W _ZNKSt3__16vectorIiNS_9allocatorIiEEE20__throw_length_errorB8ne180100Ev
00000000000771a4 W _ZNKSt3__16vectorIjNS_9allocatorIjEEE20__throw_length_errorB8ne180100Ev
000000000007a714 W _ZNKSt3__16vectorIlNS_9allocatorIlEEE20__throw_length_errorB8ne180100Ev
00000000000a6228 W _ZNKSt3__16vectorImNS_9allocatorImEEE20__throw_length_errorB8ne180100Ev
00000000000a54f4 W _ZNKSt3__16vectorINS_12basic_stringIcNS_11char_traitsIcEENS_9allocatorIcEEEENS4_IS6_EEE20__throw_length_errorB8ne180100Ev
000000000007a384 W _ZNKSt3__16vectorIP11ggml_tensorNS_9allocatorIS2_EEE20__throw_length_errorB8ne180100Ev
00000000000a9fe4 W _ZNKSt3__16vectorIPKcNS_9allocatorIS2_EEE20__throw_length_errorB8ne180100Ev
00000000000a2ba4 W _ZNKSt3__16vectorIsNS_9allocatorIsEEE20__throw_length_errorB8ne180100Ev
00000000000a2344 W _ZNKSt3__16vectorItNS_9allocatorItEEE20__throw_length_errorB8ne180100Ev
00000000000a177c W _ZNSt3__114__split_bufferI7gguf_kvRNS_9allocatorIS1_EEE17__destruct_at_endB8ne180100EPS1_
00000000000a1744 W _ZNSt3__114__split_bufferI7gguf_kvRNS_9allocatorIS1_EEED2Ev
00000000000a5490 W _ZNSt3__114__split_bufferINS_12basic_stringIcNS_11char_traitsIcEENS_9allocatorIcEEEERNS4_IS6_EEED2Ev
000000000007a724 W _ZNSt3__124uniform_int_distributionIlEclINS_23mersenne_twister_engineIjLm32ELm624ELm397ELm31ELj2567483615ELm11ELj4294967295ELm7ELj2636928640ELm15ELj4022730752ELm18ELj1812433253EEEEElRT_RKNS1_10param_typeE
000000000007a8bc W _ZNSt3__125__independent_bits_engineINS_23mersenne_twister_engineIjLm32ELm624ELm397ELm31ELj2567483615ELm11ELj4294967295ELm7ELj2636928640ELm15ELj4022730752ELm18ELj1812433253EEEmE6__evalENS_17integral_constantIbLb1EEE
000000000007a394 W _ZNSt3__127__tree_balance_after_insertB8ne180100IPNS_16__tree_node_baseIPvEEEEvT_S5_
00000000000a5ab8 W _ZNSt3__128__exception_guard_exceptionsINS_29_AllocatorDestroyRangeReverseINS_9allocatorINS_12basic_stringIcNS_11char_traitsIcEENS2_IcEEEEEEPS7_EEED2B8ne180100Ev
00000000000a9c90 W _ZNSt3__128__exception_guard_exceptionsINS_6vectorINS_12basic_stringIcNS_11char_traitsIcEENS_9allocatorIcEEEENS5_IS7_EEE16__destroy_vectorEED2B8ne180100Ev
000000000009d0d8 W _ZNSt3__13mapI9gguf_typemNS_4lessIS1_EENS_9allocatorINS_4pairIKS1_mEEEEEC2B8ne180100ESt16initializer_listIS7_ERKS3_
000000000009d1b8 W _ZNSt3__13mapI9gguf_typemNS_4lessIS1_EENS_9allocatorINS_4pairIKS1_mEEEEED2B8ne180100Ev
000000000009d1c0 W _ZNSt3__13mapI9gguf_typePKcNS_4lessIS1_EENS_9allocatorINS_4pairIKS1_S3_EEEEEC2B8ne180100ESt16initializer_listIS9_ERKS5_
000000000009d2a0 W _ZNSt3__13mapI9gguf_typePKcNS_4lessIS1_EENS_9allocatorINS_4pairIKS1_S3_EEEEED2B8ne180100Ev
00000000000a0c20 W _ZNSt3__16__treeINS_12__value_typeI9gguf_typemEENS_19__map_value_compareIS2_S3_NS_4lessIS2_EELb1EEENS_9allocatorIS3_EEE12__find_equalIS2_EERPNS_16__tree_node_baseIPvEENS_21__tree_const_iteratorIS3_PNS_11__tree_nodeIS3_SD_EElEERPNS_15__tree_end_nodeISF_EESG_RKT_
00000000000a0dc8 W _ZNSt3__16__treeINS_12__value_typeI9gguf_typemEENS_19__map_value_compareIS2_S3_NS_4lessIS2_EELb1EEENS_9allocatorIS3_EEE7destroyEPNS_11__tree_nodeIS3_PvEE
00000000000a0e08 W _ZNSt3__16__treeINS_12__value_typeI9gguf_typePKcEENS_19__map_value_compareIS2_S5_NS_4lessIS2_EELb1EEENS_9allocatorIS5_EEE12__find_equalIS2_EERPNS_16__tree_node_baseIPvEENS_21__tree_const_iteratorIS5_PNS_11__tree_nodeIS5_SF_EElEERPNS_15__tree_end_nodeISH_EESI_RKT_
00000000000a0fb0 W _ZNSt3__16__treeINS_12__value_typeI9gguf_typePKcEENS_19__map_value_compareIS2_S5_NS_4lessIS2_EELb1EEENS_9allocatorIS5_EEE7destroyEPNS_11__tree_nodeIS5_PvEE
000000000007a530 W _ZNSt3__16__treeINS_12__value_typeIP11ggml_tensorS3_EENS_19__map_value_compareIS3_S4_NS_4lessIS3_EELb1EEENS_9allocatorIS4_EEE7destroyEPNS_11__tree_nodeIS4_PvEE
000000000009ee04 W _ZNSt3__16vectorI16gguf_tensor_infoNS_9allocatorIS1_EEE9push_backB8ne180100ERKS1_
000000000009fc40 W _ZNSt3__16vectorI7gguf_kvNS_9allocatorIS1_EEE22__base_destruct_at_endB8ne180100EPS1_
00000000000a1df8 W _ZNSt3__16vectorI7gguf_kvNS_9allocatorIS1_EEE24__emplace_back_slow_pathIJRKNS_12basic_stringIcNS_11char_traitsIcEENS2_IcEEEERaEEEPS1_DpOT_
00000000000a4ebc W _ZNSt3__16vectorI7gguf_kvNS_9allocatorIS1_EEE24__emplace_back_slow_pathIJRKNS_12basic_stringIcNS_11char_traitsIcEENS2_IcEEEERbEEEPS1_DpOT_
00000000000a7460 W _ZNSt3__16vectorI7gguf_kvNS_9allocatorIS1_EEE24__emplace_back_slow_pathIJRKNS_12basic_stringIcNS_11char_traitsIcEENS2_IcEEEERdEEEPS1_DpOT_
00000000000a4484 W _ZNSt3__16vectorI7gguf_kvNS_9allocatorIS1_EEE24__emplace_back_slow_pathIJRKNS_12basic_stringIcNS_11char_traitsIcEENS2_IcEEEERfEEEPS1_DpOT_
00000000000a183c W _ZNSt3__16vectorI7gguf_kvNS_9allocatorIS1_EEE24__emplace_back_slow_pathIJRKNS_12basic_stringIcNS_11char_traitsIcEENS2_IcEEEERhEEEPS1_DpOT_
00000000000a3c28 W _ZNSt3__16vectorI7gguf_kvNS_9allocatorIS1_EEE24__emplace_back_slow_pathIJRKNS_12basic_stringIcNS_11char_traitsIcEENS2_IcEEEERiEEEPS1_DpOT_
00000000000a3570 W _ZNSt3__16vectorI7gguf_kvNS_9allocatorIS1_EEE24__emplace_back_slow_pathIJRKNS_12basic_stringIcNS_11char_traitsIcEENS2_IcEEEERjEEEPS1_DpOT_
00000000000a6bf4 W _ZNSt3__16vectorI7gguf_kvNS_9allocatorIS1_EEE24__emplace_back_slow_pathIJRKNS_12basic_stringIcNS_11char_traitsIcEENS2_IcEEEERlEEEPS1_DpOT_
00000000000a653c W _ZNSt3__16vectorI7gguf_kvNS_9allocatorIS1_EEE24__emplace_back_slow_pathIJRKNS_12basic_stringIcNS_11char_traitsIcEENS2_IcEEEERmEEEPS1_DpOT_
00000000000a1afc W _ZNSt3__16vectorI7gguf_kvNS_9allocatorIS1_EEE24__emplace_back_slow_pathIJRKNS_12basic_stringIcNS_11char_traitsIcEENS2_IcEEEERNS0_IaNS2_IaEEEEEEEPS1_DpOT_
00000000000a4bb4 W _ZNSt3__16vectorI7gguf_kvNS_9allocatorIS1_EEE24__emplace_back_slow_pathIJRKNS_12basic_stringIcNS_11char_traitsIcEENS2_IcEEEERNS0_IbNS2_IbEEEEEEEPS1_DpOT_
00000000000a715c W _ZNSt3__16vectorI7gguf_kvNS_9allocatorIS1_EEE24__emplace_back_slow_pathIJRKNS_12basic_stringIcNS_11char_traitsIcEENS2_IcEEEERNS0_IdNS2_IdEEEEEEEPS1_DpOT_
00000000000a4180 W _ZNSt3__16vectorI7gguf_kvNS_9allocatorIS1_EEE24__emplace_back_slow_pathIJRKNS_12basic_stringIcNS_11char_traitsIcEENS2_IcEEEERNS0_IfNS2_IfEEEEEEEPS1_DpOT_
00000000000a13c0 W _ZNSt3__16vectorI7gguf_kvNS_9allocatorIS1_EEE24__emplace_back_slow_pathIJRKNS_12basic_stringIcNS_11char_traitsIcEENS2_IcEEEERNS0_IhNS2_IhEEEEEEEPS1_DpOT_
00000000000a3924 W _ZNSt3__16vectorI7gguf_kvNS_9allocatorIS1_EEE24__emplace_back_slow_pathIJRKNS_12basic_stringIcNS_11char_traitsIcEENS2_IcEEEERNS0_IiNS2_IiEEEEEEEPS1_DpOT_
00000000000a326c W _ZNSt3__16vectorI7gguf_kvNS_9allocatorIS1_EEE24__emplace_back_slow_pathIJRKNS_12basic_stringIcNS_11char_traitsIcEENS2_IcEEEERNS0_IjNS2_IjEEEEEEEPS1_DpOT_
00000000000a68f0 W _ZNSt3__16vectorI7gguf_kvNS_9allocatorIS1_EEE24__emplace_back_slow_pathIJRKNS_12basic_stringIcNS_11char_traitsIcEENS2_IcEEEERNS0_IlNS2_IlEEEEEEEPS1_DpOT_
00000000000a6238 W _ZNSt3__16vectorI7gguf_kvNS_9allocatorIS1_EEE24__emplace_back_slow_pathIJRKNS_12basic_stringIcNS_11char_traitsIcEENS2_IcEEEERNS0_ImNS2_ImEEEEEEEPS1_DpOT_
00000000000a5504 W _ZNSt3__16vectorI7gguf_kvNS_9allocatorIS1_EEE24__emplace_back_slow_pathIJRKNS_12basic_stringIcNS_11char_traitsIcEENS2_IcEEEERNS0_ISA_NS2_ISA_EEEEEEEPS1_DpOT_
00000000000a2bb4 W _ZNSt3__16vectorI7gguf_kvNS_9allocatorIS1_EEE24__emplace_back_slow_pathIJRKNS_12basic_stringIcNS_11char_traitsIcEENS2_IcEEEERNS0_IsNS2_IsEEEEEEEPS1_DpOT_
00000000000a2354 W _ZNSt3__16vectorI7gguf_kvNS_9allocatorIS1_EEE24__emplace_back_slow_pathIJRKNS_12basic_stringIcNS_11char_traitsIcEENS2_IcEEEERNS0_ItNS2_ItEEEEEEEPS1_DpOT_
00000000000a5b14 W _ZNSt3__16vectorI7gguf_kvNS_9allocatorIS1_EEE24__emplace_back_slow_pathIJRKNS_12basic_stringIcNS_11char_traitsIcEENS2_IcEEEERSA_EEEPS1_DpOT_
00000000000a2eb8 W _ZNSt3__16vectorI7gguf_kvNS_9allocatorIS1_EEE24__emplace_back_slow_pathIJRKNS_12basic_stringIcNS_11char_traitsIcEENS2_IcEEEERsEEEPS1_DpOT_
00000000000a2658 W _ZNSt3__16vectorI7gguf_kvNS_9allocatorIS1_EEE24__emplace_back_slow_pathIJRKNS_12basic_stringIcNS_11char_traitsIcEENS2_IcEEEERtEEEPS1_DpOT_
00000000000a96f8 W _ZNSt3__16vectorI7gguf_kvNS_9allocatorIS1_EEE24__emplace_back_slow_pathIJRPKcNS_12basic_stringIcNS_11char_traitsIcEENS2_IcEEEEEEEPS1_DpOT_
00000000000a7b00 W _ZNSt3__16vectorI7gguf_kvNS_9allocatorIS1_EEE24__emplace_back_slow_pathIJRPKcRaEEEPS1_DpOT_
00000000000a942c W _ZNSt3__16vectorI7gguf_kvNS_9allocatorIS1_EEE24__emplace_back_slow_pathIJRPKcRbEEEPS1_DpOT_
00000000000a9160 W _ZNSt3__16vectorI7gguf_kvNS_9allocatorIS1_EEE24__emplace_back_slow_pathIJRPKcRdEEEPS1_DpOT_
00000000000a88fc W _ZNSt3__16vectorI7gguf_kvNS_9allocatorIS1_EEE24__emplace_back_slow_pathIJRPKcRfEEEPS1_DpOT_
00000000000a7834 W _ZNSt3__16vectorI7gguf_kvNS_9allocatorIS1_EEE24__emplace_back_slow_pathIJRPKcRhEEEPS1_DpOT_
00000000000a8630 W _ZNSt3__16vectorI7gguf_kvNS_9allocatorIS1_EEE24__emplace_back_slow_pathIJRPKcRiEEEPS1_DpOT_
00000000000a8364 W _ZNSt3__16vectorI7gguf_kvNS_9allocatorIS1_EEE24__emplace_back_slow_pathIJRPKcRjEEEPS1_DpOT_
00000000000a8e94 W _ZNSt3__16vectorI7gguf_kvNS_9allocatorIS1_EEE24__emplace_back_slow_pathIJRPKcRlEEEPS1_DpOT_
00000000000a8bc8 W _ZNSt3__16vectorI7gguf_kvNS_9allocatorIS1_EEE24__emplace_back_slow_pathIJRPKcRmEEEPS1_DpOT_
00000000000a99c4 W _ZNSt3__16vectorI7gguf_kvNS_9allocatorIS1_EEE24__emplace_back_slow_pathIJRPKcRNS0_IaNS2_IaEEEEEEEPS1_DpOT_
00000000000a9d18 W _ZNSt3__16vectorI7gguf_kvNS_9allocatorIS1_EEE24__emplace_back_slow_pathIJRPKcRNS0_INS_12basic_stringIcNS_11char_traitsIcEENS2_IcEEEENS2_ISD_EEEEEEEPS1_DpOT_
00000000000a8098 W _ZNSt3__16vectorI7gguf_kvNS_9allocatorIS1_EEE24__emplace_back_slow_pathIJRPKcRsEEEPS1_DpOT_
00000000000a7dcc W _ZNSt3__16vectorI7gguf_kvNS_9allocatorIS1_EEE24__emplace_back_slow_pathIJRPKcRtEEEPS1_DpOT_
00000000000a0060 W _ZNSt3__16vectorIaNS_9allocatorIaEEE18__insert_with_sizeB8ne180100INS_11__wrap_iterIPKaEES8_EENS5_IPaEES8_T_T0_l
00000000000a03b4 W _ZNSt3__16vectorIaNS_9allocatorIaEEE8__appendEm
00000000000a483c W _ZNSt3__16vectorIbNS_9allocatorIbEEE6resizeEmb
00000000000a4aa4 W _ZNSt3__16vectorIbNS_9allocatorIbEEE7reserveEm
00000000000a0ff0 W _ZNSt3__16vectorIcNS_9allocatorIcEEE8__appendEm
00000000000a6fa8 W _ZNSt3__16vectorIdNS_9allocatorIdEEE8__appendEm
00000000000a3fdc W _ZNSt3__16vectorIfNS_9allocatorIfEEE8__appendEm
00000000000a11d8 W _ZNSt3__16vectorIhNS_9allocatorIhEEE8__appendEm
000000000007aa88 W _ZNSt3__16vectorIiNS_9allocatorIiEEE18__insert_with_sizeB8ne180100INS_11__wrap_iterIPiEES7_EES7_NS5_IPKiEET_T0_l
0000000000076db0 W _ZNSt3__16vectorIiNS_9allocatorIiEEE8__appendEm
0000000000077000 W _ZNSt3__16vectorIjNS_9allocatorIjEEE8__appendEm
000000000007a570 W _ZNSt3__16vectorIlNS_9allocatorIlEEE8__appendEm
00000000000a6084 W _ZNSt3__16vectorImNS_9allocatorImEEE8__appendEm
00000000000a57ec W _ZNSt3__16vectorINS_12basic_stringIcNS_11char_traitsIcEENS_9allocatorIcEEEENS4_IS6_EEE18__assign_with_sizeB8ne180100IPS6_SA_EEvT_T0_l
00000000000a5ddc W _ZNSt3__16vectorINS_12basic_stringIcNS_11char_traitsIcEENS_9allocatorIcEEEENS4_IS6_EEE21__push_back_slow_pathIRKS6_EEPS6_OT_
00000000000a52a8 W _ZNSt3__16vectorINS_12basic_stringIcNS_11char_traitsIcEENS_9allocatorIcEEEENS4_IS6_EEE8__appendEm
000000000009fbd4 W _ZNSt3__16vectorINS_12basic_stringIcNS_11char_traitsIcEENS_9allocatorIcEEEENS4_IS6_EEED2B8ne180100Ev
000000000007a1e0 W _ZNSt3__16vectorIP11ggml_tensorNS_9allocatorIS2_EEE8__appendEm
00000000000a2a0c W _ZNSt3__16vectorIsNS_9allocatorIsEEE8__appendEm
00000000000a21ac W _ZNSt3__16vectorItNS_9allocatorItEEE8__appendEm
00000000000a98d0 W _ZNSt3__19allocatorI7gguf_kvE9constructB8ne180100IS1_JRPKcNS_12basic_stringIcNS_11char_traitsIcEENS0_IcEEEEEEEvPT_DpOT0_
00000000000a7cd8 W _ZNSt3__19allocatorI7gguf_kvE9constructB8ne180100IS1_JRPKcRaEEEvPT_DpOT0_
00000000000a9604 W _ZNSt3__19allocatorI7gguf_kvE9constructB8ne180100IS1_JRPKcRbEEEvPT_DpOT0_
00000000000a9338 W _ZNSt3__19allocatorI7gguf_kvE9constructB8ne180100IS1_JRPKcRdEEEvPT_DpOT0_
00000000000a8ad4 W _ZNSt3__19allocatorI7gguf_kvE9constructB8ne180100IS1_JRPKcRfEEEvPT_DpOT0_
00000000000a7a0c W _ZNSt3__19allocatorI7gguf_kvE9constructB8ne180100IS1_JRPKcRhEEEvPT_DpOT0_
00000000000a8808 W _ZNSt3__19allocatorI7gguf_kvE9constructB8ne180100IS1_JRPKcRiEEEvPT_DpOT0_
00000000000a853c W _ZNSt3__19allocatorI7gguf_kvE9constructB8ne180100IS1_JRPKcRjEEEvPT_DpOT0_
00000000000a906c W _ZNSt3__19allocatorI7gguf_kvE9constructB8ne180100IS1_JRPKcRlEEEvPT_DpOT0_
00000000000a8da0 W _ZNSt3__19allocatorI7gguf_kvE9constructB8ne180100IS1_JRPKcRmEEEvPT_DpOT0_
00000000000a9b9c W _ZNSt3__19allocatorI7gguf_kvE9constructB8ne180100IS1_JRPKcRNS_6vectorIaNS0_IaEEEEEEEvPT_DpOT0_
00000000000a9ef0 W _ZNSt3__19allocatorI7gguf_kvE9constructB8ne180100IS1_JRPKcRNS_6vectorINS_12basic_stringIcNS_11char_traitsIcEENS0_IcEEEENS0_ISC_EEEEEEEvPT_DpOT0_
00000000000a8270 W _ZNSt3__19allocatorI7gguf_kvE9constructB8ne180100IS1_JRPKcRsEEEvPT_DpOT0_
00000000000a7fa4 W _ZNSt3__19allocatorI7gguf_kvE9constructB8ne180100IS1_JRPKcRtEEEvPT_DpOT0_
00000000000a0bdc W _ZNSt3__1plB8ne180100IcNS_11char_traitsIcEENS_9allocatorIcEEEENS_12basic_stringIT_T0_T1_EEOS9_SA_
00000000000ce510 W _Znwm
00000000000ce56c W _ZnwmSt11align_val_t
00000000000e17c0 V _ZTI15gguf_writer_buf
00000000000e17b0 V _ZTI16gguf_writer_base
00000000000e1800 V _ZTI16gguf_writer_file
0000000000033d50 V _ZTS15gguf_writer_buf
0000000000033d62 V _ZTS16gguf_writer_base
0000000000033d75 V _ZTS16gguf_writer_file
00000000000e1788 V _ZTV15gguf_writer_buf
00000000000e17d8 V _ZTV16gguf_writer_file

/tmp/aosp-cache-pin/assets/arm64-v8a/libggml-cpu.so:
                 U abort
                 U aligned_alloc
                 U bcmp
                 U calloc
                 U cos
                 U cosf
                 U __cxa_atexit
                 U dequantize_row_q4_polar
00000000000c0e4c T dequantize_row_qjl1_256
                 U dequantize_row_tbq3_0
                 U dequantize_row_tbq4_0
                 U erff
                 U __errno_location
                 U exp2f
                 U expf
                 U expm1f
                 U fclose
                 U fgets
000000000005377c T _fini
                 U fopen
                 U fprintf
                 U fputc
                 U free
                 U fwrite
                 U ggml_abort
                 U ggml_aligned_free
                 U ggml_aligned_malloc
                 U ggml_are_same_shape
0000000000117b10 B ggml_arm_arch_features
                 U ggml_backend_buft_alloc_buffer
                 U ggml_backend_buft_is_host
                 U ggml_backend_cpu_buffer_from_ptr
                 U ggml_backend_cpu_buffer_type
0000000000058ed4 T ggml_backend_cpu_init
0000000000058f8c T ggml_backend_cpu_reg
0000000000059088 T ggml_backend_cpu_set_abort_callback
0000000000058fbc T ggml_backend_cpu_set_n_threads
0000000000059018 T ggml_backend_cpu_set_threadpool
00000000000590e8 T ggml_backend_cpu_set_use_ref
0000000000058fa4 T ggml_backend_is_cpu
                 U ggml_backend_reg_dev_get
00000000000537a0 T ggml_barrier
                 U ggml_blck_size
                 U ggml_can_repeat
00000000000858c8 T ggml_compute_forward_abs
00000000000a1150 T ggml_compute_forward_acc
000000000009f0b8 T ggml_compute_forward_add
000000000009f9b8 T ggml_compute_forward_add1
000000000009f5d8 T ggml_compute_forward_add_id
000000000007da38 T ggml_compute_forward_add_non_quantized
00000000000bb038 T ggml_compute_forward_add_rel_pos
00000000000b2778 T ggml_compute_forward_arange
00000000000a220c T ggml_compute_forward_argmax
00000000000b2ccc T ggml_compute_forward_argsort
00000000000c0f78 T ggml_compute_forward_attn_score_qjl
0000000000094dc4 T ggml_compute_forward_ceil
00000000000aa598 T ggml_compute_forward_clamp
00000000000a3530 T ggml_compute_forward_concat
00000000000a82ec T ggml_compute_forward_cont
00000000000aee34 T ggml_compute_forward_conv_2d
00000000000b0478 T ggml_compute_forward_conv_2d_dw
00000000000af554 T ggml_compute_forward_conv_3d
00000000000acf28 T ggml_compute_forward_conv_transpose_1d
00000000000afcf8 T ggml_compute_forward_conv_transpose_2d
0000000000090600 T ggml_compute_forward_cos
00000000000a22c8 T ggml_compute_forward_count_equal
00000000000a82e8 T ggml_compute_forward_cpy
00000000000bc5f8 T ggml_compute_forward_cross_entropy_loss
00000000000bcb74 T ggml_compute_forward_cross_entropy_loss_back
00000000000a1ae8 T ggml_compute_forward_cumsum
00000000000bc5e0 T ggml_compute_forward_custom
00000000000a9194 T ggml_compute_forward_diag
00000000000a9500 T ggml_compute_forward_diag_mask_inf
00000000000a9754 T ggml_compute_forward_diag_mask_zero
0000000000083914 T ggml_compute_forward_div
000000000009898c T ggml_compute_forward_dup
0000000000089044 T ggml_compute_forward_elu
000000000008c224 T ggml_compute_forward_exp
0000000000092618 T ggml_compute_forward_expm1
00000000000a3fd0 T ggml_compute_forward_fill
00000000000b4fdc T ggml_compute_forward_flash_attn_back
00000000000b30a0 T ggml_compute_forward_flash_attn_ext
00000000000941e8 T ggml_compute_forward_floor
00000000000bae8c T ggml_compute_forward_get_rel_pos
00000000000a82f0 T ggml_compute_forward_get_rows
00000000000a8dd8 T ggml_compute_forward_get_rows_back
00000000000bb7d4 T ggml_compute_forward_gla
00000000000b8c6c T ggml_compute_forward_glu
00000000000a5e10 T ggml_compute_forward_group_norm
000000000008b59c T ggml_compute_forward_hardsigmoid
000000000008d208 T ggml_compute_forward_hardswish
00000000000ada2c T ggml_compute_forward_im2col
00000000000ae4b8 T ggml_compute_forward_im2col_3d
00000000000ae19c T ggml_compute_forward_im2col_back_f32
00000000000a6558 T ggml_compute_forward_l2_norm
00000000000a42ec T ggml_compute_forward_leaky_relu
000000000009160c T ggml_compute_forward_log
00000000000bc584 T ggml_compute_forward_map_custom1
00000000000bc5a0 T ggml_compute_forward_map_custom2
00000000000bc5c0 T ggml_compute_forward_map_custom3
00000000000a2040 T ggml_compute_forward_mean
0000000000081978 T ggml_compute_forward_mul
00000000000551d4 T ggml_compute_forward_mul_mat
00000000000870cc T ggml_compute_forward_neg
00000000000a4c0c T ggml_compute_forward_norm
00000000000bd02c T ggml_compute_forward_opt_step_adamw
00000000000bd3fc T ggml_compute_forward_opt_step_sgd
00000000000a6a2c T ggml_compute_forward_out_prod
00000000000b1cec T ggml_compute_forward_pad
00000000000b204c T ggml_compute_forward_pad_reflect_1d
00000000000b0aa4 T ggml_compute_forward_pool_1d
00000000000b0c70 T ggml_compute_forward_pool_2d
00000000000b0eac T ggml_compute_forward_pool_2d_back
00000000000898b0 T ggml_compute_forward_relu
00000000000a2660 T ggml_compute_forward_repeat
00000000000a2f3c T ggml_compute_forward_repeat_back
00000000000a50f0 T ggml_compute_forward_rms_norm
00000000000a55cc T ggml_compute_forward_rms_norm_back
00000000000b2440 T ggml_compute_forward_roll
00000000000aaab8 T ggml_compute_forward_rope
00000000000acee8 T ggml_compute_forward_rope_back
00000000000959a0 T ggml_compute_forward_round
00000000000bb210 T ggml_compute_forward_rwkv_wkv6
00000000000bc140 T ggml_compute_forward_rwkv_wkv7
00000000000a7820 T ggml_compute_forward_scale
00000000000a7c20 T ggml_compute_forward_set
00000000000a898c T ggml_compute_forward_set_rows
000000000008647c T ggml_compute_forward_sgn
000000000008a4a4 T ggml_compute_forward_sigmoid
00000000000a4668 T ggml_compute_forward_silu_back
000000000008f5f4 T ggml_compute_forward_sin
00000000000a9784 T ggml_compute_forward_soft_max
00000000000aa060 T ggml_compute_forward_soft_max_ext_back
00000000000936bc T ggml_compute_forward_softplus
00000000000bbd78 T ggml_compute_forward_solve_tri
000000000008dec4 T ggml_compute_forward_sqr
000000000008ea94 T ggml_compute_forward_sqrt
00000000000b6328 T ggml_compute_forward_ssm_conv
00000000000b6628 T ggml_compute_forward_ssm_scan
0000000000087c90 T ggml_compute_forward_step
000000000007f9d4 T ggml_compute_forward_sub
00000000000a1544 T ggml_compute_forward_sum
00000000000a1d74 T ggml_compute_forward_sum_rows
0000000000088820 T ggml_compute_forward_tanh
00000000000b2944 T ggml_compute_forward_timestep_embedding
00000000000b2eb8 T ggml_compute_forward_top_k
00000000000a4110 T ggml_compute_forward_tri
000000000009657c T ggml_compute_forward_trunc
00000000000b774c T ggml_compute_forward_unary
00000000000b12f0 T ggml_compute_forward_upscale
00000000000b73a0 T ggml_compute_forward_win_part
00000000000b7598 T ggml_compute_forward_win_unpart
0000000000097158 T ggml_compute_forward_xielu
0000000000057e6c T ggml_cpu_bf16_to_fp32
000000000007d928 T ggml_cpu_extra_compute_forward
000000000007d9ac T ggml_cpu_extra_work_size
0000000000057c7c T ggml_cpu_fp16_to_fp32
0000000000057cf8 T ggml_cpu_fp32_to_bf16
0000000000057ae8 T ggml_cpu_fp32_to_fp16
0000000000057ad4 T ggml_cpu_fp32_to_fp32
0000000000057df4 T ggml_cpu_fp32_to_i32
0000000000057f60 T ggml_cpu_get_rvv_vlen
0000000000057fc8 T ggml_cpu_get_sve_cnt
0000000000057f38 T ggml_cpu_has_amx_int8
0000000000057f50 T ggml_cpu_has_arm_fma
0000000000057f00 T ggml_cpu_has_avx
0000000000057f10 T ggml_cpu_has_avx2
0000000000057f18 T ggml_cpu_has_avx512
0000000000057f30 T ggml_cpu_has_avx512_bf16
0000000000057f20 T ggml_cpu_has_avx512_vbmi
0000000000057f28 T ggml_cpu_has_avx512_vnni
0000000000057f08 T ggml_cpu_has_avx_vnni
0000000000057f40 T ggml_cpu_has_bmi2
0000000000057fb0 T ggml_cpu_has_dotprod
0000000000057f68 T ggml_cpu_has_f16c
0000000000057f48 T ggml_cpu_has_fma
0000000000057f70 T ggml_cpu_has_fp16_va
0000000000057f80 T ggml_cpu_has_llamafile
0000000000057fc0 T ggml_cpu_has_matmul_int8
0000000000057fa8 T ggml_cpu_has_neon
0000000000057f58 T ggml_cpu_has_riscv_v
0000000000057fd0 T ggml_cpu_has_sme
0000000000057f88 T ggml_cpu_has_sse3
0000000000057f90 T ggml_cpu_has_ssse3
0000000000057fb8 T ggml_cpu_has_sve
0000000000057f98 T ggml_cpu_has_vsx
0000000000057fa0 T ggml_cpu_has_vxe
0000000000057f78 T ggml_cpu_has_wasm_simd
0000000000056e5c T ggml_cpu_init
                 U ggml_critical_section_end
                 U ggml_critical_section_start
                 U ggml_element_size
                 U ggml_fp16_to_fp32_row
                 U ggml_free
00000000000d34c0 T ggml_gemm_iq4_nl_4x4_q8_0
00000000000644a8 T ggml_gemm_iq4_nl_4x4_q8_0_generic
00000000000647a4 T ggml_gemm_iq4_nl_8x8_q8_0
00000000000d34c4 T ggml_gemm_mxfp4_4x4_q8_0
0000000000064b88 T ggml_gemm_mxfp4_4x4_q8_0_generic
0000000000064ea4 T ggml_gemm_mxfp4_8x8_q8_0
0000000000062504 T ggml_gemm_q2_K_8x8_q8_K
00000000000d34b4 T ggml_gemm_q4_0_4x4_q8_0
0000000000060394 T ggml_gemm_q4_0_4x4_q8_0_generic
00000000000d34b8 T ggml_gemm_q4_0_4x8_q8_0
0000000000060718 T ggml_gemm_q4_0_4x8_q8_0_generic
00000000000d34bc T ggml_gemm_q4_0_8x8_q8_0
0000000000060c58 T ggml_gemm_q4_0_8x8_q8_0_generic
00000000000d34c8 T ggml_gemm_q4_K_8x4_q8_K
00000000000612b0 T ggml_gemm_q4_K_8x4_q8_K_generic
00000000000d34d0 T ggml_gemm_q4_K_8x8_q8_K
0000000000061b6c T ggml_gemm_q4_K_8x8_q8_K_generic
00000000000d34cc T ggml_gemm_q5_K_8x4_q8_K
0000000000062a5c T ggml_gemm_q5_K_8x4_q8_K_generic
00000000000d34d4 T ggml_gemm_q5_K_8x8_q8_K
0000000000063494 T ggml_gemm_q5_K_8x8_q8_K_generic
00000000000d34d8 T ggml_gemm_q6_K_8x4_q8_K
0000000000063d70 T ggml_gemm_q6_K_8x4_q8_K_generic
00000000000d34dc T ggml_gemm_q6_K_8x8_q8_K
00000000000640e8 T ggml_gemm_q6_K_8x8_q8_K_generic
00000000000d34e0 T ggml_gemm_q8_0_4x4_q8_0
00000000000652ac T ggml_gemm_q8_0_4x4_q8_0_generic
00000000000d34e4 T ggml_gemm_q8_0_4x8_q8_0
00000000000656a8 T ggml_gemm_q8_0_4x8_q8_0_generic
00000000000d348c T ggml_gemv_iq4_nl_4x4_q8_0
000000000005f5e0 T ggml_gemv_iq4_nl_4x4_q8_0_generic
000000000005f7dc T ggml_gemv_iq4_nl_8x8_q8_0
00000000000d3490 T ggml_gemv_mxfp4_4x4_q8_0
000000000005fa5c T ggml_gemv_mxfp4_4x4_q8_0_generic
000000000005fc80 T ggml_gemv_mxfp4_8x8_q8_0
000000000005de88 T ggml_gemv_q2_K_8x8_q8_K
00000000000d3480 T ggml_gemv_q4_0_4x4_q8_0
000000000005c6f0 T ggml_gemv_q4_0_4x4_q8_0_generic
00000000000d3484 T ggml_gemv_q4_0_4x8_q8_0
000000000005c97c T ggml_gemv_q4_0_4x8_q8_0_generic
00000000000d3488 T ggml_gemv_q4_0_8x8_q8_0
000000000005cd34 T ggml_gemv_q4_0_8x8_q8_0_generic
00000000000d3494 T ggml_gemv_q4_K_8x4_q8_K
000000000005d090 T ggml_gemv_q4_K_8x4_q8_K_generic
00000000000d3498 T ggml_gemv_q4_K_8x8_q8_K
000000000005d724 T ggml_gemv_q4_K_8x8_q8_K_generic
00000000000d349c T ggml_gemv_q5_K_8x4_q8_K
000000000005e234 T ggml_gemv_q5_K_8x4_q8_K_generic
00000000000d34a0 T ggml_gemv_q5_K_8x8_q8_K
000000000005ea98 T ggml_gemv_q5_K_8x8_q8_K_generic
00000000000d34a4 T ggml_gemv_q6_K_8x4_q8_K
000000000005f11c T ggml_gemv_q6_K_8x4_q8_K_generic
00000000000d34a8 T ggml_gemv_q6_K_8x8_q8_K
000000000005f368 T ggml_gemv_q6_K_8x8_q8_K_generic
00000000000d34ac T ggml_gemv_q8_0_4x4_q8_0
000000000005ff1c T ggml_gemv_q8_0_4x4_q8_0_generic
00000000000d34b0 T ggml_gemv_q8_0_4x8_q8_0
00000000000600dc T ggml_gemv_q8_0_4x8_q8_0_generic
                 U ggml_get_data_f32
0000000000054c28 T ggml_get_f32_1d
0000000000054dd8 T ggml_get_f32_nd
                 U ggml_get_glu_op
0000000000054474 T ggml_get_i32_1d
000000000005472c T ggml_get_i32_nd
                 U ggml_get_no_alloc
                 U ggml_get_type_traits
000000000005378c T ggml_get_type_traits_cpu
                 U ggml_get_unary_op
0000000000056b34 T ggml_graph_compute
0000000000057a80 T ggml_graph_compute_with_ctx
0000000000056068 T ggml_graph_plan
                 U ggml_guid_matches
                 U ggml_init
                 U ggml_is_contiguous
                 U ggml_is_contiguous_1
                 U ggml_is_contiguous_channels
                 U ggml_is_contiguous_rows
                 U ggml_is_empty
0000000000053b58 T ggml_is_numa
                 U ggml_is_quantized
                 U ggml_is_scalar
                 U ggml_log_internal
                 U ggml_nbytes
                 U ggml_n_dims
                 U ggml_nelements
                 U ggml_new_buffer
0000000000053fe4 T ggml_new_f32
0000000000053b6c T ggml_new_i32
                 U ggml_new_tensor_1d
                 U ggml_nrows
0000000000053828 T ggml_numa_init
                 U ggml_op_name
00000000000d3034 T ggml_quantize_mat_q8_0_4x4
000000000005bd4c T ggml_quantize_mat_q8_0_4x4_generic
00000000000d3234 T ggml_quantize_mat_q8_0_4x8
000000000005bf0c T ggml_quantize_mat_q8_0_4x8_generic
000000000005c0d0 T ggml_quantize_mat_q8_K_4x4
000000000005c3d0 T ggml_quantize_mat_q8_K_4x8
                 U ggml_rope_yarn_corr_dims
                 U ggml_row_size
000000000005403c T ggml_set_f32
0000000000054ea0 T ggml_set_f32_1d
000000000005506c T ggml_set_f32_nd
0000000000053bc4 T ggml_set_i32
00000000000547f4 T ggml_set_i32_1d
0000000000054ac0 T ggml_set_i32_nd
000000000015bbcc B ggml_table_f32_e8m0_half
000000000011bbcc B ggml_table_f32_f16
000000000015c1e8 B ggml_table_gelu_f16
000000000017c1e8 B ggml_table_gelu_quick_f16
0000000000053810 T ggml_threadpool_chunk_add
0000000000053808 T ggml_threadpool_chunk_set
0000000000055f24 T ggml_threadpool_free
0000000000056734 T ggml_threadpool_new
                 U ggml_threadpool_params_default
0000000000056004 T ggml_threadpool_pause
0000000000056038 T ggml_threadpool_resume
                 U ggml_time_us
                 U ggml_type_name
                 U ggml_type_size
                 U ggml_unravel_index
0000000000098400 T ggml_vec_cvar_f32
0000000000097b98 T ggml_vec_dot_bf16
0000000000097c94 T ggml_vec_dot_f16
0000000000097a58 T ggml_vec_dot_f32
00000000000d2a4c T ggml_vec_dot_iq1_m_q8_K
000000000007ccec T ggml_vec_dot_iq1_m_q8_K_generic
00000000000d2828 T ggml_vec_dot_iq1_s_q8_K
000000000007cb28 T ggml_vec_dot_iq1_s_q8_K_generic
00000000000d20c4 T ggml_vec_dot_iq2_s_q8_K
000000000007c228 T ggml_vec_dot_iq2_s_q8_K_generic
00000000000d1e9c T ggml_vec_dot_iq2_xs_q8_K
000000000007be64 T ggml_vec_dot_iq2_xs_q8_K_generic
00000000000d1ce0 T ggml_vec_dot_iq2_xxs_q8_K
000000000007bcc4 T ggml_vec_dot_iq2_xxs_q8_K_generic
00000000000d2548 T ggml_vec_dot_iq3_s_q8_K
000000000007c7c0 T ggml_vec_dot_iq3_s_q8_K_generic
00000000000d232c T ggml_vec_dot_iq3_xxs_q8_K
000000000007c5d4 T ggml_vec_dot_iq3_xxs_q8_K_generic
00000000000d2d30 T ggml_vec_dot_iq4_nl_q8_0
000000000007cf08 T ggml_vec_dot_iq4_nl_q8_0_generic
00000000000d2efc T ggml_vec_dot_iq4_xs_q8_K
000000000007cfb8 T ggml_vec_dot_iq4_xs_q8_K_generic
00000000000d02bc T ggml_vec_dot_mxfp4_q8_0
0000000000078e2c T ggml_vec_dot_mxfp4_q8_0_generic
00000000000cfcec T ggml_vec_dot_q1_0_g128_q8_0
0000000000078a1c T ggml_vec_dot_q1_0_g128_q8_0_generic
00000000000cfc0c T ggml_vec_dot_q1_0_q8_0
000000000007883c T ggml_vec_dot_q1_0_q8_0_generic
00000000000d11d0 T ggml_vec_dot_q2_K_q8_K
000000000007a528 T ggml_vec_dot_q2_K_q8_K_generic
00000000000d13f8 T ggml_vec_dot_q3_K_q8_K
000000000007afcc T ggml_vec_dot_q3_K_q8_K_generic
00000000000cfdf4 T ggml_vec_dot_q4_0_q8_0
0000000000078be0 T ggml_vec_dot_q4_0_q8_0_generic
00000000000d004c T ggml_vec_dot_q4_1_q8_1
0000000000078d0c T ggml_vec_dot_q4_1_q8_1_generic
00000000000d1740 T ggml_vec_dot_q4_K_q8_K
000000000007b300 T ggml_vec_dot_q4_K_q8_K_generic
000000000007d15c T ggml_vec_dot_q4_polar_q8_0
00000000000d04cc T ggml_vec_dot_q5_0_q8_0
0000000000078ef0 T ggml_vec_dot_q5_0_q8_0_generic
00000000000d08fc T ggml_vec_dot_q5_1_q8_1
0000000000079194 T ggml_vec_dot_q5_1_q8_1_generic
00000000000d18d4 T ggml_vec_dot_q5_K_q8_K
000000000007b63c T ggml_vec_dot_q5_K_q8_K_generic
00000000000d1a94 T ggml_vec_dot_q6_K_q8_K
000000000007ba40 T ggml_vec_dot_q6_K_q8_K_generic
00000000000d0ca4 T ggml_vec_dot_q8_0_q8_0
0000000000079368 T ggml_vec_dot_q8_0_q8_0_generic
000000000007a210 T ggml_vec_dot_tbq3_0_f32
000000000007a39c T ggml_vec_dot_tbq4_0_f32
00000000000d0e54 T ggml_vec_dot_tq1_0_q8_K
0000000000079410 T ggml_vec_dot_tq1_0_q8_K_generic
00000000000d10a8 T ggml_vec_dot_tq2_0_q8_K
0000000000079bd0 T ggml_vec_dot_tq2_0_q8_K_generic
0000000000098828 T ggml_vec_log_soft_max_f32
0000000000097e7c T ggml_vec_silu_f32
0000000000098554 T ggml_vec_soft_max_f32
000000000009811c T ggml_vec_swiglu_f32
000000000005376c T _init
                 U isspace
                 U isxdigit
00000000000c2054 T llamafile_sgemm
                 U log
                 U log2
                 U logf
                 U malloc
                 U memchr
                 U memcpy
                 U memmove
                 U memset
                 U powf
                 U pthread_cond_broadcast
                 U pthread_cond_destroy
                 U pthread_cond_init
                 U pthread_cond_wait
                 U pthread_create
                 U pthread_getaffinity_np
                 U pthread_getspecific
                 U pthread_join
                 U pthread_key_create
                 U pthread_mutex_destroy
                 U pthread_mutex_init
                 U pthread_mutex_lock
                 U pthread_mutex_unlock
                 U pthread_once
                 U pthread_self
                 U pthread_setaffinity_np
                 U pthread_setschedparam
                 U pthread_setspecific
00000000000c1298 T qjl_active_simd
00000000000c14ec T qjl_bf16_to_fp32
00000000000c1b74 T qjl_dequantize_row_neon
00000000000c172c T qjl_dequantize_row_ref
00000000000c14b0 T qjl_fp32_to_bf16
00000000000c12a4 T qjl_make_projection_mt
00000000000c18cc T qjl_quantize_row_neon
00000000000c14f8 T qjl_quantize_row_ref
00000000000c1290 T qjl_quantize_rows
00000000000c1b24 T qjl_quantize_rows_neon
00000000000c15f0 T qjl_quantize_rows_ref
00000000000c1294 T qjl_score_qk
00000000000c1ee0 T qjl_score_qk_neon
00000000000c1c94 T qjl_score_qk_ref
                 U quantize_iq4_xs
00000000000c0f28 T quantize_qjl1_256
000000000007d144 T quantize_row_iq4_nl
                 U quantize_row_iq4_nl_ref
000000000007d148 T quantize_row_iq4_xs
0000000000078810 T quantize_row_mxfp4
                 U quantize_row_mxfp4_ref
00000000000787f0 T quantize_row_q1_0
00000000000787f4 T quantize_row_q1_0_g128
                 U quantize_row_q1_0_g128_ref
                 U quantize_row_q1_0_ref
0000000000078814 T quantize_row_q2_K
                 U quantize_row_q2_K_ref
0000000000078818 T quantize_row_q3_K
                 U quantize_row_q3_K_ref
00000000000787f8 T quantize_row_q4_0
                 U quantize_row_q4_0_ref
00000000000787fc T quantize_row_q4_1
                 U quantize_row_q4_1_ref
000000000007881c T quantize_row_q4_K
                 U quantize_row_q4_K_ref
000000000007d158 T quantize_row_q4_polar
                 U quantize_row_q4_polar_ref
0000000000078800 T quantize_row_q5_0
                 U quantize_row_q5_0_ref
0000000000078804 T quantize_row_q5_1
                 U quantize_row_q5_1_ref
0000000000078820 T quantize_row_q5_K
                 U quantize_row_q5_K_ref
0000000000078824 T quantize_row_q6_K
                 U quantize_row_q6_K_ref
00000000000cf840 T quantize_row_q8_0
0000000000078808 T quantize_row_q8_0_generic
                 U quantize_row_q8_0_ref
00000000000cf9f8 T quantize_row_q8_1
000000000007880c T quantize_row_q8_1_generic
                 U quantize_row_q8_1_ref
00000000000cfc08 T quantize_row_q8_K
0000000000078838 T quantize_row_q8_K_generic
                 U quantize_row_q8_K_ref
00000000000c0d90 T quantize_row_qjl1_256
00000000000c0cb4 T quantize_row_qjl1_256_ref
0000000000078830 T quantize_row_tbq3_0
                 U quantize_row_tbq3_0_ref
0000000000078834 T quantize_row_tbq4_0
                 U quantize_row_tbq4_0_ref
0000000000078828 T quantize_row_tq1_0
                 U quantize_row_tq1_0_ref
000000000007882c T quantize_row_tq2_0
                 U quantize_row_tq2_0_ref
                 U realloc
                 U sin
                 U sinf
                 U snprintf
                 U stat
                 U stderr
                 U strchr
                 U strcmp
                 U strerror
                 U strlen
                 U strtod
                 U strtof
                 U strtol
                 U strtold
                 U strtoll
                 U strtoul
                 U strtoull
                 U swprintf
                 U syscall
                 U sysconf
                 U tanhf
                 U _Unwind_DeleteException
                 U _Unwind_GetIP
                 U _Unwind_GetLanguageSpecificData
                 U _Unwind_GetRegionStart
                 U _Unwind_RaiseException
                 U _Unwind_Resume
                 U _Unwind_SetGR
                 U _Unwind_SetIP
                 U vfprintf
                 U wcstod
                 U wcstof
                 U wcstol
                 U wcstold
                 U wcstoll
                 U wcstoul
                 U wcstoull
000000000005c6e0 T _Z19ggml_quantize_mat_tILl4EL9ggml_type15EEvPKfPvll
000000000005c6d0 T _Z19ggml_quantize_mat_tILl4EL9ggml_type8EEvPKfPvll
000000000005c6e8 T _Z19ggml_quantize_mat_tILl8EL9ggml_type15EEvPKfPvll
000000000005c6d8 T _Z19ggml_quantize_mat_tILl8EL9ggml_type8EEvPKfPvll
000000000006825c T _Z35ggml_backend_cpu_repack_buffer_typev
0000000000058c9c T _Z39ggml_backend_cpu_get_extra_buffer_typesv
                 U _ZdaPv
                 U _ZdlPv
000000000005bbf0 W _ZN31ggml_backend_cpu_device_contextC2Ev
000000000005bd10 W _ZN31ggml_backend_cpu_device_contextD2Ev
000000000007d91c T _ZN4ggml3cpu13tensor_traitsD0Ev
000000000007d918 T _ZN4ggml3cpu13tensor_traitsD1Ev
000000000007d918 T _ZN4ggml3cpu13tensor_traitsD2Ev
000000000007d924 T _ZN4ggml3cpu17extra_buffer_typeD0Ev
000000000007d920 T _ZN4ggml3cpu17extra_buffer_typeD1Ev
000000000007d920 T _ZN4ggml3cpu17extra_buffer_typeD2Ev
0000000000069848 W _ZN4ggml3cpu6repack13tensor_traitsI10block_q2_KLl8ELl8EL9ggml_type15EE15compute_forwardEP19ggml_compute_paramsP11ggml_tensor
00000000000721f8 W _ZN4ggml3cpu6repack13tensor_traitsI10block_q2_KLl8ELl8EL9ggml_type15EE15forward_mul_matEP19ggml_compute_paramsP11ggml_tensor
00000000000727ac W _ZN4ggml3cpu6repack13tensor_traitsI10block_q2_KLl8ELl8EL9ggml_type15EE18forward_mul_mat_idEP19ggml_compute_paramsP11ggml_tensor
0000000000072de4 W _ZN4ggml3cpu6repack13tensor_traitsI10block_q2_KLl8ELl8EL9ggml_type15EE25forward_mul_mat_one_chunkEP19ggml_compute_paramsP11ggml_tensorllll
0000000000069884 W _ZN4ggml3cpu6repack13tensor_traitsI10block_q2_KLl8ELl8EL9ggml_type15EE6repackEP11ggml_tensorPKvm
00000000000697bc W _ZN4ggml3cpu6repack13tensor_traitsI10block_q2_KLl8ELl8EL9ggml_type15EE9work_sizeEiPK11ggml_tensorRm
00000000000697a4 W _ZN4ggml3cpu6repack13tensor_traitsI10block_q2_KLl8ELl8EL9ggml_type15EED0Ev
0000000000068d0c W _ZN4ggml3cpu6repack13tensor_traitsI10block_q4_0Ll4ELl4EL9ggml_type8EE15compute_forwardEP19ggml_compute_paramsP11ggml_tensor
000000000006a050 W _ZN4ggml3cpu6repack13tensor_traitsI10block_q4_0Ll4ELl4EL9ggml_type8EE15forward_mul_matEP19ggml_compute_paramsP11ggml_tensor
000000000006a604 W _ZN4ggml3cpu6repack13tensor_traitsI10block_q4_0Ll4ELl4EL9ggml_type8EE18forward_mul_mat_idEP19ggml_compute_paramsP11ggml_tensor
000000000006ac40 W _ZN4ggml3cpu6repack13tensor_traitsI10block_q4_0Ll4ELl4EL9ggml_type8EE25forward_mul_mat_one_chunkEP19ggml_compute_paramsP11ggml_tensorllll
0000000000068d48 W _ZN4ggml3cpu6repack13tensor_traitsI10block_q4_0Ll4ELl4EL9ggml_type8EE6repackEP11ggml_tensorPKvm
0000000000068c80 W _ZN4ggml3cpu6repack13tensor_traitsI10block_q4_0Ll4ELl4EL9ggml_type8EE9work_sizeEiPK11ggml_tensorRm
0000000000068c68 W _ZN4ggml3cpu6repack13tensor_traitsI10block_q4_0Ll4ELl4EL9ggml_type8EED0Ev
0000000000068e4c W _ZN4ggml3cpu6repack13tensor_traitsI10block_q4_0Ll8ELl4EL9ggml_type8EE15compute_forwardEP19ggml_compute_paramsP11ggml_tensor
000000000006aeb8 W _ZN4ggml3cpu6repack13tensor_traitsI10block_q4_0Ll8ELl4EL9ggml_type8EE15forward_mul_matEP19ggml_compute_paramsP11ggml_tensor
000000000006b46c W _ZN4ggml3cpu6repack13tensor_traitsI10block_q4_0Ll8ELl4EL9ggml_type8EE18forward_mul_mat_idEP19ggml_compute_paramsP11ggml_tensor
000000000006baa8 W _ZN4ggml3cpu6repack13tensor_traitsI10block_q4_0Ll8ELl4EL9ggml_type8EE25forward_mul_mat_one_chunkEP19ggml_compute_paramsP11ggml_tensorllll
0000000000068e88 W _ZN4ggml3cpu6repack13tensor_traitsI10block_q4_0Ll8ELl4EL9ggml_type8EE6repackEP11ggml_tensorPKvm
0000000000068dc0 W _ZN4ggml3cpu6repack13tensor_traitsI10block_q4_0Ll8ELl4EL9ggml_type8EE9work_sizeEiPK11ggml_tensorRm
0000000000068da8 W _ZN4ggml3cpu6repack13tensor_traitsI10block_q4_0Ll8ELl4EL9ggml_type8EED0Ev
0000000000068f8c W _ZN4ggml3cpu6repack13tensor_traitsI10block_q4_0Ll8ELl8EL9ggml_type8EE15compute_forwardEP19ggml_compute_paramsP11ggml_tensor
000000000006bd20 W _ZN4ggml3cpu6repack13tensor_traitsI10block_q4_0Ll8ELl8EL9ggml_type8EE15forward_mul_matEP19ggml_compute_paramsP11ggml_tensor
000000000006c2d4 W _ZN4ggml3cpu6repack13tensor_traitsI10block_q4_0Ll8ELl8EL9ggml_type8EE18forward_mul_mat_idEP19ggml_compute_paramsP11ggml_tensor
000000000006c910 W _ZN4ggml3cpu6repack13tensor_traitsI10block_q4_0Ll8ELl8EL9ggml_type8EE25forward_mul_mat_one_chunkEP19ggml_compute_paramsP11ggml_tensorllll
0000000000068fc8 W _ZN4ggml3cpu6repack13tensor_traitsI10block_q4_0Ll8ELl8EL9ggml_type8EE6repackEP11ggml_tensorPKvm
0000000000068f00 W _ZN4ggml3cpu6repack13tensor_traitsI10block_q4_0Ll8ELl8EL9ggml_type8EE9work_sizeEiPK11ggml_tensorRm
0000000000068ee8 W _ZN4ggml3cpu6repack13tensor_traitsI10block_q4_0Ll8ELl8EL9ggml_type8EED0Ev
00000000000690c8 W _ZN4ggml3cpu6repack13tensor_traitsI10block_q4_KLl4ELl8EL9ggml_type15EE15compute_forwardEP19ggml_compute_paramsP11ggml_tensor
000000000006cb88 W _ZN4ggml3cpu6repack13tensor_traitsI10block_q4_KLl4ELl8EL9ggml_type15EE15forward_mul_matEP19ggml_compute_paramsP11ggml_tensor
000000000006d13c W _ZN4ggml3cpu6repack13tensor_traitsI10block_q4_KLl4ELl8EL9ggml_type15EE18forward_mul_mat_idEP19ggml_compute_paramsP11ggml_tensor
000000000006d778 W _ZN4ggml3cpu6repack13tensor_traitsI10block_q4_KLl4ELl8EL9ggml_type15EE25forward_mul_mat_one_chunkEP19ggml_compute_paramsP11ggml_tensorllll
0000000000069104 W _ZN4ggml3cpu6repack13tensor_traitsI10block_q4_KLl4ELl8EL9ggml_type15EE6repackEP11ggml_tensorPKvm
000000000006903c W _ZN4ggml3cpu6repack13tensor_traitsI10block_q4_KLl4ELl8EL9ggml_type15EE9work_sizeEiPK11ggml_tensorRm
0000000000069024 W _ZN4ggml3cpu6repack13tensor_traitsI10block_q4_KLl4ELl8EL9ggml_type15EED0Ev
0000000000069208 W _ZN4ggml3cpu6repack13tensor_traitsI10block_q4_KLl8ELl8EL9ggml_type15EE15compute_forwardEP19ggml_compute_paramsP11ggml_tensor
000000000006d9f0 W _ZN4ggml3cpu6repack13tensor_traitsI10block_q4_KLl8ELl8EL9ggml_type15EE15forward_mul_matEP19ggml_compute_paramsP11ggml_tensor
000000000006dfa4 W _ZN4ggml3cpu6repack13tensor_traitsI10block_q4_KLl8ELl8EL9ggml_type15EE18forward_mul_mat_idEP19ggml_compute_paramsP11ggml_tensor
000000000006e5e0 W _ZN4ggml3cpu6repack13tensor_traitsI10block_q4_KLl8ELl8EL9ggml_type15EE25forward_mul_mat_one_chunkEP19ggml_compute_paramsP11ggml_tensorllll
0000000000069244 W _ZN4ggml3cpu6repack13tensor_traitsI10block_q4_KLl8ELl8EL9ggml_type15EE6repackEP11ggml_tensorPKvm
000000000006917c W _ZN4ggml3cpu6repack13tensor_traitsI10block_q4_KLl8ELl8EL9ggml_type15EE9work_sizeEiPK11ggml_tensorRm
0000000000069164 W _ZN4ggml3cpu6repack13tensor_traitsI10block_q4_KLl8ELl8EL9ggml_type15EED0Ev
0000000000069348 W _ZN4ggml3cpu6repack13tensor_traitsI10block_q5_KLl4ELl8EL9ggml_type15EE15compute_forwardEP19ggml_compute_paramsP11ggml_tensor
000000000006e858 W _ZN4ggml3cpu6repack13tensor_traitsI10block_q5_KLl4ELl8EL9ggml_type15EE15forward_mul_matEP19ggml_compute_paramsP11ggml_tensor
000000000006ee0c W _ZN4ggml3cpu6repack13tensor_traitsI10block_q5_KLl4ELl8EL9ggml_type15EE18forward_mul_mat_idEP19ggml_compute_paramsP11ggml_tensor
000000000006f448 W _ZN4ggml3cpu6repack13tensor_traitsI10block_q5_KLl4ELl8EL9ggml_type15EE25forward_mul_mat_one_chunkEP19ggml_compute_paramsP11ggml_tensorllll
0000000000069384 W _ZN4ggml3cpu6repack13tensor_traitsI10block_q5_KLl4ELl8EL9ggml_type15EE6repackEP11ggml_tensorPKvm
00000000000692bc W _ZN4ggml3cpu6repack13tensor_traitsI10block_q5_KLl4ELl8EL9ggml_type15EE9work_sizeEiPK11ggml_tensorRm
00000000000692a4 W _ZN4ggml3cpu6repack13tensor_traitsI10block_q5_KLl4ELl8EL9ggml_type15EED0Ev
0000000000069488 W _ZN4ggml3cpu6repack13tensor_traitsI10block_q5_KLl8ELl8EL9ggml_type15EE15compute_forwardEP19ggml_compute_paramsP11ggml_tensor
000000000006f6c0 W _ZN4ggml3cpu6repack13tensor_traitsI10block_q5_KLl8ELl8EL9ggml_type15EE15forward_mul_matEP19ggml_compute_paramsP11ggml_tensor
000000000006fc74 W _ZN4ggml3cpu6repack13tensor_traitsI10block_q5_KLl8ELl8EL9ggml_type15EE18forward_mul_mat_idEP19ggml_compute_paramsP11ggml_tensor
00000000000702b0 W _ZN4ggml3cpu6repack13tensor_traitsI10block_q5_KLl8ELl8EL9ggml_type15EE25forward_mul_mat_one_chunkEP19ggml_compute_paramsP11ggml_tensorllll
00000000000694c4 W _ZN4ggml3cpu6repack13tensor_traitsI10block_q5_KLl8ELl8EL9ggml_type15EE6repackEP11ggml_tensorPKvm
00000000000693fc W _ZN4ggml3cpu6repack13tensor_traitsI10block_q5_KLl8ELl8EL9ggml_type15EE9work_sizeEiPK11ggml_tensorRm
00000000000693e4 W _ZN4ggml3cpu6repack13tensor_traitsI10block_q5_KLl8ELl8EL9ggml_type15EED0Ev
00000000000695c8 W _ZN4ggml3cpu6repack13tensor_traitsI10block_q6_KLl4ELl8EL9ggml_type15EE15compute_forwardEP19ggml_compute_paramsP11ggml_tensor
0000000000070528 W _ZN4ggml3cpu6repack13tensor_traitsI10block_q6_KLl4ELl8EL9ggml_type15EE15forward_mul_matEP19ggml_compute_paramsP11ggml_tensor
0000000000070adc W _ZN4ggml3cpu6repack13tensor_traitsI10block_q6_KLl4ELl8EL9ggml_type15EE18forward_mul_mat_idEP19ggml_compute_paramsP11ggml_tensor
0000000000071118 W _ZN4ggml3cpu6repack13tensor_traitsI10block_q6_KLl4ELl8EL9ggml_type15EE25forward_mul_mat_one_chunkEP19ggml_compute_paramsP11ggml_tensorllll
0000000000069604 W _ZN4ggml3cpu6repack13tensor_traitsI10block_q6_KLl4ELl8EL9ggml_type15EE6repackEP11ggml_tensorPKvm
000000000006953c W _ZN4ggml3cpu6repack13tensor_traitsI10block_q6_KLl4ELl8EL9ggml_type15EE9work_sizeEiPK11ggml_tensorRm
0000000000069524 W _ZN4ggml3cpu6repack13tensor_traitsI10block_q6_KLl4ELl8EL9ggml_type15EED0Ev
0000000000069708 W _ZN4ggml3cpu6repack13tensor_traitsI10block_q6_KLl8ELl8EL9ggml_type15EE15compute_forwardEP19ggml_compute_paramsP11ggml_tensor
0000000000071390 W _ZN4ggml3cpu6repack13tensor_traitsI10block_q6_KLl8ELl8EL9ggml_type15EE15forward_mul_matEP19ggml_compute_paramsP11ggml_tensor
0000000000071944 W _ZN4ggml3cpu6repack13tensor_traitsI10block_q6_KLl8ELl8EL9ggml_type15EE18forward_mul_mat_idEP19ggml_compute_paramsP11ggml_tensor
0000000000071f80 W _ZN4ggml3cpu6repack13tensor_traitsI10block_q6_KLl8ELl8EL9ggml_type15EE25forward_mul_mat_one_chunkEP19ggml_compute_paramsP11ggml_tensorllll
0000000000069744 W _ZN4ggml3cpu6repack13tensor_traitsI10block_q6_KLl8ELl8EL9ggml_type15EE6repackEP11ggml_tensorPKvm
000000000006967c W _ZN4ggml3cpu6repack13tensor_traitsI10block_q6_KLl8ELl8EL9ggml_type15EE9work_sizeEiPK11ggml_tensorRm
0000000000069664 W _ZN4ggml3cpu6repack13tensor_traitsI10block_q6_KLl8ELl8EL9ggml_type15EED0Ev
0000000000069e74 W _ZN4ggml3cpu6repack13tensor_traitsI10block_q8_0Ll4ELl4EL9ggml_type8EE15compute_forwardEP19ggml_compute_paramsP11ggml_tensor
00000000000769b8 W _ZN4ggml3cpu6repack13tensor_traitsI10block_q8_0Ll4ELl4EL9ggml_type8EE15forward_mul_matEP19ggml_compute_paramsP11ggml_tensor
0000000000076f6c W _ZN4ggml3cpu6repack13tensor_traitsI10block_q8_0Ll4ELl4EL9ggml_type8EE18forward_mul_mat_idEP19ggml_compute_paramsP11ggml_tensor
00000000000775a8 W _ZN4ggml3cpu6repack13tensor_traitsI10block_q8_0Ll4ELl4EL9ggml_type8EE25forward_mul_mat_one_chunkEP19ggml_compute_paramsP11ggml_tensorllll
0000000000069eb0 W _ZN4ggml3cpu6repack13tensor_traitsI10block_q8_0Ll4ELl4EL9ggml_type8EE6repackEP11ggml_tensorPKvm
0000000000069de8 W _ZN4ggml3cpu6repack13tensor_traitsI10block_q8_0Ll4ELl4EL9ggml_type8EE9work_sizeEiPK11ggml_tensorRm
0000000000069dd0 W _ZN4ggml3cpu6repack13tensor_traitsI10block_q8_0Ll4ELl4EL9ggml_type8EED0Ev
0000000000069fb4 W _ZN4ggml3cpu6repack13tensor_traitsI10block_q8_0Ll8ELl4EL9ggml_type8EE15compute_forwardEP19ggml_compute_paramsP11ggml_tensor
0000000000077820 W _ZN4ggml3cpu6repack13tensor_traitsI10block_q8_0Ll8ELl4EL9ggml_type8EE15forward_mul_matEP19ggml_compute_paramsP11ggml_tensor
0000000000077dd4 W _ZN4ggml3cpu6repack13tensor_traitsI10block_q8_0Ll8ELl4EL9ggml_type8EE18forward_mul_mat_idEP19ggml_compute_paramsP11ggml_tensor
0000000000078410 W _ZN4ggml3cpu6repack13tensor_traitsI10block_q8_0Ll8ELl4EL9ggml_type8EE25forward_mul_mat_one_chunkEP19ggml_compute_paramsP11ggml_tensorllll
0000000000069ff0 W _ZN4ggml3cpu6repack13tensor_traitsI10block_q8_0Ll8ELl4EL9ggml_type8EE6repackEP11ggml_tensorPKvm
0000000000069f28 W _ZN4ggml3cpu6repack13tensor_traitsI10block_q8_0Ll8ELl4EL9ggml_type8EE9work_sizeEiPK11ggml_tensorRm
0000000000069f10 W _ZN4ggml3cpu6repack13tensor_traitsI10block_q8_0Ll8ELl4EL9ggml_type8EED0Ev
0000000000069bfc W _ZN4ggml3cpu6repack13tensor_traitsI11block_mxfp4Ll4ELl4EL9ggml_type8EE15compute_forwardEP19ggml_compute_paramsP11ggml_tensor
0000000000074d00 W _ZN4ggml3cpu6repack13tensor_traitsI11block_mxfp4Ll4ELl4EL9ggml_type8EE15forward_mul_matEP19ggml_compute_paramsP11ggml_tensor
00000000000752b4 W _ZN4ggml3cpu6repack13tensor_traitsI11block_mxfp4Ll4ELl4EL9ggml_type8EE18forward_mul_mat_idEP19ggml_compute_paramsP11ggml_tensor
00000000000758f0 W _ZN4ggml3cpu6repack13tensor_traitsI11block_mxfp4Ll4ELl4EL9ggml_type8EE25forward_mul_mat_one_chunkEP19ggml_compute_paramsP11ggml_tensorllll
0000000000069c38 W _ZN4ggml3cpu6repack13tensor_traitsI11block_mxfp4Ll4ELl4EL9ggml_type8EE6repackEP11ggml_tensorPKvm
0000000000069b70 W _ZN4ggml3cpu6repack13tensor_traitsI11block_mxfp4Ll4ELl4EL9ggml_type8EE9work_sizeEiPK11ggml_tensorRm
0000000000069b58 W _ZN4ggml3cpu6repack13tensor_traitsI11block_mxfp4Ll4ELl4EL9ggml_type8EED0Ev
0000000000069d38 W _ZN4ggml3cpu6repack13tensor_traitsI11block_mxfp4Ll8ELl8EL9ggml_type8EE15compute_forwardEP19ggml_compute_paramsP11ggml_tensor
0000000000075b68 W _ZN4ggml3cpu6repack13tensor_traitsI11block_mxfp4Ll8ELl8EL9ggml_type8EE15forward_mul_matEP19ggml_compute_paramsP11ggml_tensor
000000000007611c W _ZN4ggml3cpu6repack13tensor_traitsI11block_mxfp4Ll8ELl8EL9ggml_type8EE18forward_mul_mat_idEP19ggml_compute_paramsP11ggml_tensor
0000000000076754 W _ZN4ggml3cpu6repack13tensor_traitsI11block_mxfp4Ll8ELl8EL9ggml_type8EE25forward_mul_mat_one_chunkEP19ggml_compute_paramsP11ggml_tensorllll
0000000000069d74 W _ZN4ggml3cpu6repack13tensor_traitsI11block_mxfp4Ll8ELl8EL9ggml_type8EE6repackEP11ggml_tensorPKvm
0000000000069cac W _ZN4ggml3cpu6repack13tensor_traitsI11block_mxfp4Ll8ELl8EL9ggml_type8EE9work_sizeEiPK11ggml_tensorRm
0000000000069c94 W _ZN4ggml3cpu6repack13tensor_traitsI11block_mxfp4Ll8ELl8EL9ggml_type8EED0Ev
0000000000069984 W _ZN4ggml3cpu6repack13tensor_traitsI12block_iq4_nlLl4ELl4EL9ggml_type8EE15compute_forwardEP19ggml_compute_paramsP11ggml_tensor
0000000000073048 W _ZN4ggml3cpu6repack13tensor_traitsI12block_iq4_nlLl4ELl4EL9ggml_type8EE15forward_mul_matEP19ggml_compute_paramsP11ggml_tensor
00000000000735fc W _ZN4ggml3cpu6repack13tensor_traitsI12block_iq4_nlLl4ELl4EL9ggml_type8EE18forward_mul_mat_idEP19ggml_compute_paramsP11ggml_tensor
0000000000073c38 W _ZN4ggml3cpu6repack13tensor_traitsI12block_iq4_nlLl4ELl4EL9ggml_type8EE25forward_mul_mat_one_chunkEP19ggml_compute_paramsP11ggml_tensorllll
00000000000699c0 W _ZN4ggml3cpu6repack13tensor_traitsI12block_iq4_nlLl4ELl4EL9ggml_type8EE6repackEP11ggml_tensorPKvm
00000000000698f8 W _ZN4ggml3cpu6repack13tensor_traitsI12block_iq4_nlLl4ELl4EL9ggml_type8EE9work_sizeEiPK11ggml_tensorRm
00000000000698e0 W _ZN4ggml3cpu6repack13tensor_traitsI12block_iq4_nlLl4ELl4EL9ggml_type8EED0Ev
0000000000069ac0 W _ZN4ggml3cpu6repack13tensor_traitsI12block_iq4_nlLl8ELl8EL9ggml_type8EE15compute_forwardEP19ggml_compute_paramsP11ggml_tensor
0000000000073eb0 W _ZN4ggml3cpu6repack13tensor_traitsI12block_iq4_nlLl8ELl8EL9ggml_type8EE15forward_mul_matEP19ggml_compute_paramsP11ggml_tensor
0000000000074464 W _ZN4ggml3cpu6repack13tensor_traitsI12block_iq4_nlLl8ELl8EL9ggml_type8EE18forward_mul_mat_idEP19ggml_compute_paramsP11ggml_tensor
0000000000074a9c W _ZN4ggml3cpu6repack13tensor_traitsI12block_iq4_nlLl8ELl8EL9ggml_type8EE25forward_mul_mat_one_chunkEP19ggml_compute_paramsP11ggml_tensorllll
0000000000069afc W _ZN4ggml3cpu6repack13tensor_traitsI12block_iq4_nlLl8ELl8EL9ggml_type8EE6repackEP11ggml_tensorPKvm
0000000000069a34 W _ZN4ggml3cpu6repack13tensor_traitsI12block_iq4_nlLl8ELl8EL9ggml_type8EE9work_sizeEiPK11ggml_tensorRm
0000000000069a1c W _ZN4ggml3cpu6repack13tensor_traitsI12block_iq4_nlLl8ELl8EL9ggml_type8EED0Ev
00000000000786a0 W _ZN4ggml3cpu6repack17extra_buffer_type11supports_opEP19ggml_backend_devicePK11ggml_tensor
000000000007878c W _ZN4ggml3cpu6repack17extra_buffer_type17get_tensor_traitsEPK11ggml_tensor
0000000000078688 W _ZN4ggml3cpu6repack17extra_buffer_typeD0Ev
0000000000068228 T _ZN4ggml3cpu6repack4gemmI10block_q2_KLl8ELl8EL9ggml_type15EEEviPfmPKvS7_ii
000000000006821c T _ZN4ggml3cpu6repack4gemmI10block_q4_0Ll4ELl4EL9ggml_type8EEEviPfmPKvS7_ii
0000000000068220 T _ZN4ggml3cpu6repack4gemmI10block_q4_0Ll8ELl4EL9ggml_type8EEEviPfmPKvS7_ii
0000000000068224 T _ZN4ggml3cpu6repack4gemmI10block_q4_0Ll8ELl8EL9ggml_type8EEEviPfmPKvS7_ii
000000000006822c T _ZN4ggml3cpu6repack4gemmI10block_q4_KLl4ELl8EL9ggml_type15EEEviPfmPKvS7_ii
0000000000068230 T _ZN4ggml3cpu6repack4gemmI10block_q4_KLl8ELl8EL9ggml_type15EEEviPfmPKvS7_ii
0000000000068234 T _ZN4ggml3cpu6repack4gemmI10block_q5_KLl4ELl8EL9ggml_type15EEEviPfmPKvS7_ii
0000000000068238 T _ZN4ggml3cpu6repack4gemmI10block_q5_KLl8ELl8EL9ggml_type15EEEviPfmPKvS7_ii
000000000006823c T _ZN4ggml3cpu6repack4gemmI10block_q6_KLl4ELl8EL9ggml_type15EEEviPfmPKvS7_ii
0000000000068240 T _ZN4ggml3cpu6repack4gemmI10block_q6_KLl8ELl8EL9ggml_type15EEEviPfmPKvS7_ii
0000000000068254 T _ZN4ggml3cpu6repack4gemmI10block_q8_0Ll4ELl4EL9ggml_type8EEEviPfmPKvS7_ii
0000000000068258 T _ZN4ggml3cpu6repack4gemmI10block_q8_0Ll8ELl4EL9ggml_type8EEEviPfmPKvS7_ii
000000000006824c T _ZN4ggml3cpu6repack4gemmI11block_mxfp4Ll4ELl4EL9ggml_type8EEEviPfmPKvS7_ii
0000000000068250 T _ZN4ggml3cpu6repack4gemmI11block_mxfp4Ll8ELl8EL9ggml_type8EEEviPfmPKvS7_ii
0000000000068244 T _ZN4ggml3cpu6repack4gemmI12block_iq4_nlLl4ELl4EL9ggml_type8EEEviPfmPKvS7_ii
0000000000068248 T _ZN4ggml3cpu6repack4gemmI12block_iq4_nlLl8ELl8EL9ggml_type8EEEviPfmPKvS7_ii
00000000000681e8 T _ZN4ggml3cpu6repack4gemvI10block_q2_KLl8ELl8EL9ggml_type15EEEviPfmPKvS7_ii
00000000000681dc T _ZN4ggml3cpu6repack4gemvI10block_q4_0Ll4ELl4EL9ggml_type8EEEviPfmPKvS7_ii
00000000000681e0 T _ZN4ggml3cpu6repack4gemvI10block_q4_0Ll8ELl4EL9ggml_type8EEEviPfmPKvS7_ii
00000000000681e4 T _ZN4ggml3cpu6repack4gemvI10block_q4_0Ll8ELl8EL9ggml_type8EEEviPfmPKvS7_ii
00000000000681ec T _ZN4ggml3cpu6repack4gemvI10block_q4_KLl4ELl8EL9ggml_type15EEEviPfmPKvS7_ii
00000000000681f0 T _ZN4ggml3cpu6repack4gemvI10block_q4_KLl8ELl8EL9ggml_type15EEEviPfmPKvS7_ii
00000000000681f4 T _ZN4ggml3cpu6repack4gemvI10block_q5_KLl4ELl8EL9ggml_type15EEEviPfmPKvS7_ii
00000000000681f8 T _ZN4ggml3cpu6repack4gemvI10block_q5_KLl8ELl8EL9ggml_type15EEEviPfmPKvS7_ii
00000000000681fc T _ZN4ggml3cpu6repack4gemvI10block_q6_KLl4ELl8EL9ggml_type15EEEviPfmPKvS7_ii
0000000000068200 T _ZN4ggml3cpu6repack4gemvI10block_q6_KLl8ELl8EL9ggml_type15EEEviPfmPKvS7_ii
0000000000068214 T _ZN4ggml3cpu6repack4gemvI10block_q8_0Ll4ELl4EL9ggml_type8EEEviPfmPKvS7_ii
0000000000068218 T _ZN4ggml3cpu6repack4gemvI10block_q8_0Ll8ELl4EL9ggml_type8EEEviPfmPKvS7_ii
000000000006820c T _ZN4ggml3cpu6repack4gemvI11block_mxfp4Ll4ELl4EL9ggml_type8EEEviPfmPKvS7_ii
0000000000068210 T _ZN4ggml3cpu6repack4gemvI11block_mxfp4Ll8ELl8EL9ggml_type8EEEviPfmPKvS7_ii
0000000000068204 T _ZN4ggml3cpu6repack4gemvI12block_iq4_nlLl4ELl4EL9ggml_type8EEEviPfmPKvS7_ii
0000000000068208 T _ZN4ggml3cpu6repack4gemvI12block_iq4_nlLl8ELl8EL9ggml_type8EEEviPfmPKvS7_ii
00000000000665cc T _ZN4ggml3cpu6repack6repackI10block_q2_KLl8ELl8EEEiP11ggml_tensorPKvm
0000000000065a34 T _ZN4ggml3cpu6repack6repackI10block_q4_0Ll4ELl4EEEiP11ggml_tensorPKvm
0000000000065cfc T _ZN4ggml3cpu6repack6repackI10block_q4_0Ll8ELl4EEEiP11ggml_tensorPKvm
0000000000065d0c T _ZN4ggml3cpu6repack6repackI10block_q4_0Ll8ELl8EEEiP11ggml_tensorPKvm
00000000000665bc T _ZN4ggml3cpu6repack6repackI10block_q4_KLl4ELl8EEEiP11ggml_tensorPKvm
0000000000065f84 T _ZN4ggml3cpu6repack6repackI10block_q4_KLl8ELl8EEEiP11ggml_tensorPKvm
00000000000669c0 T _ZN4ggml3cpu6repack6repackI10block_q5_KLl4ELl8EEEiP11ggml_tensorPKvm
00000000000670a8 T _ZN4ggml3cpu6repack6repackI10block_q5_KLl8ELl8EEEiP11ggml_tensorPKvm
00000000000670b8 T _ZN4ggml3cpu6repack6repackI10block_q6_KLl4ELl8EEEiP11ggml_tensorPKvm
00000000000676cc T _ZN4ggml3cpu6repack6repackI10block_q6_KLl8ELl8EEEiP11ggml_tensorPKvm
0000000000067ef0 T _ZN4ggml3cpu6repack6repackI10block_q8_0Ll4ELl4EEEiP11ggml_tensorPKvm
00000000000681cc T _ZN4ggml3cpu6repack6repackI10block_q8_0Ll8ELl4EEEiP11ggml_tensorPKvm
0000000000067af0 T _ZN4ggml3cpu6repack6repackI11block_mxfp4Ll4ELl4EEEiP11ggml_tensorPKvm
0000000000067ccc T _ZN4ggml3cpu6repack6repackI11block_mxfp4Ll8ELl8EEEiP11ggml_tensorPKvm
00000000000676dc T _ZN4ggml3cpu6repack6repackI12block_iq4_nlLl4ELl4EEEiP11ggml_tensorPKvm
00000000000678c0 T _ZN4ggml3cpu6repack6repackI12block_iq4_nlLl8ELl8EEEiP11ggml_tensorPKvm
                 U _Znam
000000000005bd3c W _ZNKSt3__16vectorI20ggml_backend_featureNS_9allocatorIS1_EEE20__throw_length_errorB8ne180100Ev
000000000005bb44 W _ZNKSt3__16vectorIP24ggml_backend_buffer_typeNS_9allocatorIS2_EEE20__throw_length_errorB8ne180100Ev
00000000000bec14 W _ZNSt3__111__introsortINS_17_ClassicAlgPolicyER11cmp_argsortIL15ggml_sort_order0EEPiLb0EEEvT1_S7_T0_NS_15iterator_traitsIS7_E15difference_typeEb
00000000000bfac4 W _ZNSt3__111__introsortINS_17_ClassicAlgPolicyER11cmp_argsortIL15ggml_sort_order1EEPiLb0EEEvT1_S7_T0_NS_15iterator_traitsIS7_E15difference_typeEb
00000000000bf784 W _ZNSt3__119__partial_sort_implB8ne180100INS_17_ClassicAlgPolicyER11cmp_argsortIL15ggml_sort_order0EEPiS6_EET1_S7_S7_T2_OT0_
00000000000c0634 W _ZNSt3__119__partial_sort_implB8ne180100INS_17_ClassicAlgPolicyER11cmp_argsortIL15ggml_sort_order1EEPiS6_EET1_S7_S7_T2_OT0_
00000000000c0974 W _ZNSt3__119__partial_sort_implB8ne180100INS_17_ClassicAlgPolicyER9cmp_top_kPiS4_EET1_S5_S5_T2_OT0_
00000000000bf3c8 W _ZNSt3__127__insertion_sort_incompleteB8ne180100INS_17_ClassicAlgPolicyER11cmp_argsortIL15ggml_sort_order0EEPiEEbT1_S7_T0_
00000000000c0278 W _ZNSt3__127__insertion_sort_incompleteB8ne180100INS_17_ClassicAlgPolicyER11cmp_argsortIL15ggml_sort_order1EEPiEEbT1_S7_T0_
000000000005bd24 W _ZNSt3__16vectorI20ggml_backend_featureNS_9allocatorIS1_EEED2B8ne180100Ev
000000000005bb2c W _ZNSt3__16vectorIP24ggml_backend_buffer_typeNS_9allocatorIS2_EEED2B8ne180100Ev
00000000000bf674 W _ZNSt3__17__sort4B8ne180100INS_17_ClassicAlgPolicyER11cmp_argsortIL15ggml_sort_order0EEPiEEvT1_S7_S7_S7_T0_
00000000000c0524 W _ZNSt3__17__sort4B8ne180100INS_17_ClassicAlgPolicyER11cmp_argsortIL15ggml_sort_order1EEPiEEvT1_S7_S7_S7_T0_
                 U _Znwm
0000000000102e98 D _ZTIN4ggml3cpu13tensor_traitsE
0000000000102ed8 D _ZTIN4ggml3cpu17extra_buffer_typeE
0000000000102d68 V _ZTIN4ggml3cpu6repack13tensor_traitsI10block_q2_KLl8ELl8EL9ggml_type15EEE
0000000000102c90 V _ZTIN4ggml3cpu6repack13tensor_traitsI10block_q4_0Ll4ELl4EL9ggml_type8EEE
0000000000102ca8 V _ZTIN4ggml3cpu6repack13tensor_traitsI10block_q4_0Ll8ELl4EL9ggml_type8EEE
0000000000102cc0 V _ZTIN4ggml3cpu6repack13tensor_traitsI10block_q4_0Ll8ELl8EL9ggml_type8EEE
0000000000102cd8 V _ZTIN4ggml3cpu6repack13tensor_traitsI10block_q4_KLl4ELl8EL9ggml_type15EEE
0000000000102cf0 V _ZTIN4ggml3cpu6repack13tensor_traitsI10block_q4_KLl8ELl8EL9ggml_type15EEE
0000000000102d08 V _ZTIN4ggml3cpu6repack13tensor_traitsI10block_q5_KLl4ELl8EL9ggml_type15EEE
0000000000102d20 V _ZTIN4ggml3cpu6repack13tensor_traitsI10block_q5_KLl8ELl8EL9ggml_type15EEE
0000000000102d38 V _ZTIN4ggml3cpu6repack13tensor_traitsI10block_q6_KLl4ELl8EL9ggml_type15EEE
0000000000102d50 V _ZTIN4ggml3cpu6repack13tensor_traitsI10block_q6_KLl8ELl8EL9ggml_type15EEE
0000000000102de0 V _ZTIN4ggml3cpu6repack13tensor_traitsI10block_q8_0Ll4ELl4EL9ggml_type8EEE
0000000000102df8 V _ZTIN4ggml3cpu6repack13tensor_traitsI10block_q8_0Ll8ELl4EL9ggml_type8EEE
0000000000102db0 V _ZTIN4ggml3cpu6repack13tensor_traitsI11block_mxfp4Ll4ELl4EL9ggml_type8EEE
0000000000102dc8 V _ZTIN4ggml3cpu6repack13tensor_traitsI11block_mxfp4Ll8ELl8EL9ggml_type8EEE
0000000000102d80 V _ZTIN4ggml3cpu6repack13tensor_traitsI12block_iq4_nlLl4ELl4EL9ggml_type8EEE
0000000000102d98 V _ZTIN4ggml3cpu6repack13tensor_traitsI12block_iq4_nlLl8ELl8EL9ggml_type8EEE
0000000000102e40 V _ZTIN4ggml3cpu6repack17extra_buffer_typeE
0000000000102c78 V _ZTIN4ggml3cpu6repack18tensor_traits_baseE
00000000000290e8 R _ZTSN4ggml3cpu13tensor_traitsE
0000000000029103 R _ZTSN4ggml3cpu17extra_buffer_typeE
0000000000020a55 V _ZTSN4ggml3cpu6repack13tensor_traitsI10block_q2_KLl8ELl8EL9ggml_type15EEE
00000000000207bb V _ZTSN4ggml3cpu6repack13tensor_traitsI10block_q4_0Ll4ELl4EL9ggml_type8EEE
0000000000020827 V _ZTSN4ggml3cpu6repack13tensor_traitsI10block_q4_0Ll8ELl4EL9ggml_type8EEE
000000000002086c V _ZTSN4ggml3cpu6repack13tensor_traitsI10block_q4_0Ll8ELl8EL9ggml_type8EEE
00000000000208b1 V _ZTSN4ggml3cpu6repack13tensor_traitsI10block_q4_KLl4ELl8EL9ggml_type15EEE
00000000000208f7 V _ZTSN4ggml3cpu6repack13tensor_traitsI10block_q4_KLl8ELl8EL9ggml_type15EEE
000000000002093d V _ZTSN4ggml3cpu6repack13tensor_traitsI10block_q5_KLl4ELl8EL9ggml_type15EEE
0000000000020983 V _ZTSN4ggml3cpu6repack13tensor_traitsI10block_q5_KLl8ELl8EL9ggml_type15EEE
00000000000209c9 V _ZTSN4ggml3cpu6repack13tensor_traitsI10block_q6_KLl4ELl8EL9ggml_type15EEE
0000000000020a0f V _ZTSN4ggml3cpu6repack13tensor_traitsI10block_q6_KLl8ELl8EL9ggml_type15EEE
0000000000020bb5 V _ZTSN4ggml3cpu6repack13tensor_traitsI10block_q8_0Ll4ELl4EL9ggml_type8EEE
0000000000020bfa V _ZTSN4ggml3cpu6repack13tensor_traitsI10block_q8_0Ll8ELl4EL9ggml_type8EEE
0000000000020b29 V _ZTSN4ggml3cpu6repack13tensor_traitsI11block_mxfp4Ll4ELl4EL9ggml_type8EEE
0000000000020b6f V _ZTSN4ggml3cpu6repack13tensor_traitsI11block_mxfp4Ll8ELl8EL9ggml_type8EEE
0000000000020a9b V _ZTSN4ggml3cpu6repack13tensor_traitsI12block_iq4_nlLl4ELl4EL9ggml_type8EEE
0000000000020ae2 V _ZTSN4ggml3cpu6repack13tensor_traitsI12block_iq4_nlLl8ELl8EL9ggml_type8EEE
0000000000020c3f V _ZTSN4ggml3cpu6repack17extra_buffer_typeE
0000000000020800 V _ZTSN4ggml3cpu6repack18tensor_traits_baseE
0000000000102e68 D _ZTVN4ggml3cpu13tensor_traitsE
0000000000102ea8 D _ZTVN4ggml3cpu17extra_buffer_typeE
0000000000102af0 V _ZTVN4ggml3cpu6repack13tensor_traitsI10block_q2_KLl8ELl8EL9ggml_type15EEE
00000000001028f8 V _ZTVN4ggml3cpu6repack13tensor_traitsI10block_q4_0Ll4ELl4EL9ggml_type8EEE
0000000000102930 V _ZTVN4ggml3cpu6repack13tensor_traitsI10block_q4_0Ll8ELl4EL9ggml_type8EEE
0000000000102968 V _ZTVN4ggml3cpu6repack13tensor_traitsI10block_q4_0Ll8ELl8EL9ggml_type8EEE
00000000001029a0 V _ZTVN4ggml3cpu6repack13tensor_traitsI10block_q4_KLl4ELl8EL9ggml_type15EEE
00000000001029d8 V _ZTVN4ggml3cpu6repack13tensor_traitsI10block_q4_KLl8ELl8EL9ggml_type15EEE
0000000000102a10 V _ZTVN4ggml3cpu6repack13tensor_traitsI10block_q5_KLl4ELl8EL9ggml_type15EEE
0000000000102a48 V _ZTVN4ggml3cpu6repack13tensor_traitsI10block_q5_KLl8ELl8EL9ggml_type15EEE
0000000000102a80 V _ZTVN4ggml3cpu6repack13tensor_traitsI10block_q6_KLl4ELl8EL9ggml_type15EEE
0000000000102ab8 V _ZTVN4ggml3cpu6repack13tensor_traitsI10block_q6_KLl8ELl8EL9ggml_type15EEE
0000000000102c08 V _ZTVN4ggml3cpu6repack13tensor_traitsI10block_q8_0Ll4ELl4EL9ggml_type8EEE
0000000000102c40 V _ZTVN4ggml3cpu6repack13tensor_traitsI10block_q8_0Ll8ELl4EL9ggml_type8EEE
0000000000102b98 V _ZTVN4ggml3cpu6repack13tensor_traitsI11block_mxfp4Ll4ELl4EL9ggml_type8EEE
0000000000102bd0 V _ZTVN4ggml3cpu6repack13tensor_traitsI11block_mxfp4Ll8ELl8EL9ggml_type8EEE
0000000000102b28 V _ZTVN4ggml3cpu6repack13tensor_traitsI12block_iq4_nlLl4ELl4EL9ggml_type8EEE
0000000000102b60 V _ZTVN4ggml3cpu6repack13tensor_traitsI12block_iq4_nlLl8ELl8EL9ggml_type8EEE
0000000000102e10 V _ZTVN4ggml3cpu6repack17extra_buffer_typeE

/tmp/aosp-cache-pin/assets/arm64-v8a/libggml.so:
0000000000073860 W __aarch64_cas16_acq
00000000000738e0 W __aarch64_cas16_acq_rel
00000000000738a0 W __aarch64_cas16_rel
0000000000073820 W __aarch64_cas16_relax
0000000000072740 W __aarch64_cas1_acq
0000000000072980 W __aarch64_cas1_acq_rel
0000000000072860 W __aarch64_cas1_rel
0000000000072620 W __aarch64_cas1_relax
0000000000072bc0 W __aarch64_cas2_acq
0000000000072e00 W __aarch64_cas2_acq_rel
0000000000072ce0 W __aarch64_cas2_rel
0000000000072aa0 W __aarch64_cas2_relax
0000000000073040 W __aarch64_cas4_acq
0000000000073280 W __aarch64_cas4_acq_rel
0000000000073160 W __aarch64_cas4_rel
0000000000072f20 W __aarch64_cas4_relax
00000000000734c0 W __aarch64_cas8_acq
0000000000073700 W __aarch64_cas8_acq_rel
00000000000735e0 W __aarch64_cas8_rel
00000000000733a0 W __aarch64_cas8_relax
00000000000727a0 W __aarch64_ldadd1_acq
00000000000729e0 W __aarch64_ldadd1_acq_rel
00000000000728c0 W __aarch64_ldadd1_rel
0000000000072680 W __aarch64_ldadd1_relax
0000000000072c20 W __aarch64_ldadd2_acq
0000000000072e60 W __aarch64_ldadd2_acq_rel
0000000000072d40 W __aarch64_ldadd2_rel
0000000000072b00 W __aarch64_ldadd2_relax
00000000000730a0 W __aarch64_ldadd4_acq
00000000000732e0 W __aarch64_ldadd4_acq_rel
00000000000731c0 W __aarch64_ldadd4_rel
0000000000072f80 W __aarch64_ldadd4_relax
0000000000073520 W __aarch64_ldadd8_acq
0000000000073760 W __aarch64_ldadd8_acq_rel
0000000000073640 W __aarch64_ldadd8_rel
0000000000073400 W __aarch64_ldadd8_relax
00000000000727d0 W __aarch64_ldclr1_acq
0000000000072a10 W __aarch64_ldclr1_acq_rel
00000000000728f0 W __aarch64_ldclr1_rel
00000000000726b0 W __aarch64_ldclr1_relax
0000000000072c50 W __aarch64_ldclr2_acq
0000000000072e90 W __aarch64_ldclr2_acq_rel
0000000000072d70 W __aarch64_ldclr2_rel
0000000000072b30 W __aarch64_ldclr2_relax
00000000000730d0 W __aarch64_ldclr4_acq
0000000000073310 W __aarch64_ldclr4_acq_rel
00000000000731f0 W __aarch64_ldclr4_rel
0000000000072fb0 W __aarch64_ldclr4_relax
0000000000073550 W __aarch64_ldclr8_acq
0000000000073790 W __aarch64_ldclr8_acq_rel
0000000000073670 W __aarch64_ldclr8_rel
0000000000073430 W __aarch64_ldclr8_relax
0000000000072800 W __aarch64_ldeor1_acq
0000000000072a40 W __aarch64_ldeor1_acq_rel
0000000000072920 W __aarch64_ldeor1_rel
00000000000726e0 W __aarch64_ldeor1_relax
0000000000072c80 W __aarch64_ldeor2_acq
0000000000072ec0 W __aarch64_ldeor2_acq_rel
0000000000072da0 W __aarch64_ldeor2_rel
0000000000072b60 W __aarch64_ldeor2_relax
0000000000073100 W __aarch64_ldeor4_acq
0000000000073340 W __aarch64_ldeor4_acq_rel
0000000000073220 W __aarch64_ldeor4_rel
0000000000072fe0 W __aarch64_ldeor4_relax
0000000000073580 W __aarch64_ldeor8_acq
00000000000737c0 W __aarch64_ldeor8_acq_rel
00000000000736a0 W __aarch64_ldeor8_rel
0000000000073460 W __aarch64_ldeor8_relax
0000000000072830 W __aarch64_ldset1_acq
0000000000072a70 W __aarch64_ldset1_acq_rel
0000000000072950 W __aarch64_ldset1_rel
0000000000072710 W __aarch64_ldset1_relax
0000000000072cb0 W __aarch64_ldset2_acq
0000000000072ef0 W __aarch64_ldset2_acq_rel
0000000000072dd0 W __aarch64_ldset2_rel
0000000000072b90 W __aarch64_ldset2_relax
0000000000073130 W __aarch64_ldset4_acq
0000000000073370 W __aarch64_ldset4_acq_rel
0000000000073250 W __aarch64_ldset4_rel
0000000000073010 W __aarch64_ldset4_relax
00000000000735b0 W __aarch64_ldset8_acq
00000000000737f0 W __aarch64_ldset8_acq_rel
00000000000736d0 W __aarch64_ldset8_rel
0000000000073490 W __aarch64_ldset8_relax
0000000000072770 W __aarch64_swp1_acq
00000000000729b0 W __aarch64_swp1_acq_rel
0000000000072890 W __aarch64_swp1_rel
0000000000072650 W __aarch64_swp1_relax
0000000000072bf0 W __aarch64_swp2_acq
0000000000072e30 W __aarch64_swp2_acq_rel
0000000000072d10 W __aarch64_swp2_rel
0000000000072ad0 W __aarch64_swp2_relax
0000000000073070 W __aarch64_swp4_acq
00000000000732b0 W __aarch64_swp4_acq_rel
0000000000073190 W __aarch64_swp4_rel
0000000000072f50 W __aarch64_swp4_relax
00000000000734f0 W __aarch64_swp8_acq
0000000000073730 W __aarch64_swp8_acq_rel
0000000000073610 W __aarch64_swp8_rel
00000000000733d0 W __aarch64_swp8_relax
                 U abort
000000000005e9f8 W __absvdi2
000000000005e9ec W __absvsi2
000000000005ea04 W __absvti2
0000000000063138 W __adddf3
0000000000062ca8 W __addhf3
000000000005ea58 W __addodi4
000000000005ea38 W __addosi4
000000000005ea78 W __addoti4
0000000000062ef4 W __addsf3
0000000000063380 W __addtf3
0000000000063764 W __addxf3
                 U aligned_alloc
000000000005df6c W __ashldi3
000000000005dddc W __ashlsi3
000000000005ded8 W __ashlti3
000000000005dfa4 W __ashrdi3
000000000005de2c W __ashrsi3
000000000005df08 W __ashrti3
0000000000071d44 W __atomic_compare_exchange
00000000000724ac W __atomic_compare_exchange_1
00000000000725ac W __atomic_compare_exchange_16
00000000000724ec W __atomic_compare_exchange_2
000000000007252c W __atomic_compare_exchange_4
000000000007256c W __atomic_compare_exchange_8
0000000000071cd0 W __atomic_exchange
000000000007241c W __atomic_exchange_1
000000000007246c W __atomic_exchange_16
0000000000072430 W __atomic_exchange_2
0000000000072444 W __atomic_exchange_4
0000000000072458 W __atomic_exchange_8
0000000000071dd4 W __atomic_fetch_add_1
0000000000071e34 W __atomic_fetch_add_16
0000000000071dec W __atomic_fetch_add_2
0000000000071e04 W __atomic_fetch_add_4
0000000000071e1c W __atomic_fetch_add_8
0000000000071f24 W __atomic_fetch_and_1
0000000000071f84 W __atomic_fetch_and_16
0000000000071f3c W __atomic_fetch_and_2
0000000000071f54 W __atomic_fetch_and_4
0000000000071f6c W __atomic_fetch_and_8
000000000007211c W __atomic_fetch_nand_1
000000000007218c W __atomic_fetch_nand_16
0000000000072138 W __atomic_fetch_nand_2
0000000000072154 W __atomic_fetch_nand_4
0000000000072170 W __atomic_fetch_nand_8
0000000000071fcc W __atomic_fetch_or_1
000000000007202c W __atomic_fetch_or_16
0000000000071fe4 W __atomic_fetch_or_2
0000000000071ffc W __atomic_fetch_or_4
0000000000072014 W __atomic_fetch_or_8
0000000000071e7c W __atomic_fetch_sub_1
0000000000071edc W __atomic_fetch_sub_16
0000000000071e94 W __atomic_fetch_sub_2
0000000000071eac W __atomic_fetch_sub_4
0000000000071ec4 W __atomic_fetch_sub_8
00000000000721dc W __atomic_fetch_umax_1
0000000000072254 W __atomic_fetch_umax_16
00000000000721fc W __atomic_fetch_umax_2
000000000007221c W __atomic_fetch_umax_4
0000000000072238 W __atomic_fetch_umax_8
00000000000722a4 W __atomic_fetch_umin_1
000000000007231c W __atomic_fetch_umin_16
00000000000722c4 W __atomic_fetch_umin_2
00000000000722e4 W __atomic_fetch_umin_4
0000000000072300 W __atomic_fetch_umin_8
0000000000072074 W __atomic_fetch_xor_1
00000000000720d4 W __atomic_fetch_xor_16
000000000007208c W __atomic_fetch_xor_2
00000000000720a4 W __atomic_fetch_xor_4
00000000000720bc W __atomic_fetch_xor_8
0000000000071c3c W __atomic_load
000000000007236c W __atomic_load_1
000000000007238c W __atomic_load_16
0000000000072374 W __atomic_load_2
000000000007237c W __atomic_load_4
0000000000072384 W __atomic_load_8
0000000000071c84 W __atomic_store
00000000000723c4 W __atomic_store_1
00000000000723e4 W __atomic_store_16
00000000000723cc W __atomic_store_2
00000000000723d4 W __atomic_store_4
00000000000723dc W __atomic_store_8
0000000000073c54 W bcmp
000000000005dd0c W __bswapdi2
000000000005dd04 W __bswapsi2
000000000005dd14 W __bswapti2
                 U calloc
000000000006930c W ceil
0000000000069268 W ceilf
00000000000691b8 W __ceilh
00000000000695f4 W ceill
00000000000694c4 W ceilq
0000000000069398 W __ceilx
                 U chdir
0000000000073c80 W __chk_fail
0000000000071bcc W __clear_cache
                 U close
                 U closedir
000000000005d74c W __clzdi2
000000000005d6e0 W __clzsi2
000000000005d7cc W __clzti2
00000000000623c8 W __cmpdf2
000000000005dd3c W __cmpdi2
0000000000062214 W __cmphf2
00000000000622f0 W __cmpsf2
000000000005dd24 W __cmpsi2
00000000000624d4 W __cmptf2
000000000005dd54 W __cmpti2
0000000000062634 W __cmpxf2
0000000000069ae8 W cos
0000000000069610 W cosf
00000000000695f8 W __cosh
000000000006a514 W cosl
000000000006a500 W cosq
000000000006a3cc W __cosx
000000000005d92c W __ctzdi2
000000000005d8b4 W __ctzsi2
000000000005d9b8 W __ctzti2
                 U __cxa_atexit
0000000000067db8 W __divdc3
0000000000065400 W __divdf3
000000000005e3a8 W __divdi3
00000000000674e0 W __divhc3
00000000000651d8 W __divhf3
000000000005e350 W __divmoddi4
000000000005e584 W __divmodsi4
000000000005e03c W __divmodti4
00000000000679b8 W __divsc3
00000000000651f4 W __divsf3
000000000005e3dc W __divsi3
0000000000068aa8 W __divtc3
0000000000065aa8 W __divtf3
000000000005e0d4 W __divti3
0000000000068180 W __divxc3
000000000006566c W __divxf3
                 U dlclose
                 U dlerror
                 U dlopen
                 U dlsym
0000000000062360 W __eqdf2
00000000000621a4 W __eqhf2
0000000000062288 W __eqsf2
0000000000062438 W __eqtf2
0000000000062570 W __eqxf2
                 U __errno_location
000000000006a6f0 W exp
000000000006ac80 W exp2
000000000006ab40 W exp2f
000000000006a9ec W __exp2h
000000000006af64 W exp2l
000000000006af50 W exp2q
000000000006ae1c W __exp2x
000000000006a540 W expf
000000000006a528 W __exph
000000000006a9d8 W expl
000000000006a9c4 W expq
000000000006a890 W __expx
000000000005f0fc W __extenddftf2
000000000005f1dc W __extenddfxf2
000000000005ec94 W __extendhfdf2
000000000005ebfc W __extendhfsf2
000000000005ed40 W __extendhftf2
000000000005ee14 W __extendhfxf2
000000000005eed0 W __extendsfdf2
000000000005ef6c W __extendsftf2
000000000005f040 W __extendsfxf2
000000000005f2b0 W __extendxftf2
000000000006af90 W fabs
000000000006af88 W fabsf
000000000006af78 W __fabsh
000000000006afb8 W fabsl
000000000006afa0 W fabsq
000000000006af98 W __fabsx
                 U fchmod
                 U fchmodat
                 U fdopendir
000000000005daf0 W __ffsdi2
000000000005da7c W __ffssi2
000000000005db78 W __ffsti2
0000000000036c94 T _fini
000000000006043c W __fixdfdi
00000000000603e8 W __fixdfsi
00000000000604a0 W __fixdfti
0000000000060174 W __fixhfdi
0000000000060104 W __fixhfsi
00000000000601e4 W __fixhfti
00000000000602ec W __fixsfdi
0000000000060288 W __fixsfsi
0000000000060350 W __fixsfti
00000000000605c4 W __fixtfdi
0000000000060538 W __fixtfsi
0000000000060650 W __fixtfti
0000000000060b8c W __fixunsdfdi
0000000000060b44 W __fixunsdfsi
0000000000060be8 W __fixunsdfti
0000000000060908 W __fixunshfdi
00000000000608a4 W __fixunshfsi
000000000006096c W __fixunshfti
0000000000060a5c W __fixunssfdi
0000000000060a00 W __fixunssfsi
0000000000060ab8 W __fixunssfti
0000000000060cf4 W __fixunstfdi
0000000000060c74 W __fixunstfsi
0000000000060d74 W __fixunstfti
0000000000060ea4 W __fixunsxfdi
0000000000060e4c W __fixunsxfsi
0000000000060f00 W __fixunsxfti
0000000000060794 W __fixxfdi
0000000000060730 W __fixxfsi
00000000000607f4 W __fixxfti
0000000000061310 W __floatdidf
00000000000611d8 W __floatdihf
000000000006128c W __floatdisf
0000000000061390 W __floatditf
00000000000613fc W __floatdixf
00000000000610d4 W __floatsidf
0000000000060fa0 W __floatsihf
0000000000061054 W __floatsisf
000000000006111c W __floatsitf
0000000000061184 W __floatsixf
0000000000061630 W __floattidf
0000000000061450 W __floattihf
0000000000061554 W __floattisf
0000000000061718 W __floattitf
0000000000061824 W __floattixf
0000000000061a38 W __floatundidf
000000000006192c W __floatundihf
00000000000619c8 W __floatundisf
0000000000061aa8 W __floatunditf
0000000000061b04 W __floatundixf
0000000000061c54 W __floatunsidf
0000000000061b48 W __floatunsihf
0000000000061be4 W __floatunsisf
0000000000061c90 W __floatunsitf
0000000000061cec W __floatunsixf
0000000000061ee8 W __floatuntidf
0000000000061d30 W __floatuntihf
0000000000061e14 W __floatuntisf
0000000000061fb4 W __floatuntitf
00000000000620bc W __floatuntixf
000000000006b148 W floor
000000000006b0a8 W floorf
000000000006afd0 W __floorh
000000000006b42c W floorl
000000000006b2fc W floorq
000000000006b1d0 W __floorx
000000000006b46c W fma
000000000006b450 W fmaf
000000000006b430 W __fmah
000000000006c190 W fmal
000000000006ba54 W fmaq
000000000006b814 W __fmax
000000000006c1f4 W fmax
000000000006c1c8 W fmaxf
000000000006c194 W __fmaxh
000000000006c368 W fmaxl
000000000006c30c W fmaxq
000000000006c220 W __fmaxx
000000000006c424 W fmin
000000000006c3f8 W fminf
000000000006c3c4 W __fminh
000000000006c5a8 W fminl
000000000006c53c W fminq
000000000006c450 W __fminx
000000000006c788 W fmod
000000000006c620 W fmodf
000000000006c604 W __fmodh
000000000006ce4c W fmodl
000000000006cba4 W fmodq
000000000006c8f8 W __fmodx
                 U fputc
                 U free
                 U fstat
                 U ftruncate
                 U fwrite
0000000000062950 W __gedf2
00000000000627c4 W __gehf2
0000000000062890 W __gesf2
                 U getcwd
                 U getenv
0000000000062b98 W __getf2
0000000000062a10 W __gexf2
                 U ggml_abort
                 U ggml_backend_cpu_reg
                 U ggml_backend_dev_backend_reg
0000000000037450 T ggml_backend_dev_by_name
0000000000037588 T ggml_backend_dev_by_type
00000000000372a0 T ggml_backend_dev_count
0000000000037330 T ggml_backend_dev_get
0000000000036f30 T ggml_backend_device_register
                 U ggml_backend_dev_init
                 U ggml_backend_dev_name
                 U ggml_backend_dev_type
00000000000376b4 T ggml_backend_init_best
000000000003766c T ggml_backend_init_by_name
0000000000037690 T ggml_backend_init_by_type
00000000000376ec T ggml_backend_load
000000000003787c T ggml_backend_load_all
0000000000037884 T ggml_backend_load_all_from_path
0000000000037170 T ggml_backend_reg_by_name
0000000000036fbc T ggml_backend_reg_count
                 U ggml_backend_reg_dev_count
                 U ggml_backend_reg_dev_get
000000000003704c T ggml_backend_reg_get
0000000000036e68 T ggml_backend_register
                 U ggml_backend_reg_name
00000000000377ec T ggml_backend_unload
                 U ggml_log_internal
000000000005f368 W __gnu_f2h_ieee
0000000000074a2c W __gnu_h2f_ieee
00000000000629b4 W __gtdf2
000000000006282c W __gthf2
00000000000628f4 W __gtsf2
0000000000062c20 W __gttf2
0000000000062ad4 W __gtxf2
0000000000036c84 T _init
                 U isxdigit
0000000000074a4c W __ledf2
0000000000074a34 W __lehf2
0000000000074a40 W __lesf2
0000000000074a58 W __letf2
0000000000074a64 W __lexf2
                 U link
000000000006d094 W log
000000000006d730 W log10
000000000006d5d0 W log10f
000000000006d464 W __log10h
000000000006da24 W log10l
000000000006da10 W log10q
000000000006d8dc W __log10x
000000000006dcbc W log2
000000000006db80 W log2f
000000000006da38 W __log2h
000000000006df94 W log2l
000000000006df80 W log2q
000000000006de4c W __log2x
000000000006cf78 W logf
000000000006ce50 W __logh
000000000006d460 W logl
000000000006d308 W logq
000000000006d1dc W __logx
000000000005dfe0 W __lshrdi3
000000000005de80 W __lshrsi3
000000000005df3c W __lshrti3
                 U lstat
0000000000074a50 W __ltdf2
0000000000074a38 W __lthf2
0000000000074a44 W __ltsf2
0000000000074a5c W __lttf2
0000000000074a68 W __ltxf2
                 U malloc
                 U memchr
0000000000073c2c W memcmp
0000000000073914 W memcpy
0000000000073dd8 W __memcpy_chk
0000000000073aa8 W memmove
0000000000073e0c W __memmove_chk
0000000000073a8c W __memset
00000000000739ec W memset
0000000000074a24 W __memset_chk
                 U mkdir
000000000005e4b4 W __moddi3
000000000005e488 W __modsi3
000000000005e974 W __modti3
00000000000668e4 W __muldc3
00000000000648ec W __muldf3
000000000005e678 W __muldi3
0000000000066448 W __mulhc3
0000000000064578 W __mulhf3
000000000005eb14 W __mulodi4
000000000005eb00 W __mulosi4
000000000005eb4c W __muloti4
0000000000066700 W __mulsc3
000000000006473c W __mulsf3
000000000005e648 W __mulsi3
000000000006702c W __multc3
0000000000064adc W __multf3
000000000005e6c8 W __multi3
0000000000066ad4 W __mulxc3
0000000000064f7c W __mulxf3
0000000000074a48 W __nedf2
000000000006617c W __negdf2
000000000005e028 W __negdi2
0000000000066164 W __neghf2
0000000000066174 W __negsf2
000000000005e020 W __negsi2
0000000000066184 W __negtf2
000000000005e030 W __negti2
000000000005ea24 W __negvdi2
000000000005ea1c W __negvsi2
000000000005ea2c W __negvti2
000000000006619c W __negxf2
0000000000074a30 W __nehf2
0000000000074a3c W __nesf2
0000000000074a54 W __netf2
0000000000074a60 W __nexf2
                 U open
                 U openat
                 U opendir
000000000005dc60 W __paritydi2
000000000005dc40 W __paritysi2
000000000005dc88 W __parityti2
                 U pathconf
000000000005dcd8 W __popcountdi2
000000000005dcc4 W __popcountsi2
000000000005dcec W __popcountti2
0000000000066270 W __powidf2
00000000000661a4 W __powihf2
000000000006621c W __powisf2
00000000000662c4 W __powitf2
0000000000066380 W __powixf2
                 U pthread_cond_broadcast
                 U pthread_cond_wait
                 U pthread_getspecific
                 U pthread_key_create
                 U pthread_mutex_lock
                 U pthread_mutex_unlock
                 U pthread_once
                 U pthread_setspecific
                 U readdir
                 U readlink
                 U realloc
                 U realpath
                 U remove
                 U rename
000000000006e0dc W round
000000000006e048 W roundf
000000000006dfa8 W __roundh
000000000006e3fc W roundl
000000000006e2a4 W roundq
000000000006e178 W __roundx
                 U sendfile
000000000006e754 W sin
000000000006f2e8 W sincos
000000000006ec3c W sincosf
000000000006ebfc W __sincosh
000000000006f894 W sincosl
000000000006f844 W sincosq
000000000006f648 W __sincosx
000000000006e418 W sinf
000000000006e400 W __sinh
000000000006ebe8 W sinl
000000000006ebd4 W sinq
000000000006eaa0 W __sinx
                 U snprintf
000000000006fd00 W sqrt
000000000006f8fc W sqrtf
000000000006f8e4 W __sqrth
0000000000070398 W sqrtl
0000000000070384 W sqrtq
0000000000070250 W __sqrtx
0000000000073c80 W __stack_chk_fail
0000000000099ad8 V __stack_chk_guard
                 U stat
                 U statvfs
                 U stderr
0000000000073cf8 W __strcat_chk
                 U strcmp
0000000000073c80 W __strcpy_chk
                 U strerror_r
                 U strlen
0000000000073d60 W __strncat_chk
0000000000073cac W __strncpy_chk
0000000000063f50 W __subdf3
0000000000063adc W __subhf3
000000000005eabc W __subodi4
000000000005ea9c W __subosi4
000000000005eadc W __suboti4
0000000000063d1c W __subsf3
0000000000064188 W __subtf3
000000000006456c W __subxf3
                 U symlink
                 U syscall
0000000000070700 W tan
00000000000703c4 W tanf
00000000000703ac W __tanh
0000000000070bc0 W tanl
0000000000070bac W tanq
0000000000070a78 W __tanx
                 U tolower
0000000000070c94 W trunc
                 U truncate
000000000005f474 W __truncdfhf2
000000000005f5c0 W __truncdfsf2
0000000000070c38 W truncf
0000000000070bd4 W __trunch
0000000000070f74 W truncl
0000000000070eb4 W truncq
0000000000074a28 W __truncsfhf2
000000000005fe98 W __trunctfdf2
000000000005faf0 W __trunctfhf2
000000000005fcc0 W __trunctfsf2
0000000000060054 W __trunctfxf2
0000000000070cf0 W __truncx
000000000005f9b4 W __truncxfdf2
000000000005f718 W __truncxfhf2
000000000005f864 W __truncxfsf2
000000000005dd98 W __ucmpdi2
000000000005dd80 W __ucmpsi2
000000000005ddb0 W __ucmpti2
000000000005e480 W __udivdi3
0000000000071034 W __udivei4
000000000005e12c W __udivmoddi4
000000000005e5b8 W __udivmodsi4
0000000000071bc8 W __udivmodti4
000000000005e404 W __udivsi3
000000000005e96c W __udivti3
000000000005e56c W __umoddi3
000000000007156c W __umodei4
000000000005e4f0 W __umodsi3
000000000005e9cc W __umodti3
                 U unlinkat
0000000000062740 W __unorddf2
00000000000626f8 W __unordhf2
000000000006271c W __unordsf2
0000000000062790 W __unordtf2
0000000000062764 W __unordxf2
                 U _Unwind_DeleteException
                 U _Unwind_GetIP
                 U _Unwind_GetLanguageSpecificData
                 U _Unwind_GetRegionStart
                 U _Unwind_RaiseException
                 U _Unwind_Resume
                 U _Unwind_SetGR
                 U _Unwind_SetIP
                 U utimensat
                 U vfprintf
                 U vsnprintf
0000000000036d44 T _Z10dl_get_symPvPKc
0000000000036cb0 T _Z15dl_load_libraryRKNSt3__14__fs10filesystem4pathE
0000000000036d48 T _Z8dl_errorv
                 U _ZdaPv
                 U _ZdlPv
0000000000038ed4 W _ZN21ggml_backend_registry12load_backendERKNSt3__14__fs10filesystem4pathEb
0000000000039310 W _ZN21ggml_backend_registry14unload_backendEP16ggml_backend_regb
0000000000038d70 W _ZN21ggml_backend_registry15register_deviceEP19ggml_backend_device
0000000000038c84 W _ZN21ggml_backend_registry16register_backendEP16ggml_backend_regNSt3__110unique_ptrIv17dl_handle_deleterEE
00000000000394d4 W _ZN21ggml_backend_registryC2Ev
0000000000039558 W _ZN21ggml_backend_registryD2Ev
0000000000039670 W _ZN22ggml_backend_reg_entryD2Ev
                 U _Znam
0000000000039854 W _ZNKSt3__16vectorI22ggml_backend_reg_entryNS_9allocatorIS1_EEE20__throw_length_errorB8ne180100Ev
0000000000039ed8 W _ZNKSt3__16vectorIcNS_9allocatorIcEEE20__throw_length_errorB8ne180100Ev
0000000000039ec8 W _ZNKSt3__16vectorINS_4__fs10filesystem4pathENS_9allocatorIS3_EEE20__throw_length_errorB8ne180100Ev
0000000000039890 W _ZNKSt3__16vectorIP19ggml_backend_deviceNS_9allocatorIS2_EEE20__throw_length_errorB8ne180100Ev
0000000000038d4c W _ZNSt3__110unique_ptrIv17dl_handle_deleterED2B8ne180100Ev
0000000000039694 W _ZNSt3__16vectorI22ggml_backend_reg_entryNS_9allocatorIS1_EEE21__push_back_slow_pathIS1_EEPS1_OT_
00000000000395f8 W _ZNSt3__16vectorI22ggml_backend_reg_entryNS_9allocatorIS1_EEED2B8ne180100Ev
0000000000039ee8 W _ZNSt3__16vectorIcNS_9allocatorIcEEE8__appendEm
0000000000039d64 W _ZNSt3__16vectorINS_4__fs10filesystem4pathENS_9allocatorIS3_EEE21__push_back_slow_pathIS3_EEPS3_OT_
0000000000039aac W _ZNSt3__16vectorINS_4__fs10filesystem4pathENS_9allocatorIS3_EEED2B8ne180100Ev
00000000000398a0 W _ZNSt3__1plB8ne180100IcNS_11char_traitsIcEENS_9allocatorIcEEEENS_12basic_stringIT_T0_T1_EERKS9_SB_
                 U _Znwm

/tmp/aosp-cache-pin/assets/arm64-v8a/libeliza-llama-shim.so:
000000000001142c T eliza_llama_batch_free
00000000000113e8 T eliza_llama_batch_get_one
000000000001126c T eliza_llama_context_params_default
00000000000112cc T eliza_llama_context_params_free
000000000001130c T eliza_llama_context_params_set_embeddings
00000000000112dc T eliza_llama_context_params_set_n_batch
00000000000112d0 T eliza_llama_context_params_set_n_ctx
00000000000112f4 T eliza_llama_context_params_set_n_threads
0000000000011300 T eliza_llama_context_params_set_n_threads_batch
00000000000112e8 T eliza_llama_context_params_set_n_ubatch
000000000001131c T eliza_llama_context_params_set_offload_kqv
000000000001132c T eliza_llama_context_params_set_pooling_type
0000000000011338 T eliza_llama_context_params_set_type_k
0000000000011344 T eliza_llama_context_params_set_type_v
0000000000011430 T eliza_llama_decode
0000000000011350 T eliza_llama_init_from_model
000000000001122c T eliza_llama_model_load_from_file
0000000000011194 T eliza_llama_model_params_default
00000000000111dc T eliza_llama_model_params_free
000000000001121c T eliza_llama_model_params_set_check_tensors
00000000000111e0 T eliza_llama_model_params_set_n_gpu_layers
00000000000111fc T eliza_llama_model_params_set_use_mlock
00000000000111ec T eliza_llama_model_params_set_use_mmap
000000000001120c T eliza_llama_model_params_set_vocab_only
00000000000113d8 T eliza_llama_sampler_chain_init
00000000000113a0 T eliza_llama_sampler_chain_params_default
00000000000113c4 T eliza_llama_sampler_chain_params_free
00000000000113c8 T eliza_llama_sampler_chain_params_set_no_perf
0000000000011184 T _fini
                 U free
0000000000011174 T _init
                 U llama_batch_get_one
                 U llama_context_default_params
                 U llama_decode
                 U llama_init_from_model
                 U llama_model_default_params
                 U llama_model_load_from_file
                 U llama_sampler_chain_default_params
                 U llama_sampler_chain_init
                 U malloc

/tmp/aosp-cache-pin/assets/x86_64/libllama.so:
                 U abort
                 U aligned_alloc
                 U atoi
                 U bcmp
                 U btowc
                 U calloc
                 U catclose
                 U catgets
                 U catopen
                 U ceilf
                 U clock_gettime
                 U close
                 U __ctype_get_mb_cur_max
                 U __cxa_atexit
                 U __errno_location
                 U exp
                 U exp2f
                 U expf
                 U fclose
                 U ferror
                 U fflush
                 U fileno
000000000010e553 T _fini
                 U floorf
                 U fopen
                 U fprintf
                 U fputc
                 U fputs
                 U fread
                 U free
                 U freelocale
                 U fseek
                 U fseeko
                 U fstat
                 U ftell
                 U ftello
                 U fwrite
                 U getenv
                 U getrlimit
                 U ggml_abort
                 U ggml_add
                 U ggml_add_id
                 U ggml_are_same_shape
                 U ggml_argmax
                 U ggml_argsort
                 U ggml_argsort_top_k
                 U ggml_backend_alloc_ctx_tensors_from_buft
                 U ggml_backend_alloc_ctx_tensors_from_buft_size
                 U ggml_backend_buffer_clear
                 U ggml_backend_buffer_free
                 U ggml_backend_buffer_get_base
                 U ggml_backend_buffer_get_size
                 U ggml_backend_buffer_get_type
                 U ggml_backend_buffer_is_host
                 U ggml_backend_buffer_name
                 U ggml_backend_buffer_set_usage
                 U ggml_backend_buft_alloc_buffer
                 U ggml_backend_buft_get_device
                 U ggml_backend_buft_is_host
                 U ggml_backend_buft_name
                 U ggml_backend_cpu_buffer_type
                 U ggml_backend_dev_backend_reg
                 U ggml_backend_dev_buffer_from_host_ptr
                 U ggml_backend_dev_buffer_type
                 U ggml_backend_dev_by_type
                 U ggml_backend_dev_count
                 U ggml_backend_dev_description
                 U ggml_backend_dev_get
                 U ggml_backend_dev_get_props
                 U ggml_backend_dev_host_buffer_type
                 U ggml_backend_dev_init
                 U ggml_backend_dev_memory
                 U ggml_backend_dev_name
                 U ggml_backend_dev_supports_op
                 U ggml_backend_dev_type
                 U ggml_backend_event_free
                 U ggml_backend_event_new
                 U ggml_backend_event_record
                 U ggml_backend_event_synchronize
                 U ggml_backend_free
                 U ggml_backend_get_default_buffer_type
                 U ggml_backend_get_device
                 U ggml_backend_init_by_type
                 U ggml_backend_name
                 U ggml_backend_reg_by_name
                 U ggml_backend_reg_count
                 U ggml_backend_reg_dev_count
                 U ggml_backend_reg_dev_get
                 U ggml_backend_reg_get
                 U ggml_backend_reg_get_proc_address
                 U ggml_backend_reg_name
                 U ggml_backend_sched_alloc_graph
                 U ggml_backend_sched_free
                 U ggml_backend_sched_get_buffer_size
                 U ggml_backend_sched_get_buffer_type
                 U ggml_backend_sched_get_n_copies
                 U ggml_backend_sched_get_n_splits
                 U ggml_backend_sched_get_tensor_backend
                 U ggml_backend_sched_graph_compute_async
                 U ggml_backend_sched_new
                 U ggml_backend_sched_reserve
                 U ggml_backend_sched_reserve_size
                 U ggml_backend_sched_reset
                 U ggml_backend_sched_set_eval_callback
                 U ggml_backend_sched_set_tensor_backend
                 U ggml_backend_sched_split_graph
                 U ggml_backend_sched_synchronize
                 U ggml_backend_supports_op
                 U ggml_backend_tensor_alloc
                 U ggml_backend_tensor_copy
                 U ggml_backend_tensor_get
                 U ggml_backend_tensor_get_async
                 U ggml_backend_tensor_set
                 U ggml_backend_tensor_set_async
                 U ggml_bf16_to_fp32_row
                 U ggml_blck_size
                 U ggml_build_forward_expand
                 U ggml_build_forward_select
                 U ggml_cast
                 U ggml_clamp
                 U ggml_concat
                 U ggml_cont
                 U ggml_cont_2d
                 U ggml_cont_3d
                 U ggml_cont_4d
                 U ggml_conv_1d_dw_ph
                 U ggml_conv_1d_ph
                 U ggml_cpy
                 U ggml_cumsum
                 U ggml_diag
                 U ggml_div
                 U ggml_dup_tensor
                 U ggml_element_size
                 U ggml_exp
                 U ggml_fill
                 U ggml_flash_attn_ext
                 U ggml_flash_attn_ext_add_sinks
                 U ggml_flash_attn_ext_set_prec
                 U ggml_fopen
                 U ggml_format_name
                 U ggml_fp16_to_fp32_row
                 U ggml_free
                 U ggml_gated_linear_attn
                 U ggml_geglu
                 U ggml_geglu_split
                 U ggml_gelu
                 U ggml_get_first_tensor
                 U ggml_get_max_tensor_size
                 U ggml_get_name
                 U ggml_get_next_tensor
                 U ggml_get_rows
                 U ggml_get_tensor
                 U ggml_get_type_traits
                 U ggml_graph_n_nodes
                 U ggml_graph_node
                 U ggml_graph_overhead
                 U ggml_graph_overhead_custom
                 U ggml_graph_size
                 U ggml_group_norm
                 U ggml_im2col
                 U ggml_init
                 U ggml_is_contiguous
                 U ggml_is_quantized
                 U ggml_l2_norm
                 U ggml_log
                 U ggml_log_get
                 U ggml_log_set
                 U ggml_mean
                 U ggml_mul
                 U ggml_mul_mat
                 U ggml_mul_mat_id
                 U ggml_mul_mat_set_prec
                 U ggml_nbytes
                 U ggml_n_dims
                 U ggml_neg
                 U ggml_nelements
                 U ggml_new_graph
                 U ggml_new_graph_custom
                 U ggml_new_tensor_1d
                 U ggml_new_tensor_2d
                 U ggml_new_tensor_3d
                 U ggml_new_tensor_4d
                 U ggml_norm
                 U ggml_nrows
                 U ggml_op_name
                 U ggml_opt_alloc
                 U ggml_opt_dataset_get_batch_host
                 U ggml_opt_dataset_ndata
                 U ggml_opt_default_params
                 U ggml_opt_eval
                 U ggml_opt_free
                 U ggml_opt_init
                 U ggml_opt_labels
                 U ggml_opt_prepare_alloc
                 U ggml_pad
                 U ggml_permute
                 U ggml_quantize_chunk
                 U ggml_quantize_free
                 U ggml_reglu
                 U ggml_reglu_split
                 U ggml_relu
                 U ggml_repeat
                 U ggml_repeat_4d
                 U ggml_reshape_1d
                 U ggml_reshape_2d
                 U ggml_reshape_3d
                 U ggml_reshape_4d
                 U ggml_rms_norm
                 U ggml_rope
                 U ggml_rope_ext
                 U ggml_rope_ext_inplace
                 U ggml_rope_multi
                 U ggml_row_size
                 U ggml_rwkv_wkv6
                 U ggml_rwkv_wkv7
                 U ggml_scale
                 U ggml_scale_bias
                 U ggml_scale_inplace
                 U ggml_set_1d
                 U ggml_set_inplace
                 U ggml_set_input
                 U ggml_set_name
                 U ggml_set_output
                 U ggml_set_param
                 U ggml_set_rows
                 U ggml_set_zero
                 U ggml_sigmoid
                 U ggml_silu
                 U ggml_soft_max
                 U ggml_soft_max_add_sinks
                 U ggml_soft_max_ext
                 U ggml_softplus
                 U ggml_solve_tri
                 U ggml_sqr
                 U ggml_sqrt
                 U ggml_ssm_conv
                 U ggml_ssm_scan
                 U ggml_step
                 U ggml_sub
                 U ggml_sum
                 U ggml_sum_rows
                 U ggml_swiglu
                 U ggml_swiglu_oai
                 U ggml_swiglu_split
                 U ggml_tanh
                 U ggml_tensor_overhead
                 U ggml_time_init
                 U ggml_time_us
                 U ggml_top_k
                 U ggml_transpose
                 U ggml_tri
                 U ggml_type_name
                 U ggml_type_size
                 U ggml_validate_row_data
                 U ggml_view_1d
                 U ggml_view_2d
                 U ggml_view_3d
                 U ggml_view_4d
                 U ggml_xielu
                 U gguf_add_tensor
                 U gguf_find_key
                 U gguf_find_tensor
                 U gguf_free
                 U gguf_get_arr_data
                 U gguf_get_arr_n
                 U gguf_get_arr_str
                 U gguf_get_arr_type
                 U gguf_get_data_offset
                 U gguf_get_key
                 U gguf_get_kv_type
                 U gguf_get_meta_data
                 U gguf_get_meta_size
                 U gguf_get_n_kv
                 U gguf_get_n_tensors
                 U gguf_get_tensor_offset
                 U gguf_get_tensor_size
                 U gguf_get_val_bool
                 U gguf_get_val_data
                 U gguf_get_val_f32
                 U gguf_get_val_i32
                 U gguf_get_val_str
                 U gguf_get_val_u16
                 U gguf_get_val_u32
                 U gguf_get_version
                 U gguf_init_empty
                 U gguf_init_from_file
                 U gguf_remove_key
                 U gguf_set_arr_data
                 U gguf_set_arr_str
                 U gguf_set_kv
                 U gguf_set_tensor_data
                 U gguf_set_tensor_type
                 U gguf_set_val_bool
                 U gguf_set_val_f32
                 U gguf_set_val_i32
                 U gguf_set_val_str
                 U gguf_set_val_u16
                 U gguf_set_val_u32
                 U gguf_type_name
                 U gguf_write_to_file
000000000010e550 T _init
                 U ioctl
                 U isdigit_l
                 U islower_l
                 U isspace
                 U isupper_l
                 U iswalpha_l
                 U iswblank_l
                 U iswcntrl_l
                 U iswdigit_l
                 U iswlower_l
                 U iswprint_l
                 U iswpunct_l
                 U iswspace_l
                 U iswupper_l
                 U iswxdigit_l
                 U isxdigit
                 U isxdigit_l
0000000000119560 T llama_adapter_get_alora_invocation_tokens
0000000000119540 T llama_adapter_get_alora_n_invocation_tokens
0000000000119530 T llama_adapter_lora_free
0000000000116ed0 T llama_adapter_lora_init
00000000001193e0 T llama_adapter_meta_count
00000000001193f0 T llama_adapter_meta_key_by_index
00000000001192a0 T llama_adapter_meta_val_str
0000000000119490 T llama_adapter_meta_val_str_by_index
00000000002114f0 T llama_add_bos_token
0000000000211500 T llama_add_eos_token
0000000000137c50 T llama_attach_threadpool
0000000000111ae0 T llama_backend_free
0000000000111a40 T llama_backend_init
0000000000124260 T llama_batch_free
0000000000124170 T llama_batch_get_one
0000000000124190 T llama_batch_init
00000000001131f0 T llama_chat_apply_template
000000000012c2a0 T llama_chat_builtin_templates
0000000000137950 T llama_context_default_params
00000000001381c0 T llama_copy_state_data
0000000000138660 T llama_decode
0000000000137ca0 T llama_detach_threadpool
0000000000211590 T llama_detokenize
0000000000138620 T llama_encode
000000000010e560 T llama_flash_attn_type_name
0000000000137bc0 T llama_free
00000000001e1490 T llama_free_model
0000000000137e60 T llama_get_embeddings
0000000000137e80 T llama_get_embeddings_ith
0000000000137ea0 T llama_get_embeddings_seq
0000000000137e00 T llama_get_logits
0000000000137e20 T llama_get_logits_ith
00000000001380c0 T llama_get_memory
0000000000137c30 T llama_get_model
0000000000137fa0 T llama_get_sampled_candidates_count_ith
0000000000137f80 T llama_get_sampled_candidates_ith
0000000000137fc0 T llama_get_sampled_logits_count_ith
0000000000137f60 T llama_get_sampled_logits_ith
0000000000137fe0 T llama_get_sampled_probs_count_ith
0000000000137f40 T llama_get_sampled_probs_ith
0000000000137f20 T llama_get_sampled_token_ith
00000000001381a0 T llama_get_state_size
0000000000137970 T llama_init_from_model
0000000000111af0 T llama_load_model_from_file
0000000000138280 T llama_load_session_file
0000000000162410 T llama_log_get
0000000000162420 T llama_log_set
00000000001119a0 T llama_max_devices
000000000013cfd0 T llama_max_parallel_sequences
00000000001119b0 T llama_max_tensor_buft_overrides
0000000000138970 T llama_memory_breakdown_print
0000000000138190 T llama_memory_can_shift
00000000001380d0 T llama_memory_clear
0000000000138130 T llama_memory_seq_add
0000000000138110 T llama_memory_seq_cp
0000000000138140 T llama_memory_seq_div
0000000000138120 T llama_memory_seq_keep
0000000000138170 T llama_memory_seq_pos_max
0000000000138150 T llama_memory_seq_pos_min
00000000001380f0 T llama_memory_seq_rm
00000000001e1980 T llama_model_chat_template
00000000001e1560 T llama_model_cls_label
00000000001e1aa0 T llama_model_decoder_start_token
00000000001e1440 T llama_model_default_params
00000000001e18e0 T llama_model_desc
00000000001e14b0 T llama_model_free
00000000001e1480 T llama_model_get_vocab
00000000001e1a90 T llama_model_has_decoder
00000000001e1a80 T llama_model_has_encoder
00000000001e1ad0 T llama_model_is_diffusion
00000000001e1ac0 T llama_model_is_hybrid
00000000001e1ab0 T llama_model_is_recurrent
0000000000111b00 T llama_model_load_from_file
0000000000112e80 T llama_model_load_from_splits
00000000001e1750 T llama_model_meta_count
00000000001e1780 T llama_model_meta_key_by_index
00000000001e1760 T llama_model_meta_key_str
00000000001e1600 T llama_model_meta_val_str
00000000001e1830 T llama_model_meta_val_str_by_index
00000000001e1550 T llama_model_n_cls_out
00000000001e14d0 T llama_model_n_ctx_train
00000000001e14e0 T llama_model_n_embd
00000000001e14f0 T llama_model_n_embd_inp
00000000001e1500 T llama_model_n_embd_out
00000000001e1520 T llama_model_n_head
00000000001e1530 T llama_model_n_head_kv
00000000001e1510 T llama_model_n_layer
00000000001e1a70 T llama_model_n_params
00000000001e1540 T llama_model_n_swa
00000000001eb1b0 T llama_model_quantize
00000000001eb170 T llama_model_quantize_default_params
00000000001e15f0 T llama_model_rope_freq_scale_train
0000000000197380 T llama_model_rope_type
00000000001130d0 T llama_model_save_to_file
00000000001e1970 T llama_model_size
0000000000137c00 T llama_n_batch
0000000000137be0 T llama_n_ctx
0000000000137bf0 T llama_n_ctx_seq
00000000001e15b0 T llama_n_ctx_train
00000000001e15c0 T llama_n_embd
0000000000137bb0 T llama_new_context_with_model
00000000001e15e0 T llama_n_head
00000000001e15d0 T llama_n_layer
0000000000137c20 T llama_n_seq_max
0000000000137d10 T llama_n_threads
0000000000137d20 T llama_n_threads_batch
0000000000137c10 T llama_n_ubatch
0000000000111a80 T llama_numa_init
0000000000210fc0 T llama_n_vocab
000000000013a7d0 T llama_opt_epoch
000000000013a7c0 T llama_opt_init
000000000013a7b0 T llama_opt_param_filter_all
000000000010e5a0 T llama_params_fit
00000000001386a0 T llama_perf_context
0000000000138760 T llama_perf_context_print
0000000000138930 T llama_perf_context_reset
00000000001f6db0 T llama_perf_sampler
00000000001f6e00 T llama_perf_sampler_print
00000000001f6e70 T llama_perf_sampler_reset
0000000000137c40 T llama_pooling_type
0000000000113700 T llama_print_system_info
00000000001f4090 T llama_sampler_accept
00000000001f40b0 T llama_sampler_apply
00000000001f46e0 T llama_sampler_chain_add
0000000000111990 T llama_sampler_chain_default_params
00000000001f4800 T llama_sampler_chain_get
00000000001f41a0 T llama_sampler_chain_init
00000000001f48c0 T llama_sampler_chain_n
00000000001f4850 T llama_sampler_chain_remove
00000000001f4110 T llama_sampler_clone
00000000001f4170 T llama_sampler_free
00000000001f6d20 T llama_sampler_get_seed
00000000001f4040 T llama_sampler_init
00000000001f6a10 T llama_sampler_init_adaptive_p
00000000001f4940 T llama_sampler_init_dist
00000000001f5b30 T llama_sampler_init_dry
00000000001f5230 T llama_sampler_init_grammar
00000000001f5900 T llama_sampler_init_grammar_lazy
00000000001f5940 T llama_sampler_init_grammar_lazy_patterns
00000000001f48e0 T llama_sampler_init_greedy
00000000001f6c40 T llama_sampler_init_infill
00000000001f6b40 T llama_sampler_init_logit_bias
00000000001f4c90 T llama_sampler_init_min_p
00000000001f5050 T llama_sampler_init_mirostat
00000000001f5150 T llama_sampler_init_mirostat_v2
00000000001f5970 T llama_sampler_init_penalties
00000000001f4db0 T llama_sampler_init_temp
00000000001f4e50 T llama_sampler_init_temp_ext
00000000001f4b50 T llama_sampler_init_top_k
00000000001f5ab0 T llama_sampler_init_top_n_sigma
00000000001f4be0 T llama_sampler_init_top_p
00000000001f4d30 T llama_sampler_init_typical
00000000001f4f20 T llama_sampler_init_xtc
00000000001f4070 T llama_sampler_name
00000000001f40f0 T llama_sampler_reset
00000000001f41f0 T llama_sampler_sample
0000000000138330 T llama_save_session_file
000000000012f2f0 T llama_set_abort_callback
0000000000138050 T llama_set_adapter_cvec
0000000000138000 T llama_set_adapters_lora
0000000000137d70 T llama_set_causal_attn
0000000000137d30 T llama_set_embeddings
0000000000137cd0 T llama_set_n_threads
0000000000137f10 T llama_set_sampler
0000000000138220 T llama_set_state_data
0000000000137db0 T llama_set_warmup
0000000000113480 T llama_split_path
00000000001134c0 T llama_split_prefix
00000000001381f0 T llama_state_get_data
00000000001381b0 T llama_state_get_size
0000000000138290 T llama_state_load_file
0000000000138340 T llama_state_save_file
00000000001383f0 T llama_state_seq_get_data
0000000000138430 T llama_state_seq_get_data_ext
00000000001383d0 T llama_state_seq_get_size
00000000001383e0 T llama_state_seq_get_size_ext
0000000000138580 T llama_state_seq_load_file
00000000001384f0 T llama_state_seq_save_file
0000000000138470 T llama_state_seq_set_data
00000000001384b0 T llama_state_seq_set_data_ext
0000000000138250 T llama_state_set_data
00000000001119e0 T llama_supports_gpu_offload
00000000001119d0 T llama_supports_mlock
00000000001119c0 T llama_supports_mmap
0000000000111a20 T llama_supports_rpc
0000000000137df0 T llama_synchronize
000000000010e6f0 T llama_time_us
0000000000211480 T llama_token_bos
00000000002114b0 T llama_token_cls
0000000000211490 T llama_token_eos
00000000002114a0 T llama_token_eot
0000000000211530 T llama_token_fim_mid
0000000000211540 T llama_token_fim_pad
0000000000211510 T llama_token_fim_pre
0000000000211550 T llama_token_fim_rep
0000000000211560 T llama_token_fim_sep
0000000000211520 T llama_token_fim_suf
0000000000211390 T llama_token_get_attr
0000000000211330 T llama_token_get_score
00000000002112c0 T llama_token_get_text
0000000000211430 T llama_token_is_control
00000000002113f0 T llama_token_is_eog
0000000000211570 T llama_tokenize
00000000002114d0 T llama_token_nl
00000000002114e0 T llama_token_pad
00000000002114c0 T llama_token_sep
0000000000211580 T llama_token_to_piece
00000000002111b0 T llama_vocab_bos
00000000002111e0 T llama_vocab_cls
00000000002111c0 T llama_vocab_eos
00000000002111d0 T llama_vocab_eot
0000000000211270 T llama_vocab_fim_mid
0000000000211280 T llama_vocab_fim_pad
0000000000211250 T llama_vocab_fim_pre
0000000000211290 T llama_vocab_fim_rep
00000000002112a0 T llama_vocab_fim_sep
0000000000211260 T llama_vocab_fim_suf
0000000000211220 T llama_vocab_get_add_bos
0000000000211230 T llama_vocab_get_add_eos
0000000000211240 T llama_vocab_get_add_sep
00000000002110c0 T llama_vocab_get_attr
0000000000211060 T llama_vocab_get_score
0000000000210ff0 T llama_vocab_get_text
0000000000211160 T llama_vocab_is_control
0000000000211120 T llama_vocab_is_eog
00000000002112b0 T llama_vocab_mask
0000000000211200 T llama_vocab_nl
0000000000210fa0 T llama_vocab_n_tokens
0000000000211210 T llama_vocab_pad
00000000002111f0 T llama_vocab_sep
0000000000210fe0 T llama_vocab_type
                 U localeconv
                 U log
                 U log2f
                 U logf
                 U lseek
                 U malloc
                 U mbrlen
                 U mbrtowc
                 U mbsnrtowcs
                 U mbsrtowcs
                 U mbtowc
                 U memchr
                 U memcmp
                 U memcpy
                 U memmove
                 U memset
                 U mlock
                 U mmap
                 U munmap
                 U nanosleep
                 U newlocale
                 U open
                 U posix_fadvise
                 U posix_madvise
                 U posix_memalign
                 U pow
                 U powf
                 U pthread_cond_broadcast
                 U pthread_cond_destroy
                 U pthread_cond_signal
                 U pthread_cond_timedwait
                 U pthread_cond_wait
                 U pthread_create
                 U pthread_detach
                 U pthread_getspecific
                 U pthread_join
                 U pthread_key_create
                 U pthread_mutexattr_destroy
                 U pthread_mutexattr_init
                 U pthread_mutexattr_settype
                 U pthread_mutex_destroy
                 U pthread_mutex_init
                 U pthread_mutex_lock
                 U pthread_mutex_trylock
                 U pthread_mutex_unlock
                 U pthread_once
                 U pthread_self
                 U pthread_setspecific
                 U read
                 U realloc
                 U round
                 U setlocale
                 U snprintf
                 U sscanf
                 U stderr
                 U stdout
                 U strcmp
                 U strcoll_l
                 U strerror
                 U strerror_r
                 U strftime_l
                 U strlen
                 U strncmp
                 U strncpy
                 U strstr
                 U strtod
                 U strtod_l
                 U strtof
                 U strtof_l
                 U strtol
                 U strtold
                 U strtold_l
                 U strtoll
                 U strtoul
                 U strtoull
                 U strxfrm_l
                 U swprintf
                 U syscall
                 U sysconf
                 U tolower
                 U tolower_l
                 U toupper
                 U toupper_l
                 U towlower_l
                 U towupper_l
00000000002e10a0 D unicode_map_lowercase
00000000002e10b0 D unicode_map_uppercase
00000000002e1090 D unicode_ranges_flags
00000000002e10c0 D unicode_ranges_nfd
0000000000307d70 B unicode_set_whitespace
                 U _Unwind_DeleteException
                 U _Unwind_GetIP
                 U _Unwind_GetLanguageSpecificData
                 U _Unwind_GetRegionStart
                 U _Unwind_RaiseException
                 U _Unwind_Resume
                 U _Unwind_SetGR
                 U _Unwind_SetIP
                 U uselocale
                 U vasprintf
                 U vfprintf
                 U vsnprintf
                 U vsscanf
                 U wcrtomb
                 U wcscoll_l
                 U wcslen
                 U wcsnrtombs
                 U wcstod
                 U wcstof
                 U wcstol
                 U wcstold
                 U wcstoll
                 U wcstoul
                 U wcstoull
                 U wcsxfrm_l
                 U wctob
                 U wmemchr
                 U wmemcmp
00000000001625c0 T _Z11replace_allRNSt3__112basic_stringIcNS_11char_traitsIcEENS_9allocatorIcEEEERKS5_S8_
000000000011e860 T _Z13llm_arch_name8llm_arch
00000000001911c0 T _Z13llm_type_name8llm_type
0000000000162c60 T _Z14gguf_kv_to_strPK12gguf_contexti
0000000000181ff0 T _Z14llama_path_maxv
0000000000222be0 T _Z15unicode_tolowerj
0000000000221730 T _Z16unicode_len_utf8c
0000000000162480 T _Z18llama_log_internal14ggml_log_levelPKcz
000000000011e9f0 T _Z18llm_arch_is_hybridRK8llm_arch
0000000000222c50 T _Z18unicode_cpt_is_hanj
000000000011e990 T _Z19llm_tensor_info_for10llm_tensor
00000000002219e0 T _Z19unicode_cpt_to_utf8j
0000000000222ca0 T _Z19unicode_regex_splitRKNSt3__112basic_stringIcNS_11char_traitsIcEENS_9allocatorIcEEEERKNS_6vectorIS5_NS3_IS5_EEEE
0000000000141e30 T _Z20llama_grammar_acceptP13llama_grammarj
000000000011e8b0 T _Z20llm_arch_from_stringRKNSt3__112basic_stringIcNS_11char_traitsIcEENS_9allocatorIcEEEE
0000000000222340 T _Z20unicode_byte_to_utf8h
00000000002228e0 T _Z20unicode_utf8_to_byteRKNSt3__112basic_stringIcNS_11char_traitsIcEENS_9allocatorIcEEEE
000000000011ea10 T _Z21llm_arch_is_diffusionRK8llm_arch
000000000011e9d0 T _Z21llm_arch_is_recurrentRK8llm_arch
0000000000221750 T _Z21unicode_cpt_from_utf8RKNSt3__112basic_stringIcNS_11char_traitsIcEENS_9allocatorIcEEEERm
0000000000221c90 T _Z22unicode_cpts_from_utf8RKNSt3__112basic_stringIcNS_11char_traitsIcEENS_9allocatorIcEEEE
0000000000183630 T _Z23llama_file_version_name10llama_fver
0000000000145870 T _Z23llama_grammar_free_implP13llama_grammar
0000000000141e10 T _Z23llama_grammar_get_rulesPK13llama_grammar
0000000000144550 T _Z23llama_grammar_init_implPK11llama_vocabPKcS3_bPS3_mPKim
00000000001439d0 T _Z23llama_grammar_init_implPK11llama_vocabPPK21llama_grammar_elementmm
0000000000127250 T _Z23llm_chat_apply_template17llm_chat_templateRKNSt3__16vectorIPK18llama_chat_messageNS0_9allocatorIS4_EEEERNS0_12basic_stringIcNS0_11char_traitsIcEENS5_IcEEEEb
0000000000147a50 T _Z24llama_grammar_accept_strR13llama_grammarRKNSt3__112basic_stringIcNS1_11char_traitsIcEENS1_9allocatorIcEEEE
0000000000145e60 T _Z24llama_grammar_apply_implRK13llama_grammarP22llama_token_data_array
0000000000145890 T _Z24llama_grammar_clone_implRK13llama_grammar
0000000000141e20 T _Z24llama_grammar_get_stacksP13llama_grammar
0000000000126960 T _Z24llm_chat_detect_templateRKNSt3__112basic_stringIcNS_11char_traitsIcEENS_9allocatorIcEEEE
0000000000162b20 T _Z25llama_format_tensor_shapePK11ggml_tensor
00000000001629e0 T _Z25llama_format_tensor_shapeRKNSt3__16vectorIlNS_9allocatorIlEEEE
0000000000146ab0 T _Z25llama_grammar_accept_implR13llama_grammari
00000000001470b0 T _Z26llama_grammar_accept_tokenR13llama_grammariRKNSt3__112basic_stringIcNS1_11char_traitsIcEENS1_9allocatorIcEEEE
0000000000162460 T _Z26llama_log_callback_default14ggml_log_levelPKcPv
0000000000126930 T _Z26llm_chat_template_from_strRKNSt3__112basic_stringIcNS_11char_traitsIcEENS_9allocatorIcEEEE
0000000000221f90 T _Z26unicode_cpt_flags_from_cptj
0000000000221b20 T _Z26unicode_cpts_normalize_nfdRKNSt3__16vectorIjNS_9allocatorIjEEEE
000000000017a4e0 T _Z27llama_memory_status_combine19llama_memory_statusS_
000000000017a510 T _Z27llama_memory_status_is_fail19llama_memory_status
00000000002222b0 T _Z27unicode_cpt_flags_from_utf8RKNSt3__112basic_stringIcNS_11char_traitsIcEENS_9allocatorIcEEEE
00000000001911f0 T _Z28llama_rope_scaling_type_name23llama_rope_scaling_type
00000000001e1ae0 T _Z29llama_internal_get_tensor_mapPK11llama_model
0000000000156420 T _Z30llama_relative_position_bucketiimb
00000000001f6710 T _Z30llama_sampler_init_dry_testingiffiiRKNSt3__16vectorINS0_IiNS_9allocatorIiEEEENS1_IS3_EEEE
0000000000142210 T _Z41llama_grammar_reject_candidates_for_stackRKNSt3__16vectorINS0_I21llama_grammar_elementNS_9allocatorIS1_EEEENS2_IS4_EEEERKNS0_IPKS1_NS2_ISA_EEEERKNS0_I23llama_grammar_candidateNS2_ISF_EEEE
0000000000162800 T _Z6formatPKcz
                 U _ZdaPv
                 U _ZdlPv
00000000001f34f0 W _ZeqRKNSt3__112basic_stringIcNS_11char_traitsIcEENS_9allocatorIcEEEERK11LLM_TN_IMPL
0000000000181dc0 T _ZN10llama_file15read_raw_unsafeEPvm
00000000001821f0 W _ZN10llama_file4impl15read_raw_unsafeEPvm
0000000000182cf0 W _ZN10llama_file4impl18read_aligned_chunkEPvm
0000000000183140 W _ZN10llama_file4impl7init_fdEv
0000000000182e30 W _ZN10llama_file4impl7init_fpEPKc
0000000000182ff0 W _ZN10llama_file4implC2EPKcS2_b
0000000000181da0 T _ZN10llama_file8read_rawEPvm
0000000000181dd0 T _ZN10llama_file8read_u32Ev
0000000000181c80 T _ZN10llama_fileC1EPKcS1_b
0000000000181c80 T _ZN10llama_fileC2EPKcS1_b
0000000000181cd0 T _ZN10llama_fileD1Ev
0000000000181cd0 T _ZN10llama_fileD2Ev
0000000000181ee0 T _ZN10llama_mmap14unmap_fragmentEmm
00000000001825f0 W _ZN10llama_mmap4impl14unmap_fragmentEmm
0000000000183280 W _ZN10llama_mmap4implC2EP10llama_filemb
0000000000183590 W _ZN10llama_mmap4implD2Ev
000000000009d27a R _ZN10llama_mmap9SUPPORTEDE
0000000000181e40 T _ZN10llama_mmapC1EP10llama_filemb
0000000000181e40 T _ZN10llama_mmapC2EP10llama_filemb
0000000000181e90 T _ZN10llama_mmapD1Ev
0000000000181e90 T _ZN10llama_mmapD2Ev
000000000021c120 W _ZN10naive_trie6insertEPKcmi
000000000013aae0 W _ZN11llama_crossD2Ev
0000000000181f30 T _ZN11llama_mlock4initEPv
0000000000181f70 T _ZN11llama_mlock7grow_toEm
000000000009d27b R _ZN11llama_mlock9SUPPORTEDE
0000000000181ef0 T _ZN11llama_mlockC1Ev
0000000000181ef0 T _ZN11llama_mlockC2Ev
0000000000181f10 T _ZN11llama_mlockD1Ev
0000000000181f10 T _ZN11llama_mlockD2Ev
0000000000191860 T _ZN11llama_model10load_statsER18llama_model_loader
0000000000197400 T _ZN11llama_model10load_vocabER18llama_model_loader
00000000001919c0 T _ZN11llama_model12load_hparamsER18llama_model_loader
0000000000197440 T _ZN11llama_model12load_tensorsER18llama_model_loader
00000000001e8f00 W _ZN11llama_model4implD2Ev
0000000000191870 T _ZN11llama_model9load_archER18llama_model_loader
00000000001912d0 T _ZN11llama_modelC1ERK18llama_model_params
00000000001912d0 T _ZN11llama_modelC2ERK18llama_model_params
0000000000191640 T _ZN11llama_modelD1Ev
0000000000191640 T _ZN11llama_modelD2Ev
000000000020a2f0 T _ZN11llama_vocab4impl14init_tokenizerE16llama_vocab_type
0000000000205500 T _ZN11llama_vocab4impl4loadER18llama_model_loaderRK6LLM_KV
0000000000220bd0 W _ZN11llama_vocab4implD2Ev
000000000020fe70 T _ZN11llama_vocab4loadER18llama_model_loaderRK6LLM_KV
000000000020fd40 T _ZN11llama_vocabC1Ev
000000000020fd40 T _ZN11llama_vocabC2Ev
000000000020fe40 T _ZN11llama_vocabD1Ev
000000000020fe40 T _ZN11llama_vocabD2Ev
000000000011ce60 T _ZN11LLM_TN_IMPLC1E8llm_arch10llm_tensorPKcii
000000000011ce60 T _ZN11LLM_TN_IMPLC2E8llm_arch10llm_tensorPKcii
0000000000125fd0 W _ZN12llama_ubatch6data_tD2Ev
0000000000124830 W _ZN12llama_ubatchD2Ev
0000000000130de0 T _ZN13llama_context10get_logitsEv
00000000001362b0 T _ZN13llama_context10perf_resetEv
00000000001322b0 T _ZN13llama_context10set_warmupEb
000000000012efb0 T _ZN13llama_context11set_samplerEiP13llama_sampler
0000000000130640 T _ZN13llama_context11synchronizeEv
0000000000132a90 T _ZN13llama_context13graph_computeEP11ggml_cgraphb
0000000000130790 T _ZN13llama_context13graph_reserveEjjjPK22llama_memory_context_ibPm
0000000000130c20 T _ZN13llama_context13memory_updateEb
000000000013aa70 W _ZN13llama_context13sampling_infoD2Ev
000000000012f7f0 T _ZN13llama_context13sched_reserveEv
0000000000132140 T _ZN13llama_context13set_n_threadsEii
00000000001319f0 T _ZN13llama_context14get_embeddingsEv
00000000001318f0 T _ZN13llama_context14get_logits_ithEi
0000000000136ef0 T _ZN13llama_context14opt_epoch_iterEP16ggml_opt_datasetP15ggml_opt_resultRKNSt3__16vectorIiNS4_9allocatorIiEEEESA_R11llama_batchPFvbP16ggml_opt_contextS1_S3_lllEblll
0000000000130e00 T _ZN13llama_context14output_reorderEv
000000000012f3a0 T _ZN13llama_context14output_reserveEi
0000000000132670 T _ZN13llama_context14process_ubatchERK12llama_ubatch14llm_graph_typeP22llama_memory_context_iR11ggml_status
0000000000132230 T _ZN13llama_context14set_embeddingsEb
0000000000135530 T _ZN13llama_context14state_get_dataEPhm
0000000000135330 T _ZN13llama_context14state_get_sizeEv
00000000001355c0 T _ZN13llama_context14state_set_dataEPKhm
0000000000132270 T _ZN13llama_context15set_causal_attnEb
0000000000135ba0 T _ZN13llama_context15state_load_fileEPKcPimPm
0000000000135650 T _ZN13llama_context15state_read_dataER15llama_io_read_i
0000000000135d40 T _ZN13llama_context15state_save_fileEPKcPKim
0000000000132600 T _ZN13llama_context16set_adapter_cvecEPKfmiii
00000000001353c0 T _ZN13llama_context16state_write_dataER16llama_io_write_i
00000000001320c0 T _ZN13llama_context17attach_threadpoolEP15ggml_threadpoolS1_
0000000000132110 T _ZN13llama_context17detach_threadpoolEv
00000000001322f0 T _ZN13llama_context17set_adapters_loraEPP18llama_adapter_loramPf
0000000000131a20 T _ZN13llama_context18get_embeddings_ithEi
0000000000131b20 T _ZN13llama_context18get_embeddings_seqEi
0000000000132180 T _ZN13llama_context18set_abort_callbackEPFbPvES0_
0000000000135a10 T _ZN13llama_context18state_seq_get_dataEiPhmj
0000000000135940 T _ZN13llama_context18state_seq_get_sizeEij
0000000000135ac0 T _ZN13llama_context18state_seq_set_dataEiPKhmj
0000000000135e40 T _ZN13llama_context19state_seq_load_fileEiPKcPimPm
0000000000135b70 T _ZN13llama_context19state_seq_read_dataER15llama_io_read_iij
0000000000136090 T _ZN13llama_context19state_seq_save_fileEiPKcPKim
00000000001359e0 T _ZN13llama_context20state_seq_write_dataER16llama_io_write_iij
0000000000131c40 T _ZN13llama_context21get_sampled_probs_ithEi
0000000000131b70 T _ZN13llama_context21get_sampled_token_ithEi
0000000000132410 T _ZN13llama_context22adapters_lora_are_sameEPP18llama_adapter_loramPf
0000000000131d20 T _ZN13llama_context22get_sampled_logits_ithEi
0000000000132010 T _ZN13llama_context23get_sampled_probs_countEi
0000000000131f50 T _ZN13llama_context24get_sampled_logits_countEi
0000000000131e00 T _ZN13llama_context26get_sampled_candidates_ithEi
0000000000131ea0 T _ZN13llama_context28get_sampled_candidates_countEi
00000000001336b0 T _ZN13llama_context6decodeERK11llama_batch
0000000000132b60 T _ZN13llama_context6encodeERK11llama_batch
0000000000136800 T _ZN13llama_context8opt_initEP11llama_model16llama_opt_params
00000000001375d0 T _ZN13llama_context9opt_epochEP16ggml_opt_datasetP15ggml_opt_resultS3_lPFvbP16ggml_opt_contextS1_S3_lllES7_
000000000012d4a0 T _ZN13llama_contextC1ERK11llama_model20llama_context_params
000000000012d4a0 T _ZN13llama_contextC2ERK11llama_model20llama_context_params
0000000000130190 T _ZN13llama_contextD1Ev
0000000000130190 T _ZN13llama_contextD2Ev
0000000000148200 W _ZN13llama_grammarD2Ev
0000000000161820 T _ZN13llama_hparams15set_swa_patternEjb
0000000000260ca0 T _ZN13llm_build_mptC1ERK11llama_modelRK16llm_graph_params
0000000000260ca0 T _ZN13llm_build_mptC2ERK11llama_modelRK16llm_graph_params
0000000000261440 W _ZN13llm_build_mptD0Ev
000000000026af80 T _ZN13llm_build_plmC1ERK11llama_modelRK16llm_graph_params
000000000026af80 T _ZN13llm_build_plmC2ERK11llama_modelRK16llm_graph_params
000000000026b9a0 W _ZN13llm_build_plmD0Ev
000000000021be30 W _ZN13llm_tokenizerD2Ev
0000000000166000 T _ZN14llama_kv_cache10init_batchER18llama_batch_allocrjb
0000000000171e10 T _ZN14llama_kv_cache10state_readER15llama_io_read_iij
0000000000166c60 T _ZN14llama_kv_cache11init_updateEP13llama_contextb
0000000000168650 T _ZN14llama_kv_cache12apply_ubatchERKNS_9slot_infoERK12llama_ubatch
00000000001728b0 T _ZN14llama_kv_cache15state_read_dataER15llama_io_read_ijjRKNS_9slot_infoE
0000000000172090 T _ZN14llama_kv_cache15state_read_metaER15llama_io_read_ijjRNS_9slot_infoEi
0000000000173f10 W _ZN14llama_kv_cache16stream_copy_infoD2Ev
0000000000164b40 T _ZN14llama_kv_cache5clearEb
0000000000164f70 T _ZN14llama_kv_cache6seq_cpEiiii
0000000000164cb0 T _ZN14llama_kv_cache6seq_rmEiii
0000000000168ba0 T _ZN14llama_kv_cache6updateEP13llama_contextbRKNS_16stream_copy_infoE
00000000001662b0 T _ZN14llama_kv_cache7prepareERKNSt3__16vectorI12llama_ubatchNS0_9allocatorIS2_EEEE
00000000001658f0 T _ZN14llama_kv_cache7seq_addEiiii
0000000000165ae0 T _ZN14llama_kv_cache7seq_divEiiii
0000000000173e30 W _ZN14llama_kv_cache8kv_layerD2Ev
0000000000165800 T _ZN14llama_kv_cache8seq_keepEi
0000000000166c10 T _ZN14llama_kv_cache9init_fullEv
0000000000174910 W _ZN14llama_kv_cache9slot_infoC2ERKS0_
0000000000174a50 W _ZN14llama_kv_cache9slot_infoD2Ev
0000000000163330 T _ZN14llama_kv_cacheC1ERK11llama_model9ggml_typeS3_bbbjjjj14llama_swa_typeRKNSt3__18functionIFbiEEERKNS6_IFiiEEE
0000000000163330 T _ZN14llama_kv_cacheC2ERK11llama_model9ggml_typeS3_bbbjjjj14llama_swa_typeRKNSt3__18functionIFbiEEERKNS6_IFiiEEE
00000000001751b0 W _ZN14llama_kv_cacheD0Ev
0000000000175020 W _ZN14llama_kv_cacheD2Ev
0000000000175620 W _ZN14llama_kv_cells11seq_pos_addEj
0000000000175570 W _ZN14llama_kv_cells11seq_pos_decEii
00000000001740f0 W _ZN14llama_kv_cells2rmEj
0000000000174cb0 W _ZN14llama_kv_cells3setERKNSt3__16vectorIjNS0_9allocatorIjEEEERKS_
0000000000173ca0 W _ZN14llama_kv_cells6resizeEj
0000000000173fb0 W _ZN14llama_kv_cells6seq_rmEji
0000000000174330 W _ZN14llama_kv_cells7pos_addEji
0000000000174230 W _ZN14llama_kv_cells7seq_addEji
0000000000174480 W _ZN14llama_kv_cells8seq_keepEji
0000000000174c10 W _ZN14llama_kv_cellsD2Ev
000000000023daf0 T _ZN14llm_build_bertC1ERK11llama_modelRK16llm_graph_params
000000000023daf0 T _ZN14llm_build_bertC2ERK11llama_modelRK16llm_graph_params
000000000023e670 W _ZN14llm_build_bertD0Ev
00000000002421e0 T _ZN14llm_build_dbrxC1ERK11llama_modelRK16llm_graph_params
00000000002421e0 T _ZN14llm_build_dbrxC2ERK11llama_modelRK16llm_graph_params
0000000000242840 W _ZN14llm_build_dbrxD0Ev
0000000000242870 T _ZN14llm_build_deciC1ERK11llama_modelRK16llm_graph_params
0000000000242870 T _ZN14llm_build_deciC2ERK11llama_modelRK16llm_graph_params
00000000002430b0 W _ZN14llm_build_deciD0Ev
000000000024fe70 T _ZN14llm_build_glm4C1ERK11llama_modelRK16llm_graph_params
000000000024fe70 T _ZN14llm_build_glm4C2ERK11llama_modelRK16llm_graph_params
00000000002507b0 W _ZN14llm_build_glm4D0Ev
00000000002507e0 T _ZN14llm_build_gpt2C1ERK11llama_modelRK16llm_graph_params
00000000002507e0 T _ZN14llm_build_gpt2C2ERK11llama_modelRK16llm_graph_params
0000000000250dd0 W _ZN14llm_build_gpt2D0Ev
0000000000252a40 T _ZN14llm_build_grokC1ERK11llama_modelRK16llm_graph_params
0000000000252a40 T _ZN14llm_build_grokC2ERK11llama_modelRK16llm_graph_params
0000000000253310 W _ZN14llm_build_grokD0Ev
00000000002552c0 T _ZN14llm_build_jaisC1ERK11llama_modelRK16llm_graph_params
00000000002552c0 T _ZN14llm_build_jaisC2ERK11llama_modelRK16llm_graph_params
0000000000255860 W _ZN14llm_build_jaisD0Ev
0000000000258c30 W _ZN14llm_build_lfm2ILb0EEC1ERK11llama_modelRK16llm_graph_params
0000000000258c30 W _ZN14llm_build_lfm2ILb0EEC2ERK11llama_modelRK16llm_graph_params
0000000000259a80 W _ZN14llm_build_lfm2ILb0EED0Ev
0000000000257e10 W _ZN14llm_build_lfm2ILb1EEC1ERK11llama_modelRK16llm_graph_params
0000000000257e10 W _ZN14llm_build_lfm2ILb1EEC2ERK11llama_modelRK16llm_graph_params
0000000000259a50 W _ZN14llm_build_lfm2ILb1EED0Ev
0000000000262930 T _ZN14llm_build_olmoC1ERK11llama_modelRK16llm_graph_params
0000000000262930 T _ZN14llm_build_olmoC2ERK11llama_modelRK16llm_graph_params
0000000000263000 W _ZN14llm_build_olmoD0Ev
00000000002668f0 T _ZN14llm_build_phi2C1ERK11llama_modelRK16llm_graph_params
00000000002668f0 T _ZN14llm_build_phi2C2ERK11llama_modelRK16llm_graph_params
00000000002670a0 W _ZN14llm_build_phi2D0Ev
00000000002670d0 W _ZN14llm_build_phi3ILb0EEC1ERK11llama_modelRK16llm_graph_params
00000000002670d0 W _ZN14llm_build_phi3ILb0EEC2ERK11llama_modelRK16llm_graph_params
00000000002681d0 W _ZN14llm_build_phi3ILb0EED0Ev
0000000000267950 W _ZN14llm_build_phi3ILb1EEC1ERK11llama_modelRK16llm_graph_params
0000000000267950 W _ZN14llm_build_phi3ILb1EEC2ERK11llama_modelRK16llm_graph_params
0000000000268200 W _ZN14llm_build_phi3ILb1EED0Ev
000000000026b9d0 T _ZN14llm_build_qwenC1ERK11llama_modelRK16llm_graph_params
000000000026b9d0 T _ZN14llm_build_qwenC2ERK11llama_modelRK16llm_graph_params
000000000026c000 W _ZN14llm_build_qwenD0Ev
00000000002746d0 T _ZN14llm_build_rnd1C1ERK11llama_modelRK16llm_graph_params
00000000002746d0 T _ZN14llm_build_rnd1C2ERK11llama_modelRK16llm_graph_params
0000000000274d90 W _ZN14llm_build_rnd1D0Ev
00000000001632f0 T _ZN15llama_io_read_i11read_stringERNSt3__112basic_stringIcNS0_11char_traitsIcEENS0_9allocatorIcEEEE
000000000013afd0 W _ZN15llama_io_read_iD2Ev
0000000000239f40 T _ZN15llm_build_afmoeC1ERK11llama_modelRK16llm_graph_params
0000000000239f40 T _ZN15llm_build_afmoeC2ERK11llama_modelRK16llm_graph_params
000000000023a920 W _ZN15llm_build_afmoeD0Ev
000000000023b0a0 T _ZN15llm_build_arceeC1ERK11llama_modelRK16llm_graph_params
000000000023b0a0 T _ZN15llm_build_arceeC2ERK11llama_modelRK16llm_graph_params
000000000023b7b0 W _ZN15llm_build_arceeD0Ev
000000000023ef60 T _ZN15llm_build_bloomC1ERK11llama_modelRK16llm_graph_params
000000000023ef60 T _ZN15llm_build_bloomC2ERK11llama_modelRK16llm_graph_params
000000000023f520 W _ZN15llm_build_bloomD0Ev
00000000002461d0 T _ZN15llm_build_dots1C1ERK11llama_modelRK16llm_graph_params
00000000002461d0 T _ZN15llm_build_dots1C2ERK11llama_modelRK16llm_graph_params
00000000002469f0 W _ZN15llm_build_dots1D0Ev
0000000000246a20 T _ZN15llm_build_dreamC1ERK11llama_modelRK16llm_graph_params
0000000000246a20 T _ZN15llm_build_dreamC2ERK11llama_modelRK16llm_graph_params
0000000000247090 W _ZN15llm_build_dreamD0Ev
000000000024b920 T _ZN15llm_build_gemmaC1ERK11llama_modelRK16llm_graph_params
000000000024b920 T _ZN15llm_build_gemmaC2ERK11llama_modelRK16llm_graph_params
000000000024bf40 W _ZN15llm_build_gemmaD0Ev
0000000000255890 T _ZN15llm_build_jais2C1ERK11llama_modelRK16llm_graph_params
0000000000255890 T _ZN15llm_build_jais2C2ERK11llama_modelRK16llm_graph_params
0000000000255f50 W _ZN15llm_build_jais2D0Ev
0000000000255f80 T _ZN15llm_build_jambaC1ERK11llama_modelRK16llm_graph_params
0000000000255f80 T _ZN15llm_build_jambaC2ERK11llama_modelRK16llm_graph_params
0000000000256560 W _ZN15llm_build_jambaD0Ev
000000000025a1a0 T _ZN15llm_build_lladaC1ERK11llama_modelRK16llm_graph_params
000000000025a1a0 T _ZN15llm_build_lladaC2ERK11llama_modelRK16llm_graph_params
000000000025a7a0 W _ZN15llm_build_lladaD0Ev
000000000025b210 W _ZN15llm_build_llamaILb0EEC1ERK11llama_modelRK16llm_graph_params
000000000025b210 W _ZN15llm_build_llamaILb0EEC2ERK11llama_modelRK16llm_graph_params
000000000025c330 W _ZN15llm_build_llamaILb0EED0Ev
000000000025bac0 W _ZN15llm_build_llamaILb1EEC1ERK11llama_modelRK16llm_graph_params
000000000025bac0 W _ZN15llm_build_llamaILb1EEC2ERK11llama_modelRK16llm_graph_params
000000000025c360 W _ZN15llm_build_llamaILb1EED0Ev
000000000025e1e0 T _ZN15llm_build_mambaC1ERK11llama_modelRK16llm_graph_params
000000000025e1e0 T _ZN15llm_build_mambaC2ERK11llama_modelRK16llm_graph_params
000000000025e430 W _ZN15llm_build_mambaD0Ev
0000000000263030 W _ZN15llm_build_olmo2ILb0EEC1ERK11llama_modelRK16llm_graph_params
0000000000263030 W _ZN15llm_build_olmo2ILb0EEC2ERK11llama_modelRK16llm_graph_params
0000000000263ed0 W _ZN15llm_build_olmo2ILb0EED0Ev
0000000000263780 W _ZN15llm_build_olmo2ILb1EEC1ERK11llama_modelRK16llm_graph_params
0000000000263780 W _ZN15llm_build_olmo2ILb1EEC2ERK11llama_modelRK16llm_graph_params
0000000000263f00 W _ZN15llm_build_olmo2ILb1EED0Ev
0000000000263f30 T _ZN15llm_build_olmoeC1ERK11llama_modelRK16llm_graph_params
0000000000263f30 T _ZN15llm_build_olmoeC2ERK11llama_modelRK16llm_graph_params
0000000000264600 W _ZN15llm_build_olmoeD0Ev
00000000002654b0 T _ZN15llm_build_orionC1ERK11llama_modelRK16llm_graph_params
00000000002654b0 T _ZN15llm_build_orionC2ERK11llama_modelRK16llm_graph_params
0000000000265ad0 W _ZN15llm_build_orionD0Ev
0000000000268230 T _ZN15llm_build_plamoC1ERK11llama_modelRK16llm_graph_params
0000000000268230 T _ZN15llm_build_plamoC2ERK11llama_modelRK16llm_graph_params
0000000000268800 W _ZN15llm_build_plamoD0Ev
000000000026c030 T _ZN15llm_build_qwen2C1ERK11llama_modelRK16llm_graph_params
000000000026c030 T _ZN15llm_build_qwen2C2ERK11llama_modelRK16llm_graph_params
000000000026c730 W _ZN15llm_build_qwen2D0Ev
000000000026d6c0 T _ZN15llm_build_qwen3C1ERK11llama_modelRK16llm_graph_params
000000000026d6c0 T _ZN15llm_build_qwen3C2ERK11llama_modelRK16llm_graph_params
000000000026dd50 W _ZN15llm_build_qwen3D0Ev
0000000000275bf0 T _ZN15llm_build_rwkv6C1ERK11llama_modelRK16llm_graph_params
0000000000275bf0 T _ZN15llm_build_rwkv6C2ERK11llama_modelRK16llm_graph_params
0000000000276290 W _ZN15llm_build_rwkv6D0Ev
0000000000277300 T _ZN15llm_build_rwkv7C1ERK11llama_modelRK16llm_graph_params
0000000000277300 T _ZN15llm_build_rwkv7C2ERK11llama_modelRK16llm_graph_params
0000000000277930 W _ZN15llm_build_rwkv7D0Ev
0000000000163290 T _ZN16llama_io_write_i12write_stringERKNSt3__112basic_stringIcNS0_11char_traitsIcEENS0_9allocatorIcEEEE
000000000013afc0 W _ZN16llama_io_write_iD2Ev
000000000023b7e0 T _ZN16llm_build_arcticC1ERK11llama_modelRK16llm_graph_params
000000000023b7e0 T _ZN16llm_build_arcticC2ERK11llama_modelRK16llm_graph_params
000000000023bf10 W _ZN16llm_build_arcticD0Ev
000000000023bf40 T _ZN16llm_build_arwkv7C1ERK11llama_modelRK16llm_graph_params
000000000023bf40 T _ZN16llm_build_arwkv7C2ERK11llama_modelRK16llm_graph_params
000000000023c480 W _ZN16llm_build_arwkv7D0Ev
000000000023e6a0 T _ZN16llm_build_bitnetC1ERK11llama_modelRK16llm_graph_params
000000000023e6a0 T _ZN16llm_build_bitnetC2ERK11llama_modelRK16llm_graph_params
000000000023ef30 W _ZN16llm_build_bitnetD0Ev
0000000000240d90 T _ZN16llm_build_cogvlmC1ERK11llama_modelRK16llm_graph_params
0000000000240d90 T _ZN16llm_build_cogvlmC2ERK11llama_modelRK16llm_graph_params
0000000000241340 W _ZN16llm_build_cogvlmD0Ev
0000000000248f00 T _ZN16llm_build_exaoneC1ERK11llama_modelRK16llm_graph_params
0000000000248f00 T _ZN16llm_build_exaoneC2ERK11llama_modelRK16llm_graph_params
00000000002495f0 W _ZN16llm_build_exaoneD0Ev
000000000024ab60 T _ZN16llm_build_falconC1ERK11llama_modelRK16llm_graph_params
000000000024ab60 T _ZN16llm_build_falconC2ERK11llama_modelRK16llm_graph_params
000000000024b1b0 W _ZN16llm_build_falconD0Ev
000000000024c6a0 W _ZN16llm_build_gemma3ILb0EEC1ERK11llama_modelRK16llm_graph_params
000000000024c6a0 W _ZN16llm_build_gemma3ILb0EEC2ERK11llama_modelRK16llm_graph_params
000000000024d5b0 W _ZN16llm_build_gemma3ILb0EED0Ev
000000000024ce10 W _ZN16llm_build_gemma3ILb1EEC1ERK11llama_modelRK16llm_graph_params
000000000024ce10 W _ZN16llm_build_gemma3ILb1EEC2ERK11llama_modelRK16llm_graph_params
000000000024d5e0 W _ZN16llm_build_gemma3ILb1EED0Ev
0000000000269a10 T _ZN16llm_build_plamo223build_plamo2_attn_layerEP23llm_graph_input_attn_kvP11ggml_tensorS3_RK11llama_modeli
0000000000268bf0 T _ZN16llm_build_plamo224build_plamo2_mamba_layerEP18llm_graph_input_rsP11ggml_tensorRK11llama_modelRK12llama_ubatchi
0000000000268830 T _ZN16llm_build_plamo2C1ERK11llama_modelRK16llm_graph_params
0000000000268830 T _ZN16llm_build_plamo2C2ERK11llama_modelRK16llm_graph_params
0000000000269f90 W _ZN16llm_build_plamo2D0Ev
0000000000269fc0 W _ZN16llm_build_plamo3ILb0EEC1ERK11llama_modelRK16llm_graph_params
0000000000269fc0 W _ZN16llm_build_plamo3ILb0EEC2ERK11llama_modelRK16llm_graph_params
000000000026af20 W _ZN16llm_build_plamo3ILb0EED0Ev
000000000026a760 W _ZN16llm_build_plamo3ILb1EEC1ERK11llama_modelRK16llm_graph_params
000000000026a760 W _ZN16llm_build_plamo3ILb1EEC2ERK11llama_modelRK16llm_graph_params
000000000026af50 W _ZN16llm_build_plamo3ILb1EED0Ev
000000000026f390 T _ZN16llm_build_qwen3510build_qkvzEP11ggml_tensori
000000000026f2c0 T _ZN16llm_build_qwen3515build_layer_ffnEP11ggml_tensori
000000000026ed40 T _ZN16llm_build_qwen3516build_layer_attnEP23llm_graph_input_attn_kvP11ggml_tensorS3_Pii
000000000026f460 T _ZN16llm_build_qwen3516build_norm_gatedEP11ggml_tensorS1_S1_i
000000000026e0e0 T _ZN16llm_build_qwen3523build_layer_attn_linearEP18llm_graph_input_rsP11ggml_tensori
000000000026dd80 T _ZN16llm_build_qwen35C1ERK11llama_modelRK16llm_graph_params
000000000026dd80 T _ZN16llm_build_qwen35C2ERK11llama_modelRK16llm_graph_params
000000000026f4b0 W _ZN16llm_build_qwen35D0Ev
0000000000274170 T _ZN16llm_build_refactC1ERK11llama_modelRK16llm_graph_params
0000000000274170 T _ZN16llm_build_refactC2ERK11llama_modelRK16llm_graph_params
00000000002746a0 W _ZN16llm_build_refactD0Ev
000000000027b540 T _ZN16llm_build_t5_decC1ERK11llama_modelRK16llm_graph_params
000000000027b540 T _ZN16llm_build_t5_decC2ERK11llama_modelRK16llm_graph_params
000000000027bcb0 W _ZN16llm_build_t5_decD0Ev
000000000027bce0 T _ZN16llm_build_t5_encC1ERK11llama_modelRK16llm_graph_params
000000000027bce0 T _ZN16llm_build_t5_encC2ERK11llama_modelRK16llm_graph_params
000000000027c1f0 W _ZN16llm_build_t5_encD0Ev
000000000027c900 T _ZN16llm_build_xverseC1ERK11llama_modelRK16llm_graph_params
000000000027c900 T _ZN16llm_build_xverseC2ERK11llama_modelRK16llm_graph_params
000000000027cf20 W _ZN16llm_build_xverseD0Ev
00000000001601a0 W _ZN16llm_graph_paramsaSERKS_
000000000013abd0 W _ZN16llm_graph_paramsD2Ev
0000000000159160 T _ZN16llm_graph_result10set_inputsEPK12llama_ubatch
00000000001594a0 T _ZN16llm_graph_result10set_paramsERK16llm_graph_params
00000000001591a0 T _ZN16llm_graph_result11set_outputsEv
0000000000158ae0 T _ZN16llm_graph_result5resetEv
0000000000159460 T _ZN16llm_graph_result9add_inputENSt3__110unique_ptrI17llm_graph_input_iNS0_14default_deleteIS2_EEEE
0000000000159340 T _ZN16llm_graph_result9can_reuseERK16llm_graph_params
00000000001587c0 T _ZN16llm_graph_resultC1El
00000000001587c0 T _ZN16llm_graph_resultC2El
0000000000160920 W _ZN16llm_graph_resultD0Ev
00000000001607c0 W _ZN16llm_graph_resultD2Ev
000000000018ed00 T _ZN17llama_model_saver10add_tensorEPK11ggml_tensor
000000000018ee70 T _ZN17llama_model_saver17add_kv_from_modelEv
0000000000190900 T _ZN17llama_model_saver22add_tensors_from_modelEv
0000000000190cc0 T _ZN17llama_model_saver4saveERKNSt3__112basic_stringIcNS0_11char_traitsIcEENS0_9allocatorIcEEEE
000000000018e910 T _ZN17llama_model_saver6add_kvE6llm_kvb
000000000018e9f0 T _ZN17llama_model_saver6add_kvE6llm_kvc
000000000018e890 T _ZN17llama_model_saver6add_kvE6llm_kvf
000000000018e820 T _ZN17llama_model_saver6add_kvE6llm_kvi
000000000018e7b0 T _ZN17llama_model_saver6add_kvE6llm_kvj
000000000018e980 T _ZN17llama_model_saver6add_kvE6llm_kvPKc
000000000018ea10 T _ZN17llama_model_saver6add_kvE6llm_kvRKNSt3__16vectorINS1_12basic_stringIcNS1_11char_traitsIcEENS1_9allocatorIcEEEENS6_IS8_EEEE
0000000000190ce0 W _ZN17llama_model_saver6add_kvINSt3__112basic_stringIcNS1_11char_traitsIcEENS1_9allocatorIcEEEEEEv6llm_kvRKT_b
0000000000190e20 W _ZN17llama_model_saver6add_kvINSt3__15arrayIjLm512EEEEEv6llm_kvRKT_b
0000000000191070 W _ZN17llama_model_saver6add_kvINSt3__16vectorIfNS1_9allocatorIfEEEEEEv6llm_kvRKT_b
0000000000190f40 W _ZN17llama_model_saver6add_kvINSt3__16vectorIiNS1_9allocatorIiEEEEEEv6llm_kvRKT_b
000000000018e760 T _ZN17llama_model_saverC1ERK11llama_model
000000000018e760 T _ZN17llama_model_saverC2ERK11llama_model
000000000018e790 T _ZN17llama_model_saverD1Ev
000000000018e790 T _ZN17llama_model_saverD2Ev
0000000000205000 W _ZN17llama_sampler_dryD2Ev
000000000023a950 T _ZN17llm_build_apertusC1ERK11llama_modelRK16llm_graph_params
000000000023a950 T _ZN17llm_build_apertusC2ERK11llama_modelRK16llm_graph_params
000000000023b070 W _ZN17llm_build_apertusD0Ev
000000000023ff00 T _ZN17llm_build_chatglmC1ERK11llama_modelRK16llm_graph_params
000000000023ff00 T _ZN17llm_build_chatglmC2ERK11llama_modelRK16llm_graph_params
00000000002406b0 W _ZN17llm_build_chatglmD0Ev
0000000000249620 W _ZN17llm_build_exaone4ILb0EEC1ERK11llama_modelRK16llm_graph_params
0000000000249620 W _ZN17llm_build_exaone4ILb0EEC2ERK11llama_modelRK16llm_graph_params
000000000024a420 W _ZN17llm_build_exaone4ILb0EED0Ev
0000000000249d20 W _ZN17llm_build_exaone4ILb1EEC1ERK11llama_modelRK16llm_graph_params
0000000000249d20 W _ZN17llm_build_exaone4ILb1EEC2ERK11llama_modelRK16llm_graph_params
000000000024a450 W _ZN17llm_build_exaone4ILb1EED0Ev
0000000000250e00 T _ZN17llm_build_gptneoxC1ERK11llama_modelRK16llm_graph_params
0000000000250e00 T _ZN17llm_build_gptneoxC2ERK11llama_modelRK16llm_graph_params
00000000002515c0 W _ZN17llm_build_gptneoxD0Ev
0000000000252700 T _ZN17llm_build_granite15build_layer_ffnEP11ggml_tensorS1_RK11llama_modeli
00000000002522e0 T _ZN17llm_build_granite21build_attention_layerEP11ggml_tensorS1_P23llm_graph_input_attn_kvRK11llama_modelli
0000000000252030 T _ZN17llm_build_graniteC1ERK11llama_modelRK16llm_graph_params
0000000000252030 T _ZN17llm_build_graniteC2ERK11llama_modelRK16llm_graph_params
0000000000252a10 W _ZN17llm_build_graniteD0Ev
0000000000264da0 T _ZN17llm_build_openelmC1ERK11llama_modelRK16llm_graph_params
0000000000264da0 T _ZN17llm_build_openelmC2ERK11llama_modelRK16llm_graph_params
0000000000265480 W _ZN17llm_build_openelmD0Ev
000000000026d000 T _ZN17llm_build_qwen2vlC1ERK11llama_modelRK16llm_graph_params
000000000026d000 T _ZN17llm_build_qwen2vlC2ERK11llama_modelRK16llm_graph_params
000000000026d690 W _ZN17llm_build_qwen2vlD0Ev
00000000002739e0 T _ZN17llm_build_qwen3vlC1ERK11llama_modelRK16llm_graph_params
00000000002739e0 T _ZN17llm_build_qwen3vlC2ERK11llama_modelRK16llm_graph_params
0000000000274140 W _ZN17llm_build_qwen3vlD0Ev
0000000000278ed0 T _ZN17llm_build_smollm3C1ERK11llama_modelRK16llm_graph_params
0000000000278ed0 T _ZN17llm_build_smollm3C2ERK11llama_modelRK16llm_graph_params
0000000000279630 W _ZN17llm_build_smollm3D0Ev
00000000001594b0 T _ZN17llm_graph_contextC1ERK16llm_graph_params
00000000001594b0 T _ZN17llm_graph_contextC2ERK16llm_graph_params
0000000000160970 W _ZN17llm_graph_contextD0Ev
0000000000160940 W _ZN17llm_graph_contextD2Ev
00000000001604b0 W _ZN17llm_graph_input_i9can_reuseERK16llm_graph_params
0000000000160de0 W _ZN17llm_graph_input_iD0Ev
0000000000160570 W _ZN17llm_graph_input_iD2Ev
000000000021a740 W _ZN17llm_tokenizer_bpeC2ERK11llama_vocab
000000000021ba50 W _ZN17llm_tokenizer_bpeD0Ev
000000000021b9e0 W _ZN17llm_tokenizer_bpeD2Ev
000000000021a730 W _ZN17llm_tokenizer_spmD0Ev
000000000021be50 W _ZN17llm_tokenizer_ugmC2ERK11llama_vocabRKNSt3__16vectorIcNS3_9allocatorIcEEEE
000000000021c2b0 W _ZN17llm_tokenizer_ugmD0Ev
000000000021c270 W _ZN17llm_tokenizer_ugmD2Ev
000000000021be40 W _ZN17llm_tokenizer_wpmD0Ev
0000000000116510 T _ZN18llama_adapter_cvec4initERK11llama_model
0000000000116c90 T _ZN18llama_adapter_cvec5applyERK11llama_modelPKfmiii
000000000013b820 W _ZN18llama_adapter_cvecD2Ev
0000000000116dd0 T _ZN18llama_adapter_lora10get_weightEP11ggml_tensor
0000000000119810 W _ZN18llama_adapter_loraD2Ev
00000000001225e0 T _ZN18llama_batch_allocr10ubatch_addERKNSt3__16vectorIiNS0_9allocatorIiEEEEjb
0000000000122230 T _ZN18llama_batch_allocr11get_out_idsEv
0000000000123340 T _ZN18llama_batch_allocr11split_equalEjb
0000000000121c70 T _ZN18llama_batch_allocr11split_resetEv
0000000000122240 T _ZN18llama_batch_allocr12split_simpleEj
0000000000121240 T _ZN18llama_batch_allocr12ubatch_printERK12llama_ubatchi
0000000000121cb0 T _ZN18llama_batch_allocr14ubatch_reserveEjj
000000000011f7a0 T _ZN18llama_batch_allocr4initERK11llama_batchRK11llama_vocabPK14llama_memory_ijjb
0000000000120fe0 T _ZN18llama_batch_allocr5clearEv
0000000000123c90 T _ZN18llama_batch_allocr9split_seqEj
000000000011f480 T _ZN18llama_batch_allocrC1Ej
000000000011f480 T _ZN18llama_batch_allocrC2Ej
000000000013adf0 W _ZN18llama_batch_allocrD2Ev
000000000013b670 W _ZN18llama_io_read_file4readEm
000000000013b6f0 W _ZN18llama_io_read_file7n_bytesEv
000000000013b6d0 W _ZN18llama_io_read_file7read_toEPvm
000000000013b630 W _ZN18llama_io_read_fileD0Ev
000000000013afe0 W _ZN18llama_io_read_fileD2Ev
0000000000186190 T _ZN18llama_model_loader13create_tensorEP12ggml_contextRKNSt3__112basic_stringIcNS2_11char_traitsIcEENS2_9allocatorIcEEEERKSt16initializer_listIlEi
0000000000186630 T _ZN18llama_model_loader13init_mappingsEbPNSt3__16vectorINS0_10unique_ptrI11llama_mlockNS0_14default_deleteIS3_EEEENS0_9allocatorIS6_EEEE
0000000000186e60 T _ZN18llama_model_loader13load_all_dataEP12ggml_contextRNSt3__113unordered_mapIjP19ggml_backend_bufferNS2_4hashIjEENS2_8equal_toIjEENS2_9allocatorINS2_4pairIKjS5_EEEEEEPNS2_6vectorINS2_10unique_ptrI11llama_mlockNS2_14default_deleteISJ_EEEENSA_ISM_EEEEPFbfPvESQ_
00000000001836e0 T _ZN18llama_model_loader14get_key_or_arrE6llm_kvRjb
000000000018a460 W _ZN18llama_model_loader14get_key_or_arrIfLm512EEEbRKNSt3__112basic_stringIcNS1_11char_traitsIcEENS1_9allocatorIcEEEERNS1_5arrayIT_XT0_EEEjb
0000000000189dd0 W _ZN18llama_model_loader14get_key_or_arrIiLm4EEEbRKNSt3__112basic_stringIcNS1_11char_traitsIcEENS1_9allocatorIcEEEERNS1_5arrayIT_XT0_EEEjb
000000000018a130 W _ZN18llama_model_loader14get_key_or_arrIjLm512EEEbRKNSt3__112basic_stringIcNS1_11char_traitsIcEENS1_9allocatorIcEEEERNS1_5arrayIT_XT0_EEEjb
000000000018a3e0 W _ZN18llama_model_loader14get_key_or_arrINSt3__15arrayIfLm512EEEEEb6llm_kvRT_jb
0000000000189d50 W _ZN18llama_model_loader14get_key_or_arrINSt3__15arrayIiLm4EEEEEb6llm_kvRT_jb
000000000018a0b0 W _ZN18llama_model_loader14get_key_or_arrINSt3__15arrayIjLm512EEEEEb6llm_kvRT_jb
000000000018a710 W _ZN18llama_model_loader19llama_tensor_weightC2EPK10llama_filetPK12gguf_contextP11ggml_tensor
0000000000186300 T _ZN18llama_model_loader21create_tensor_as_viewEP12ggml_contextP11ggml_tensorRKNSt3__112basic_stringIcNS4_11char_traitsIcEENS4_9allocatorIcEEEERKSt16initializer_listIlEmb
000000000018c700 W _ZN18llama_model_loader7get_arrIfLm512EEEbRKNSt3__112basic_stringIcNS1_11char_traitsIcEENS1_9allocatorIcEEEERNS1_5arrayIT_XT0_EEEb
000000000018c160 W _ZN18llama_model_loader7get_arrIiLm4EEEbRKNSt3__112basic_stringIcNS1_11char_traitsIcEENS1_9allocatorIcEEEERNS1_5arrayIT_XT0_EEEb
000000000018c400 W _ZN18llama_model_loader7get_arrIjLm512EEEbRKNSt3__112basic_stringIcNS1_11char_traitsIcEENS1_9allocatorIcEEEERNS1_5arrayIT_XT0_EEEb
0000000000189350 W _ZN18llama_model_loader7get_arrINSt3__112basic_stringIcNS1_11char_traitsIcEENS1_9allocatorIcEEEEEEbRKS7_RNS1_6vectorIT_NS5_ISB_EEEEb
00000000001892d0 W _ZN18llama_model_loader7get_arrINSt3__16vectorINS1_12basic_stringIcNS1_11char_traitsIcEENS1_9allocatorIcEEEENS6_IS8_EEEEEEb6llm_kvRT_b
0000000000183650 T _ZN18llama_model_loader7get_keyI18llama_pooling_typeEEb6llm_kvRT_b
00000000001896c0 W _ZN18llama_model_loader7get_keyIbEEb6llm_kvRT_b
0000000000189740 W _ZN18llama_model_loader7get_keyIbEEbRKNSt3__112basic_stringIcNS1_11char_traitsIcEENS1_9allocatorIcEEEERT_b
0000000000189870 W _ZN18llama_model_loader7get_keyIfEEb6llm_kvRT_b
00000000001898f0 W _ZN18llama_model_loader7get_keyIfEEbRKNSt3__112basic_stringIcNS1_11char_traitsIcEENS1_9allocatorIcEEEERT_b
000000000018a9c0 W _ZN18llama_model_loader7get_keyIiEEbRKNSt3__112basic_stringIcNS1_11char_traitsIcEENS1_9allocatorIcEEEERT_b
0000000000189a30 W _ZN18llama_model_loader7get_keyIjEEb6llm_kvRT_b
0000000000189ab0 W _ZN18llama_model_loader7get_keyIjEEbRKNSt3__112basic_stringIcNS1_11char_traitsIcEENS1_9allocatorIcEEEERT_b
0000000000189be0 W _ZN18llama_model_loader7get_keyINSt3__112basic_stringIcNS1_11char_traitsIcEENS1_9allocatorIcEEEEEEb6llm_kvRT_b
0000000000189c60 W _ZN18llama_model_loader7get_keyINSt3__112basic_stringIcNS1_11char_traitsIcEENS1_9allocatorIcEEEEEEbRKS7_RT_b
000000000018a890 W _ZN18llama_model_loader7get_keyItEEbRKNSt3__112basic_stringIcNS1_11char_traitsIcEENS1_9allocatorIcEEEERT_b
0000000000189150 W _ZN18llama_model_loader9get_arr_nIjEENSt3__19enable_ifIXsr3std11is_integralIT_EE5valueEbE4typeE6llm_kvRS3_b
00000000001891d0 W _ZN18llama_model_loader9get_arr_nIjEENSt3__19enable_ifIXsr3std11is_integralIT_EE5valueEbE4typeERKNS1_12basic_stringIcNS1_11char_traitsIcEENS1_9allocatorIcEEEERS3_b
00000000001838b0 T _ZN18llama_model_loaderC1ERKNSt3__112basic_stringIcNS0_11char_traitsIcEENS0_9allocatorIcEEEERNS0_6vectorIS6_NS4_IS6_EEEEbbbbPK23llama_model_kv_overridePK32llama_model_tensor_buft_override
00000000001838b0 T _ZN18llama_model_loaderC2ERKNSt3__112basic_stringIcNS0_11char_traitsIcEENS0_9allocatorIcEEEERNS0_6vectorIS6_NS4_IS6_EEEEbbbbPK23llama_model_kv_overridePK32llama_model_tensor_buft_override
0000000000115ec0 W _ZN18llama_model_loaderD2Ev
000000000023c4b0 T _ZN18llm_build_baichuanC1ERK11llama_modelRK16llm_graph_params
000000000023c4b0 T _ZN18llm_build_baichuanC2ERK11llama_modelRK16llm_graph_params
000000000023caf0 W _ZN18llm_build_baichuanD0Ev
00000000002430e0 T _ZN18llm_build_deepseekC1ERK11llama_modelRK16llm_graph_params
00000000002430e0 T _ZN18llm_build_deepseekC2ERK11llama_modelRK16llm_graph_params
0000000000243930 W _ZN18llm_build_deepseekD0Ev
0000000000247a00 T _ZN18llm_build_ernie4_5C1ERK11llama_modelRK16llm_graph_params
0000000000247a00 T _ZN18llm_build_ernie4_5C2ERK11llama_modelRK16llm_graph_params
00000000002480a0 W _ZN18llm_build_ernie4_5D0Ev
00000000002480d0 T _ZN18llm_build_eurobertC1ERK11llama_modelRK16llm_graph_params
00000000002480d0 T _ZN18llm_build_eurobertC2ERK11llama_modelRK16llm_graph_params
0000000000248650 W _ZN18llm_build_eurobertD0Ev
000000000024f4b0 T _ZN18llm_build_glm4_moeC1ERK11llama_modelRK16llm_graph_params
000000000024f4b0 T _ZN18llm_build_glm4_moeC2ERK11llama_modelRK16llm_graph_params
000000000024fe40 W _ZN18llm_build_glm4_moeD0Ev
0000000000253340 T _ZN18llm_build_grovemoeC1ERK11llama_modelRK16llm_graph_params
0000000000253340 T _ZN18llm_build_grovemoeC2ERK11llama_modelRK16llm_graph_params
0000000000253b20 W _ZN18llm_build_grovemoeD0Ev
000000000025eb60 T _ZN18llm_build_minicpm3C1ERK11llama_modelRK16llm_graph_params
000000000025eb60 T _ZN18llm_build_minicpm3C2ERK11llama_modelRK16llm_graph_params
000000000025f6d0 W _ZN18llm_build_minicpm3D0Ev
000000000025fdd0 T _ZN18llm_build_mistral3C1ERK11llama_modelRK16llm_graph_params
000000000025fdd0 T _ZN18llm_build_mistral3C2ERK11llama_modelRK16llm_graph_params
0000000000260640 W _ZN18llm_build_mistral3D0Ev
0000000000261c70 T _ZN18llm_build_nemotronC1ERK11llama_modelRK16llm_graph_params
0000000000261c70 T _ZN18llm_build_nemotronC2ERK11llama_modelRK16llm_graph_params
0000000000262350 W _ZN18llm_build_nemotronD0Ev
0000000000262380 T _ZN18llm_build_neo_bertC1ERK11llama_modelRK16llm_graph_params
0000000000262380 T _ZN18llm_build_neo_bertC2ERK11llama_modelRK16llm_graph_params
0000000000262900 W _ZN18llm_build_neo_bertD0Ev
000000000026c760 T _ZN18llm_build_qwen2moeC1ERK11llama_modelRK16llm_graph_params
000000000026c760 T _ZN18llm_build_qwen2moeC2ERK11llama_modelRK16llm_graph_params
000000000026cfd0 W _ZN18llm_build_qwen2moeD0Ev
0000000000270da0 T _ZN18llm_build_qwen3moeC1ERK11llama_modelRK16llm_graph_params
0000000000270da0 T _ZN18llm_build_qwen3moeC2ERK11llama_modelRK16llm_graph_params
0000000000271460 W _ZN18llm_build_qwen3moeD0Ev
0000000000277960 T _ZN18llm_build_seed_ossC1ERK11llama_modelRK16llm_graph_params
0000000000277960 T _ZN18llm_build_seed_ossC2ERK11llama_modelRK16llm_graph_params
0000000000278080 W _ZN18llm_build_seed_ossD0Ev
0000000000279660 T _ZN18llm_build_stablelmC1ERK11llama_modelRK16llm_graph_params
0000000000279660 T _ZN18llm_build_stablelmC2ERK11llama_modelRK16llm_graph_params
0000000000279dd0 W _ZN18llm_build_stablelmD0Ev
0000000000156fa0 T _ZN18llm_graph_input_rs9can_reuseERK16llm_graph_params
0000000000156f00 T _ZN18llm_graph_input_rs9set_inputEPK12llama_ubatch
0000000000160510 W _ZN18llm_graph_input_rsD0Ev
000000000021c450 W _ZN18llm_tokenizer_rwkvC2ERK11llama_vocab
000000000021c5c0 W _ZN18llm_tokenizer_rwkvD0Ev
000000000021c5a0 W _ZN18llm_tokenizer_rwkvD2Ev
000000000013b760 W _ZN19llama_io_write_file12write_tensorEPK11ggml_tensormm
000000000013b740 W _ZN19llama_io_write_file5writeEPKvm
000000000013b040 W _ZN19llama_io_write_file7n_bytesEv
000000000013b700 W _ZN19llama_io_write_fileD0Ev
000000000013b010 W _ZN19llama_io_write_fileD2Ev
00000000001790b0 T _ZN19llama_kv_cache_iswa10init_batchER18llama_batch_allocrjb
0000000000179780 T _ZN19llama_kv_cache_iswa10state_readER15llama_io_read_iij
0000000000179690 T _ZN19llama_kv_cache_iswa11init_updateEP13llama_contextb
0000000000178d70 T _ZN19llama_kv_cache_iswa5clearEb
0000000000178de0 T _ZN19llama_kv_cache_iswa6seq_cpEiiii
0000000000178da0 T _ZN19llama_kv_cache_iswa6seq_rmEiii
0000000000178e60 T _ZN19llama_kv_cache_iswa7seq_addEiiii
0000000000178eb0 T _ZN19llama_kv_cache_iswa7seq_divEiiii
0000000000178e30 T _ZN19llama_kv_cache_iswa8seq_keepEi
0000000000179640 T _ZN19llama_kv_cache_iswa9init_fullEv
0000000000178a00 T _ZN19llama_kv_cache_iswaC1ERK11llama_model9ggml_typeS3_bbbbjjjjRKNSt3__18functionIFbiEEERKNS5_IFiiEEE
0000000000178a00 T _ZN19llama_kv_cache_iswaC2ERK11llama_model9ggml_typeS3_bbbbjjjjRKNSt3__18functionIFbiEEERKNS5_IFiiEEE
000000000017a3f0 W _ZN19llama_kv_cache_iswaD0Ev
000000000017a3a0 W _ZN19llama_kv_cache_iswaD2Ev
000000000017a840 T _ZN19llama_memory_hybrid10init_batchER18llama_batch_allocrjb
000000000017b140 T _ZN19llama_memory_hybrid10state_readER15llama_io_read_iij
000000000017ad00 T _ZN19llama_memory_hybrid11init_updateEP13llama_contextb
000000000017ad70 T _ZN19llama_memory_hybrid5clearEb
000000000017adf0 T _ZN19llama_memory_hybrid6seq_cpEiiii
000000000017ada0 T _ZN19llama_memory_hybrid6seq_rmEiii
000000000017ae70 T _ZN19llama_memory_hybrid7seq_addEiiii
000000000017aec0 T _ZN19llama_memory_hybrid7seq_divEiiii
000000000017ae40 T _ZN19llama_memory_hybrid8seq_keepEi
000000000017acb0 T _ZN19llama_memory_hybrid9init_fullEv
000000000017a520 T _ZN19llama_memory_hybridC1ERK11llama_model9ggml_typeS3_bjjj14llama_swa_typeS3_S3_jjbbRKNSt3__18functionIFbiEEESA_
000000000017a520 T _ZN19llama_memory_hybridC2ERK11llama_model9ggml_typeS3_bjjj14llama_swa_typeS3_S3_jjbbRKNSt3__18functionIFbiEEESA_
000000000017bbb0 W _ZN19llama_memory_hybridD0Ev
000000000017bb60 W _ZN19llama_memory_hybridD2Ev
000000000023f550 T _ZN19llm_build_chameleonC1ERK11llama_modelRK16llm_graph_params
000000000023f550 T _ZN19llm_build_chameleonC2ERK11llama_modelRK16llm_graph_params
000000000023fed0 W _ZN19llm_build_chameleonD0Ev
00000000002406e0 T _ZN19llm_build_codeshellC1ERK11llama_modelRK16llm_graph_params
00000000002406e0 T _ZN19llm_build_codeshellC2ERK11llama_modelRK16llm_graph_params
0000000000240d60 W _ZN19llm_build_codeshellD0Ev
0000000000241a70 T _ZN19llm_build_command_rC1ERK11llama_modelRK16llm_graph_params
0000000000241a70 T _ZN19llm_build_command_rC2ERK11llama_modelRK16llm_graph_params
00000000002421b0 W _ZN19llm_build_command_rD0Ev
0000000000243960 T _ZN19llm_build_deepseek2C1ERK11llama_modelRK16llm_graph_params
0000000000243960 T _ZN19llm_build_deepseek2C2ERK11llama_modelRK16llm_graph_params
00000000002449f0 W _ZN19llm_build_deepseek2D0Ev
000000000024a480 T _ZN19llm_build_falcon_h1C1ERK11llama_modelRK16llm_graph_params
000000000024a480 T _ZN19llm_build_falcon_h1C2ERK11llama_modelRK16llm_graph_params
000000000024ab30 W _ZN19llm_build_falcon_h1D0Ev
0000000000254bb0 T _ZN19llm_build_internlm2C1ERK11llama_modelRK16llm_graph_params
0000000000254bb0 T _ZN19llm_build_internlm2C2ERK11llama_modelRK16llm_graph_params
0000000000255290 W _ZN19llm_build_internlm2D0Ev
0000000000259ab0 T _ZN19llm_build_llada_moeC1ERK11llama_modelRK16llm_graph_params
0000000000259ab0 T _ZN19llm_build_llada_moeC2ERK11llama_modelRK16llm_graph_params
000000000025a170 W _ZN19llm_build_llada_moeD0Ev
000000000025c390 T _ZN19llm_build_maincoderC1ERK11llama_modelRK16llm_graph_params
000000000025c390 T _ZN19llm_build_maincoderC2ERK11llama_modelRK16llm_graph_params
000000000025ca20 W _ZN19llm_build_maincoderD0Ev
0000000000265b00 T _ZN19llm_build_paddleocrC1ERK11llama_modelRK16llm_graph_params
0000000000265b00 T _ZN19llm_build_paddleocrC2ERK11llama_modelRK16llm_graph_params
00000000002661e0 W _ZN19llm_build_paddleocrD0Ev
0000000000270c50 T _ZN19llm_build_qwen35moe10build_qkvzEP11ggml_tensori
0000000000270a20 T _ZN19llm_build_qwen35moe15build_layer_ffnEP11ggml_tensori
00000000002704a0 T _ZN19llm_build_qwen35moe16build_layer_attnEP23llm_graph_input_attn_kvP11ggml_tensorS3_Pii
0000000000270d20 T _ZN19llm_build_qwen35moe16build_norm_gatedEP11ggml_tensorS1_S1_i
000000000026f840 T _ZN19llm_build_qwen35moe23build_layer_attn_linearEP18llm_graph_input_rsP11ggml_tensori
000000000026f4e0 T _ZN19llm_build_qwen35moeC1ERK11llama_modelRK16llm_graph_params
000000000026f4e0 T _ZN19llm_build_qwen35moeC2ERK11llama_modelRK16llm_graph_params
0000000000270d70 W _ZN19llm_build_qwen35moeD0Ev
0000000000272d60 T _ZN19llm_build_qwen3next10build_qkvzEP11ggml_tensori
0000000000272aa0 T _ZN19llm_build_qwen3next15build_layer_ffnEP11ggml_tensori
0000000000272540 T _ZN19llm_build_qwen3next16build_layer_attnEP23llm_graph_input_attn_kvP11ggml_tensorS3_i
0000000000272d10 T _ZN19llm_build_qwen3next16build_norm_gatedEP11ggml_tensorS1_S1_i
00000000002717c0 T _ZN19llm_build_qwen3next23build_layer_attn_linearEP18llm_graph_input_rsP11ggml_tensori
0000000000271490 T _ZN19llm_build_qwen3nextC1ERK11llama_modelRK16llm_graph_params
0000000000271490 T _ZN19llm_build_qwen3nextC2ERK11llama_modelRK16llm_graph_params
00000000002731f0 W _ZN19llm_build_qwen3nextD0Ev
0000000000279e00 T _ZN19llm_build_starcoderC1ERK11llama_modelRK16llm_graph_params
0000000000279e00 T _ZN19llm_build_starcoderC2ERK11llama_modelRK16llm_graph_params
000000000027a3f0 W _ZN19llm_build_starcoderD0Ev
0000000000156b50 T _ZN19llm_graph_input_cls9set_inputEPK12llama_ubatch
0000000000160500 W _ZN19llm_graph_input_clsD0Ev
0000000000155ac0 T _ZN19llm_graph_input_pos9can_reuseERK16llm_graph_params
0000000000155840 T _ZN19llm_graph_input_pos9set_inputEPK12llama_ubatch
0000000000160490 W _ZN19llm_graph_input_posD0Ev
0000000000140c10 T _ZN20llama_grammar_parser10parse_ruleEPKc
000000000013d330 T _ZN20llama_grammar_parser13get_symbol_idEPKcm
000000000013dd50 T _ZN20llama_grammar_parser14parse_sequenceEPKcRKNSt3__112basic_stringIcNS2_11char_traitsIcEENS2_9allocatorIcEEEERNS2_6vectorI21llama_grammar_elementNS6_ISC_EEEEb
000000000013d810 T _ZN20llama_grammar_parser16parse_alternatesEPKcRKNSt3__112basic_stringIcNS2_11char_traitsIcEENS2_9allocatorIcEEEEjb
000000000013d4a0 T _ZN20llama_grammar_parser18generate_symbol_idERKNSt3__112basic_stringIcNS0_11char_traitsIcEENS0_9allocatorIcEEEE
0000000000140fa0 T _ZN20llama_grammar_parser5parseEPKc
0000000000141290 T _ZN20llama_grammar_parser5printEP8_IO_FILE
000000000013d730 T _ZN20llama_grammar_parser8add_ruleEjRKNSt3__16vectorI21llama_grammar_elementNS0_9allocatorIS2_EEEE
00000000001481a0 W _ZN20llama_grammar_parserD2Ev
000000000013b580 W _ZN20llama_io_read_buffer4readEm
000000000013b620 W _ZN20llama_io_read_buffer7n_bytesEv
000000000013b5f0 W _ZN20llama_io_read_buffer7read_toEPvm
000000000013b570 W _ZN20llama_io_read_bufferD0Ev
000000000013b430 W _ZN20llama_io_write_dummy12write_tensorEPK11ggml_tensormm
000000000013b420 W _ZN20llama_io_write_dummy5writeEPKvm
000000000013b440 W _ZN20llama_io_write_dummy7n_bytesEv
000000000013b410 W _ZN20llama_io_write_dummyD0Ev
000000000023cb20 T _ZN20llm_build_bailingmoeC1ERK11llama_modelRK16llm_graph_params
000000000023cb20 T _ZN20llm_build_bailingmoeC2ERK11llama_modelRK16llm_graph_params
000000000023d280 W _ZN20llm_build_bailingmoeD0Ev
0000000000248680 T _ZN20llm_build_exaone_moeC1ERK11llama_modelRK16llm_graph_params
0000000000248680 T _ZN20llm_build_exaone_moeC2ERK11llama_modelRK16llm_graph_params
0000000000248ed0 W _ZN20llm_build_exaone_moeD0Ev
000000000025a7d0 T _ZN20llm_build_llama_iswaC1ERK11llama_modelRK16llm_graph_params
000000000025a7d0 T _ZN20llm_build_llama_iswaC2ERK11llama_modelRK16llm_graph_params
000000000025b1e0 W _ZN20llm_build_llama_iswaD0Ev
000000000025ca70 T _ZN20llm_build_mamba_base17build_mamba_layerEP18llm_graph_input_rsP11ggml_tensorRK11llama_modelRK12llama_ubatchi
000000000025ca50 T _ZN20llm_build_mamba_baseC1ERK16llm_graph_params
000000000025ca50 T _ZN20llm_build_mamba_baseC2ERK16llm_graph_params
000000000025e1b0 W _ZN20llm_build_mamba_baseD0Ev
000000000025e460 T _ZN20llm_build_mimo2_iswaC1ERK11llama_modelRK16llm_graph_params
000000000025e460 T _ZN20llm_build_mimo2_iswaC2ERK11llama_modelRK16llm_graph_params
000000000025eb30 W _ZN20llm_build_mimo2_iswaD0Ev
000000000025f700 T _ZN20llm_build_minimax_m2C1ERK11llama_modelRK16llm_graph_params
000000000025f700 T _ZN20llm_build_minimax_m2C2ERK11llama_modelRK16llm_graph_params
000000000025fda0 W _ZN20llm_build_minimax_m2D0Ev
0000000000261a50 T _ZN20llm_build_nemotron_h15build_ffn_layerEP11ggml_tensorRK11llama_modeli
0000000000261740 T _ZN20llm_build_nemotron_h21build_attention_layerEP11ggml_tensorP23llm_graph_input_attn_kvRK11llama_modelli
0000000000261470 T _ZN20llm_build_nemotron_hC1ERK11llama_modelRK16llm_graph_params
0000000000261470 T _ZN20llm_build_nemotron_hC2ERK11llama_modelRK16llm_graph_params
0000000000261c40 W _ZN20llm_build_nemotron_hD0Ev
0000000000273220 T _ZN20llm_build_qwen3vlmoeC1ERK11llama_modelRK16llm_graph_params
0000000000273220 T _ZN20llm_build_qwen3vlmoeC2ERK11llama_modelRK16llm_graph_params
00000000002739b0 W _ZN20llm_build_qwen3vlmoeD0Ev
0000000000274dc0 T _ZN20llm_build_rwkv6_baseC1ERK11llama_modelRK16llm_graph_params
0000000000274dc0 T _ZN20llm_build_rwkv6_baseC2ERK11llama_modelRK16llm_graph_params
0000000000275bc0 W _ZN20llm_build_rwkv6_baseD0Ev
00000000002762c0 T _ZN20llm_build_rwkv6qwen2C1ERK11llama_modelRK16llm_graph_params
00000000002762c0 T _ZN20llm_build_rwkv6qwen2C2ERK11llama_modelRK16llm_graph_params
00000000002767a0 W _ZN20llm_build_rwkv6qwen2D0Ev
00000000002767d0 T _ZN20llm_build_rwkv7_baseC1ERK11llama_modelRK16llm_graph_params
00000000002767d0 T _ZN20llm_build_rwkv7_baseC2ERK11llama_modelRK16llm_graph_params
00000000002772d0 W _ZN20llm_build_rwkv7_baseD0Ev
000000000027a420 T _ZN20llm_build_starcoder2C1ERK11llama_modelRK16llm_graph_params
000000000027a420 T _ZN20llm_build_starcoder2C2ERK11llama_modelRK16llm_graph_params
000000000027ab10 W _ZN20llm_build_starcoder2D0Ev
00000000001557d0 T _ZN20llm_graph_input_embd9can_reuseERK16llm_graph_params
0000000000155720 T _ZN20llm_graph_input_embd9set_inputEPK12llama_ubatch
0000000000160480 W _ZN20llm_graph_input_embdD0Ev
0000000000156700 T _ZN20llm_graph_input_mean9set_inputEPK12llama_ubatch
00000000001604f0 W _ZN20llm_graph_input_meanD0Ev
000000000021c5f0 W _ZN20llm_tokenizer_plamo25buildERK11llama_vocab
000000000021db50 W _ZN20llm_tokenizer_plamo2D0Ev
000000000021da50 W _ZN20llm_tokenizer_plamo2D2Ev
000000000013b4e0 W _ZN21llama_io_write_buffer12write_tensorEPK11ggml_tensormm
000000000013b460 W _ZN21llama_io_write_buffer5writeEPKvm
000000000013b560 W _ZN21llama_io_write_buffer7n_bytesEv
000000000013b450 W _ZN21llama_io_write_bufferD0Ev
00000000002029c0 W _ZN21llama_sampler_backend8get_nameEv
0000000000202820 W _ZN21llama_sampler_backendC2EPKc
0000000000202ae0 W _ZN21llama_sampler_backendD2Ev
000000000023d2b0 T _ZN21llm_build_bailingmoe2C1ERK11llama_modelRK16llm_graph_params
000000000023d2b0 T _ZN21llm_build_bailingmoe2C2ERK11llama_modelRK16llm_graph_params
000000000023dac0 W _ZN21llm_build_bailingmoe2D0Ev
000000000024bf70 T _ZN21llm_build_gemma2_iswaC1ERK11llama_modelRK16llm_graph_params
000000000024bf70 T _ZN21llm_build_gemma2_iswaC2ERK11llama_modelRK16llm_graph_params
000000000024c670 W _ZN21llm_build_gemma2_iswaD0Ev
0000000000254310 T _ZN21llm_build_hunyuan_moeC1ERK11llama_modelRK16llm_graph_params
0000000000254310 T _ZN21llm_build_hunyuan_moeC2ERK11llama_modelRK16llm_graph_params
0000000000254b80 W _ZN21llm_build_hunyuan_moeD0Ev
0000000000256590 T _ZN21llm_build_kimi_linearC1ERK11llama_modelRK16llm_graph_params
0000000000256590 T _ZN21llm_build_kimi_linearC2ERK11llama_modelRK16llm_graph_params
0000000000257de0 W _ZN21llm_build_kimi_linearD0Ev
0000000000260670 T _ZN21llm_build_modern_bertC1ERK11llama_modelRK16llm_graph_params
0000000000260670 T _ZN21llm_build_modern_bertC2ERK11llama_modelRK16llm_graph_params
0000000000260c70 W _ZN21llm_build_modern_bertD0Ev
000000000027ab40 T _ZN21llm_build_step35_iswaC1ERK11llama_modelRK16llm_graph_params
000000000027ab40 T _ZN21llm_build_step35_iswaC2ERK11llama_modelRK16llm_graph_params
000000000027b510 W _ZN21llm_build_step35_iswaD0Ev
0000000000173820 T _ZN22llama_kv_cache_context4nextEv
0000000000173850 T _ZN22llama_kv_cache_context5applyEv
0000000000173200 T _ZN22llama_kv_cache_contextC1E19llama_memory_status
0000000000173240 T _ZN22llama_kv_cache_contextC1EP14llama_kv_cache
00000000001736b0 T _ZN22llama_kv_cache_contextC1EP14llama_kv_cacheNSt3__16vectorINS0_9slot_infoENS2_9allocatorIS4_EEEENS3_I12llama_ubatchNS5_IS8_EEEE
0000000000173600 T _ZN22llama_kv_cache_contextC1EP14llama_kv_cacheP13llama_contextbNS0_16stream_copy_infoE
0000000000173200 T _ZN22llama_kv_cache_contextC2E19llama_memory_status
0000000000173240 T _ZN22llama_kv_cache_contextC2EP14llama_kv_cache
00000000001736b0 T _ZN22llama_kv_cache_contextC2EP14llama_kv_cacheNSt3__16vectorINS0_9slot_infoENS2_9allocatorIS4_EEEENS3_I12llama_ubatchNS5_IS8_EEEE
0000000000173600 T _ZN22llama_kv_cache_contextC2EP14llama_kv_cacheP13llama_contextbNS0_16stream_copy_infoE
0000000000173800 T _ZN22llama_kv_cache_contextD0Ev
0000000000173730 T _ZN22llama_kv_cache_contextD1Ev
0000000000173730 T _ZN22llama_kv_cache_contextD2Ev
000000000017eb40 T _ZN22llama_memory_recurrent10init_batchER18llama_batch_allocrjb
00000000001805a0 T _ZN22llama_memory_recurrent10state_readER15llama_io_read_iij
000000000017f0c0 T _ZN22llama_memory_recurrent11init_updateEP13llama_contextb
0000000000180c30 T _ZN22llama_memory_recurrent15state_read_dataER15llama_io_read_ij
0000000000180660 T _ZN22llama_memory_recurrent15state_read_metaER15llama_io_read_iji
000000000017e050 T _ZN22llama_memory_recurrent5clearEb
000000000017e3d0 T _ZN22llama_memory_recurrent6seq_cpEiiii
000000000017e130 T _ZN22llama_memory_recurrent6seq_rmEiii
000000000017ef40 T _ZN22llama_memory_recurrent7prepareERKNSt3__16vectorI12llama_ubatchNS0_9allocatorIS2_EEEE
000000000017e7a0 T _ZN22llama_memory_recurrent7seq_addEiiii
000000000017e840 T _ZN22llama_memory_recurrent7seq_divEiiii
000000000017e5c0 T _ZN22llama_memory_recurrent8seq_keepEi
000000000017f110 T _ZN22llama_memory_recurrent9find_slotERK12llama_ubatch
000000000017f070 T _ZN22llama_memory_recurrent9init_fullEv
000000000017d710 T _ZN22llama_memory_recurrentC1ERK11llama_model9ggml_typeS3_bjjRKNSt3__18functionIFbiEEE
000000000017d710 T _ZN22llama_memory_recurrentC2ERK11llama_model9ggml_typeS3_bjjRKNSt3__18functionIFbiEEE
00000000001814b0 W _ZN22llama_memory_recurrentD0Ev
0000000000181400 W _ZN22llama_memory_recurrentD2Ev
0000000000241370 T _ZN22llm_build_cohere2_iswaC1ERK11llama_modelRK16llm_graph_params
0000000000241370 T _ZN22llm_build_cohere2_iswaC2ERK11llama_modelRK16llm_graph_params
0000000000241a40 W _ZN22llm_build_cohere2_iswaD0Ev
00000000002470c0 T _ZN22llm_build_ernie4_5_moeC1ERK11llama_modelRK16llm_graph_params
00000000002470c0 T _ZN22llm_build_ernie4_5_moeC2ERK11llama_modelRK16llm_graph_params
00000000002479d0 W _ZN22llm_build_ernie4_5_moeD0Ev
000000000024f170 T _ZN22llm_build_gemma3n_iswa13altup_correctEP11ggml_tensorS1_i
000000000024ed00 T _ZN22llm_build_gemma3n_iswa13altup_predictEP11ggml_tensori
000000000024f0a0 T _ZN22llm_build_gemma3n_iswa13gaussian_topkEP11ggml_tensor
000000000024ef50 T _ZN22llm_build_gemma3n_iswa13view_2d_sliceEP11ggml_tensori
000000000024ecd0 T _ZN22llm_build_gemma3n_iswa14calc_magnitudeEP11ggml_tensor
000000000024eae0 T _ZN22llm_build_gemma3n_iswa20get_per_layer_inputsEv
000000000024e9a0 T _ZN22llm_build_gemma3n_iswa24project_per_layer_inputsEP11ggml_tensorS1_
000000000024f3f0 T _ZN22llm_build_gemma3n_iswa31altup_compute_router_modalitiesEP11ggml_tensori
000000000024efe0 T _ZN22llm_build_gemma3n_iswa6laurelEP11ggml_tensori
000000000024d610 T _ZN22llm_build_gemma3n_iswaC1ERK11llama_modelRK16llm_graph_params
000000000024d610 T _ZN22llm_build_gemma3n_iswaC2ERK11llama_modelRK16llm_graph_params
000000000024f480 W _ZN22llm_build_gemma3n_iswaD0Ev
00000000002780b0 W _ZN22llm_build_smallthinkerILb0EEC1ERK11llama_modelRK16llm_graph_params
00000000002780b0 W _ZN22llm_build_smallthinkerILb0EEC2ERK11llama_modelRK16llm_graph_params
0000000000278e70 W _ZN22llm_build_smallthinkerILb0EED0Ev
0000000000278790 W _ZN22llm_build_smallthinkerILb1EEC1ERK11llama_modelRK16llm_graph_params
0000000000278790 W _ZN22llm_build_smallthinkerILb1EEC2ERK11llama_modelRK16llm_graph_params
0000000000278ea0 W _ZN22llm_build_smallthinkerILb1EED0Ev
0000000000157870 T _ZN22llm_graph_input_attn_k9can_reuseERK16llm_graph_params
0000000000157830 T _ZN22llm_graph_input_attn_k9set_inputEPK12llama_ubatch
0000000000160550 W _ZN22llm_graph_input_attn_kD0Ev
0000000000253b50 T _ZN23llm_build_hunyuan_denseC1ERK11llama_modelRK16llm_graph_params
0000000000253b50 T _ZN23llm_build_hunyuan_denseC2ERK11llama_modelRK16llm_graph_params
00000000002542e0 W _ZN23llm_build_hunyuan_denseD0Ev
00000000001577b0 T _ZN23llm_graph_input_attn_kv9can_reuseERK16llm_graph_params
0000000000157750 T _ZN23llm_graph_input_attn_kv9set_inputEPK12llama_ubatch
0000000000160540 W _ZN23llm_graph_input_attn_kvD0Ev
0000000000170e00 T _ZN23llm_graph_input_k_shift9set_inputEPK12llama_ubatch
00000000001751d0 W _ZN23llm_graph_input_k_shiftD0Ev
00000000001566f0 T _ZN23llm_graph_input_out_ids9can_reuseERK16llm_graph_params
0000000000156530 T _ZN23llm_graph_input_out_ids9set_inputEPK12llama_ubatch
00000000001604e0 W _ZN23llm_graph_input_out_idsD0Ev
000000000017c0a0 T _ZN24llama_memory_hybrid_iswa10init_batchER18llama_batch_allocrjb
000000000017ca50 T _ZN24llama_memory_hybrid_iswa10state_readER15llama_io_read_iij
000000000017c610 T _ZN24llama_memory_hybrid_iswa11init_updateEP13llama_contextb
000000000017c680 T _ZN24llama_memory_hybrid_iswa5clearEb
000000000017c700 T _ZN24llama_memory_hybrid_iswa6seq_cpEiiii
000000000017c6b0 T _ZN24llama_memory_hybrid_iswa6seq_rmEiii
000000000017c780 T _ZN24llama_memory_hybrid_iswa7seq_addEiiii
000000000017c7d0 T _ZN24llama_memory_hybrid_iswa7seq_divEiiii
000000000017c750 T _ZN24llama_memory_hybrid_iswa8seq_keepEi
000000000017c5c0 T _ZN24llama_memory_hybrid_iswa9init_fullEv
000000000017bd80 T _ZN24llama_memory_hybrid_iswaC1ERK11llama_model9ggml_typeS3_bbjjjS3_S3_jjbbRKNSt3__18functionIFbiEEES9_
000000000017bd80 T _ZN24llama_memory_hybrid_iswaC2ERK11llama_model9ggml_typeS3_bbjjjS3_S3_jjbbRKNSt3__18functionIFbiEEES9_
000000000017d540 W _ZN24llama_memory_hybrid_iswaD0Ev
000000000017d4f0 W _ZN24llama_memory_hybrid_iswaD2Ev
0000000000244a40 T _ZN24llm_build_delta_net_base24build_delta_net_chunkingEP11ggml_tensorS1_S1_S1_S1_S1_i
0000000000245c70 T _ZN24llm_build_delta_net_base30build_delta_net_autoregressiveEP11ggml_tensorS1_S1_S1_S1_S1_i
0000000000244a20 T _ZN24llm_build_delta_net_baseC1ERK16llm_graph_params
0000000000244a20 T _ZN24llm_build_delta_net_baseC2ERK16llm_graph_params
00000000002461a0 W _ZN24llm_build_delta_net_baseD0Ev
0000000000251cf0 T _ZN24llm_build_granite_hybrid15build_layer_ffnEP11ggml_tensorS1_RK11llama_modeli
00000000002518d0 T _ZN24llm_build_granite_hybrid21build_attention_layerEP11ggml_tensorS1_P23llm_graph_input_attn_kvRK11llama_modelli
00000000002515f0 T _ZN24llm_build_granite_hybridC1ERK11llama_modelRK16llm_graph_params
00000000002515f0 T _ZN24llm_build_granite_hybridC2ERK11llama_modelRK16llm_graph_params
0000000000252000 W _ZN24llm_build_granite_hybridD0Ev
0000000000266210 T _ZN24llm_build_pangu_embeddedC1ERK11llama_modelRK16llm_graph_params
0000000000266210 T _ZN24llm_build_pangu_embeddedC2ERK11llama_modelRK16llm_graph_params
00000000002668c0 W _ZN24llm_build_pangu_embeddedD0Ev
0000000000158680 T _ZN24llm_graph_input_sampling9can_reuseERK16llm_graph_params
0000000000158490 T _ZN24llm_graph_input_sampling9set_inputEPK12llama_ubatch
0000000000160790 W _ZN24llm_graph_input_samplingD0Ev
0000000000160770 W _ZN24llm_graph_input_samplingD2Ev
000000000024b1e0 T _ZN25llm_build_gemma_embeddingC1ERK11llama_modelRK16llm_graph_params
000000000024b1e0 T _ZN25llm_build_gemma_embeddingC2ERK11llama_modelRK16llm_graph_params
000000000024b8f0 W _ZN25llm_build_gemma_embeddingD0Ev
0000000000264630 T _ZN25llm_build_openai_moe_iswaC1ERK11llama_modelRK16llm_graph_params
0000000000264630 T _ZN25llm_build_openai_moe_iswaC2ERK11llama_modelRK16llm_graph_params
0000000000264d70 W _ZN25llm_build_openai_moe_iswaD0Ev
0000000000155ae0 T _ZN25llm_graph_input_attn_temp9set_inputEPK12llama_ubatch
00000000001604a0 W _ZN25llm_graph_input_attn_tempD0Ev
0000000000216bd0 W _ZN25llm_tokenizer_bpe_session14add_new_bigramEii
0000000000214200 W _ZN25llm_tokenizer_bpe_session6appendEiRNSt3__16vectorIiNS0_9allocatorIiEEEE
0000000000212fa0 W _ZN25llm_tokenizer_bpe_session8tokenizeERKNSt3__112basic_stringIcNS0_11char_traitsIcEENS0_9allocatorIcEEEERNS0_6vectorIiNS4_IiEEEE
00000000002145b0 W _ZN25llm_tokenizer_bpe_sessionD2Ev
0000000000215b30 W _ZN25llm_tokenizer_spm_session14try_add_bigramEii
0000000000212980 W _ZN25llm_tokenizer_spm_session8tokenizeERKNSt3__112basic_stringIcNS0_11char_traitsIcEENS0_9allocatorIcEEEERNS0_6vectorIiNS4_IiEEEE
0000000000215d70 W _ZN25llm_tokenizer_spm_session9resegmentER10llm_symbolRNSt3__16vectorIiNS2_9allocatorIiEEEE
0000000000212d60 W _ZN25llm_tokenizer_spm_sessionD2Ev
0000000000217f70 W _ZN25llm_tokenizer_ugm_session16normalize_prefixERKNSt3__112basic_stringIcNS0_11char_traitsIcEENS0_9allocatorIcEEEEm
0000000000214da0 W _ZN25llm_tokenizer_ugm_session8tokenizeERKNSt3__112basic_stringIcNS0_11char_traitsIcEENS0_9allocatorIcEEEERNS0_6vectorIiNS4_IiEEEE
0000000000217cf0 W _ZN25llm_tokenizer_ugm_session9normalizeERKNSt3__112basic_stringIcNS0_11char_traitsIcEENS0_9allocatorIcEEEEPS6_
0000000000217830 W _ZN25llm_tokenizer_wpm_session10preprocessERKNSt3__112basic_stringIcNS0_11char_traitsIcEENS0_9allocatorIcEEEE
0000000000214630 W _ZN25llm_tokenizer_wpm_session8tokenizeERKNSt3__112basic_stringIcNS0_11char_traitsIcEENS0_9allocatorIcEEEERNS0_6vectorIiNS4_IiEEEE
0000000000115840 W _ZN26llama_params_fit_exceptionD0Ev
000000000027c220 T _ZN26llm_build_wavtokenizer_decC1ERK11llama_modelRK16llm_graph_params
000000000027c220 T _ZN26llm_build_wavtokenizer_decC2ERK11llama_modelRK16llm_graph_params
000000000027c8d0 W _ZN26llm_build_wavtokenizer_decD0Ev
0000000000157ac0 T _ZN26llm_graph_input_attn_cross9set_inputEPK12llama_ubatch
0000000000160580 W _ZN26llm_graph_input_attn_crossD0Ev
0000000000157040 T _ZN26llm_graph_input_cross_embd9set_inputEPK12llama_ubatch
0000000000160520 W _ZN26llm_graph_input_cross_embdD0Ev
0000000000157d90 T _ZN26llm_graph_input_mem_hybrid9can_reuseERK16llm_graph_params
0000000000157c90 T _ZN26llm_graph_input_mem_hybrid9set_inputEPK12llama_ubatch
00000000001605e0 W _ZN26llm_graph_input_mem_hybridD0Ev
0000000000160590 W _ZN26llm_graph_input_mem_hybridD2Ev
0000000000155e10 T _ZN26llm_graph_input_pos_bucket9set_inputEPK12llama_ubatch
00000000001604c0 W _ZN26llm_graph_input_pos_bucketD0Ev
0000000000215520 W _ZN26llm_tokenizer_rwkv_session8tokenizeERKNSt3__112basic_stringIcNS0_11char_traitsIcEENS0_9allocatorIcEEEERNS0_6vectorIiNS4_IiEEEE
