00000000001b79b0 t _Z10k_get_rowsILi32ELi2EXadL_ZL17dequantize_tbq3_0PKvliR6float2EE13__nv_bfloat16EvS1_PKiPT2_lllmmmmmmmmm
00000000001b9170 t _Z10k_get_rowsILi32ELi2EXadL_ZL17dequantize_tbq3_0PKvliR6float2EE6__halfEvS1_PKiPT2_lllmmmmmmmmm
00000000001bb2b0 t _Z10k_get_rowsILi32ELi2EXadL_ZL17dequantize_tbq3_0PKvliR6float2EEfEvS1_PKiPT2_lllmmmmmmmmm
00000000001bd190 t _Z10k_get_rowsILi32ELi2EXadL_ZL17dequantize_tbq3_0PKvliR6float2EEiEvS1_PKiPT2_lllmmmmmmmmm
00000000001b7c10 t _Z10k_get_rowsILi32ELi2EXadL_ZL17dequantize_tbq4_0PKvliR6float2EE13__nv_bfloat16EvS1_PKiPT2_lllmmmmmmmmm
00000000001bb510 t _Z10k_get_rowsILi32ELi2EXadL_ZL17dequantize_tbq4_0PKvliR6float2EE6__halfEvS1_PKiPT2_lllmmmmmmmmm
00000000001badf0 t _Z10k_get_rowsILi32ELi2EXadL_ZL17dequantize_tbq4_0PKvliR6float2EEfEvS1_PKiPT2_lllmmmmmmmmm
00000000001bd3f0 t _Z10k_get_rowsILi32ELi2EXadL_ZL17dequantize_tbq4_0PKvliR6float2EEiEvS1_PKiPT2_lllmmmmmmmmm
000000000013e1e0 t _Z16dequantize_blockILi32ELi2EXadL_ZL17dequantize_tbq3_0PKvliR6float2EE13__nv_bfloat16EvS1_PT2_lll5uint3lll
000000000013f560 t _Z16dequantize_blockILi32ELi2EXadL_ZL17dequantize_tbq3_0PKvliR6float2EE6__halfEvS1_PT2_lll5uint3lll
000000000013e060 t _Z16dequantize_blockILi32ELi2EXadL_ZL17dequantize_tbq3_0PKvliR6float2EEfEvS1_PT2_lll5uint3lll
000000000013e360 t _Z16dequantize_blockILi32ELi2EXadL_ZL17dequantize_tbq4_0PKvliR6float2EE13__nv_bfloat16EvS1_PT2_lll5uint3lll
000000000013f6e0 t _Z16dequantize_blockILi32ELi2EXadL_ZL17dequantize_tbq4_0PKvliR6float2EE6__halfEvS1_PT2_lll5uint3lll
0000000000140a60 t _Z16dequantize_blockILi32ELi2EXadL_ZL17dequantize_tbq4_0PKvliR6float2EEfEvS1_PT2_lll5uint3lll
0000000000312640 t _Z16k_set_rows_quantIi12block_tbq3_0Li32EXadL_ZL25quantize_f32_tbq3_0_blockPKfPS0_EEEvS2_PKT_PT0_llllllllllllll5uint3S9_S9_S9_S9_
00000000003126d0 t _Z16k_set_rows_quantIi12block_tbq4_0Li32EXadL_ZL25quantize_f32_tbq4_0_blockPKfPS0_EEEvS2_PKT_PT0_llllllllllllll5uint3S9_S9_S9_S9_
0000000000312010 t _Z16k_set_rows_quantIl12block_tbq3_0Li32EXadL_ZL25quantize_f32_tbq3_0_blockPKfPS0_EEEvS2_PKT_PT0_llllllllllllll5uint3S9_S9_S9_S9_
00000000003120a0 t _Z16k_set_rows_quantIl12block_tbq4_0Li32EXadL_ZL25quantize_f32_tbq4_0_blockPKfPS0_EEEvS2_PKT_PT0_llllllllllllll5uint3S9_S9_S9_S9_
0000000000317fe0 t _Z19set_rows_cuda_quantIi12block_tbq3_0Li32EXadL_ZL25quantize_f32_tbq3_0_blockPKfPS0_EEEvS2_PKT_PT0_llllllllmmmmmmmmmP11CUstream_st
0000000000318a60 t _Z19set_rows_cuda_quantIi12block_tbq4_0Li32EXadL_ZL25quantize_f32_tbq4_0_blockPKfPS0_EEEvS2_PKT_PT0_llllllllmmmmmmmmmP11CUstream_st
0000000000315b20 t _Z19set_rows_cuda_quantIl12block_tbq3_0Li32EXadL_ZL25quantize_f32_tbq3_0_blockPKfPS0_EEEvS2_PKT_PT0_llllllllmmmmmmmmmP11CUstream_st
0000000000317aa0 t _Z19set_rows_cuda_quantIl12block_tbq4_0Li32EXadL_ZL25quantize_f32_tbq4_0_blockPKfPS0_EEEvS2_PKT_PT0_llllllllmmmmmmmmmP11CUstream_st
0000000000149300 t _Z21dequantize_block_cudaILi32ELi2EXadL_ZL17dequantize_tbq3_0PKvliR6float2EE13__nv_bfloat16EvS1_PT2_lllllllP11CUstream_st
0000000000148040 t _Z21dequantize_block_cudaILi32ELi2EXadL_ZL17dequantize_tbq3_0PKvliR6float2EE6__halfEvS1_PT2_lllllllP11CUstream_st
0000000000148cc0 t _Z21dequantize_block_cudaILi32ELi2EXadL_ZL17dequantize_tbq3_0PKvliR6float2EEfEvS1_PT2_lllllllP11CUstream_st
00000000001457a0 t _Z21dequantize_block_cudaILi32ELi2EXadL_ZL17dequantize_tbq4_0PKvliR6float2EE13__nv_bfloat16EvS1_PT2_lllllllP11CUstream_st
000000000014b560 t _Z21dequantize_block_cudaILi32ELi2EXadL_ZL17dequantize_tbq4_0PKvliR6float2EE6__halfEvS1_PT2_lllllllP11CUstream_st
0000000000146d80 t _Z21dequantize_block_cudaILi32ELi2EXadL_ZL17dequantize_tbq4_0PKvliR6float2EEfEvS1_PT2_lllllllP11CUstream_st
00000000001450e0 t _Z26dequantize_block_cont_cudaILi32ELi2EXadL_ZL17dequantize_tbq3_0PKvliR6float2EE6__halfEvS1_PT2_lP11CUstream_st
0000000000143ee0 t _Z26dequantize_block_cont_cudaILi32ELi2EXadL_ZL17dequantize_tbq3_0PKvliR6float2EEfEvS1_PT2_lP11CUstream_st
0000000000145560 t _Z26dequantize_block_cont_cudaILi32ELi2EXadL_ZL17dequantize_tbq4_0PKvliR6float2EE6__halfEvS1_PT2_lP11CUstream_st
0000000000143820 t _Z26dequantize_block_cont_cudaILi32ELi2EXadL_ZL17dequantize_tbq4_0PKvliR6float2EEfEvS1_PT2_lP11CUstream_st
00000000001581f0 t _Z9cpy_f32_qIXadL_ZL19cpy_blck_f32_tbq3_0PKcPcEELi32EEvS1_S2_lllllllllllllll
0000000000157cb0 t _Z9cpy_f32_qIXadL_ZL19cpy_blck_f32_tbq4_0PKcPcEELi32EEvS1_S2_lllllllllllllll
00000000001574d0 t _Z9cpy_q_f32IXadL_Z14cpy_blck_q_f32IXadL_ZL17dequantize_tbq3_0PKvliR6float2EELi32EEvPKcPcEELi32EEvS6_S7_lllllllllllllll
0000000000157230 t _Z9cpy_q_f32IXadL_Z14cpy_blck_q_f32IXadL_ZL17dequantize_tbq4_0PKvliR6float2EELi32EEvPKcPcEELi32EEvS6_S7_lllllllllllllll
0000000000c1ca00 r _ZL16k_tbq_signs_cuda
0000000000c29c00 r _ZL16k_tbq_signs_cuda
0000000000c4a860 r _ZL16k_tbq_signs_cuda
0000000000c511a0 r _ZL16k_tbq_signs_cuda
0000000000c57ae0 r _ZL16k_tbq_signs_cuda
0000000000c64fc0 r _ZL16k_tbq_signs_cuda
0000000000cef800 r _ZL16k_tbq_signs_cuda
0000000000d586e0 r _ZL16k_tbq_signs_cuda
0000000000d5f020 r _ZL16k_tbq_signs_cuda
0000000000d65960 r _ZL16k_tbq_signs_cuda
0000000000d6c2a0 r _ZL16k_tbq_signs_cuda
0000000000d72be0 r _ZL16k_tbq_signs_cuda
0000000000d79520 r _ZL16k_tbq_signs_cuda
0000000000d7fe60 r _ZL16k_tbq_signs_cuda
0000000000d867a0 r _ZL16k_tbq_signs_cuda
0000000000d8d0e0 r _ZL16k_tbq_signs_cuda
0000000000d93a20 r _ZL16k_tbq_signs_cuda
0000000000d9a360 r _ZL16k_tbq_signs_cuda
0000000000da0ca0 r _ZL16k_tbq_signs_cuda
0000000000da75e0 r _ZL16k_tbq_signs_cuda
0000000000dadf20 r _ZL16k_tbq_signs_cuda
0000000000db4860 r _ZL16k_tbq_signs_cuda
0000000000dbb1a0 r _ZL16k_tbq_signs_cuda
0000000000dc1ae0 r _ZL16k_tbq_signs_cuda
0000000000dc8420 r _ZL16k_tbq_signs_cuda
0000000000dced60 r _ZL16k_tbq_signs_cuda
0000000000dd56a0 r _ZL16k_tbq_signs_cuda
0000000000ddbfe0 r _ZL16k_tbq_signs_cuda
0000000000de2920 r _ZL16k_tbq_signs_cuda
0000000000de9260 r _ZL16k_tbq_signs_cuda
0000000000defba0 r _ZL16k_tbq_signs_cuda
0000000000df64e0 r _ZL16k_tbq_signs_cuda
0000000000dfce20 r _ZL16k_tbq_signs_cuda
0000000000e03760 r _ZL16k_tbq_signs_cuda
0000000000e0a0a0 r _ZL16k_tbq_signs_cuda
0000000000e109e0 r _ZL16k_tbq_signs_cuda
0000000000e17320 r _ZL16k_tbq_signs_cuda
0000000000f13380 r _ZL16k_tbq_signs_cuda
0000000000f19cc0 r _ZL16k_tbq_signs_cuda
0000000000f20600 r _ZL16k_tbq_signs_cuda
0000000000f26f40 r _ZL16k_tbq_signs_cuda
0000000000f2d880 r _ZL16k_tbq_signs_cuda
0000000000f341c0 r _ZL16k_tbq_signs_cuda
0000000000f3ab00 r _ZL16k_tbq_signs_cuda
0000000000f41440 r _ZL16k_tbq_signs_cuda
0000000000f47d80 r _ZL16k_tbq_signs_cuda
0000000000f4e6c0 r _ZL16k_tbq_signs_cuda
0000000000f55000 r _ZL16k_tbq_signs_cuda
0000000000f5b940 r _ZL16k_tbq_signs_cuda
0000000000f62280 r _ZL16k_tbq_signs_cuda
0000000000f68bc0 r _ZL16k_tbq_signs_cuda
0000000000f6f500 r _ZL16k_tbq_signs_cuda
0000000000f75e40 r _ZL16k_tbq_signs_cuda
0000000000f7c780 r _ZL16k_tbq_signs_cuda
0000000000f830c0 r _ZL16k_tbq_signs_cuda
0000000000f89a00 r _ZL16k_tbq_signs_cuda
0000000000f90340 r _ZL16k_tbq_signs_cuda
0000000000f96c80 r _ZL16k_tbq_signs_cuda
0000000000f9d5c0 r _ZL16k_tbq_signs_cuda
0000000000fa3f00 r _ZL16k_tbq_signs_cuda
0000000000faa840 r _ZL16k_tbq_signs_cuda
0000000000fb1180 r _ZL16k_tbq_signs_cuda
0000000000fb7ac0 r _ZL16k_tbq_signs_cuda
0000000000fbe400 r _ZL16k_tbq_signs_cuda
0000000000fc4d40 r _ZL16k_tbq_signs_cuda
0000000000fcb680 r _ZL16k_tbq_signs_cuda
0000000000fd1fc0 r _ZL16k_tbq_signs_cuda
0000000000fd8900 r _ZL16k_tbq_signs_cuda
0000000000fdf240 r _ZL16k_tbq_signs_cuda
0000000000fe5b80 r _ZL16k_tbq_signs_cuda
0000000000fec4c0 r _ZL16k_tbq_signs_cuda
0000000000ff2e00 r _ZL16k_tbq_signs_cuda
0000000000ff9740 r _ZL16k_tbq_signs_cuda
0000000001000080 r _ZL16k_tbq_signs_cuda
00000000010069c0 r _ZL16k_tbq_signs_cuda
000000000100d300 r _ZL16k_tbq_signs_cuda
0000000001013c40 r _ZL16k_tbq_signs_cuda
0000000000311400 t _ZL188__device_stub__Z16k_set_rows_quantIi12block_tbq3_0Li32EXadL_ZN42_INTERNAL_7d59f945_11_set_rows_cu_7ddb16fd25quantize_f32_tbq3_0_blockEPKfPS0_EEEvS3_PKT_PT0_llllllllllllll5uint3SA_SA_SA_SA_PKfPKiP12block_tbq3_0llllllllllllllRK5uint3S7_S7_S7_S7_
0000000000311650 t _ZL188__device_stub__Z16k_set_rows_quantIi12block_tbq4_0Li32EXadL_ZN42_INTERNAL_7d59f945_11_set_rows_cu_7ddb16fd25quantize_f32_tbq4_0_blockEPKfPS0_EEEvS3_PKT_PT0_llllllllllllll5uint3SA_SA_SA_SA_PKfPKiP12block_tbq4_0llllllllllllllRK5uint3S7_S7_S7_S7_
000000000030fa90 t _ZL188__device_stub__Z16k_set_rows_quantIl12block_tbq3_0Li32EXadL_ZN42_INTERNAL_7d59f945_11_set_rows_cu_7ddb16fd25quantize_f32_tbq3_0_blockEPKfPS0_EEEvS3_PKT_PT0_llllllllllllll5uint3SA_SA_SA_SA_PKfPKlP12block_tbq3_0llllllllllllllRK5uint3S7_S7_S7_S7_
000000000030fce0 t _ZL188__device_stub__Z16k_set_rows_quantIl12block_tbq4_0Li32EXadL_ZN42_INTERNAL_7d59f945_11_set_rows_cu_7ddb16fd25quantize_f32_tbq4_0_blockEPKfPS0_EEEvS3_PKT_PT0_llllllllllllll5uint3SA_SA_SA_SA_PKfPKlP12block_tbq4_0llllllllllllllRK5uint3S7_S7_S7_S7_
0000000000c1ca60 r _ZL20k_tbq3_codebook_cuda
0000000000c29c60 r _ZL20k_tbq3_codebook_cuda
0000000000c4a8c0 r _ZL20k_tbq3_codebook_cuda
0000000000c51200 r _ZL20k_tbq3_codebook_cuda
0000000000c57b40 r _ZL20k_tbq3_codebook_cuda
0000000000c65020 r _ZL20k_tbq3_codebook_cuda
0000000000cef860 r _ZL20k_tbq3_codebook_cuda
0000000000d58740 r _ZL20k_tbq3_codebook_cuda
0000000000d5f080 r _ZL20k_tbq3_codebook_cuda
0000000000d659c0 r _ZL20k_tbq3_codebook_cuda
0000000000d6c300 r _ZL20k_tbq3_codebook_cuda
0000000000d72c40 r _ZL20k_tbq3_codebook_cuda
0000000000d79580 r _ZL20k_tbq3_codebook_cuda
0000000000d7fec0 r _ZL20k_tbq3_codebook_cuda
0000000000d86800 r _ZL20k_tbq3_codebook_cuda
0000000000d8d140 r _ZL20k_tbq3_codebook_cuda
0000000000d93a80 r _ZL20k_tbq3_codebook_cuda
0000000000d9a3c0 r _ZL20k_tbq3_codebook_cuda
0000000000da0d00 r _ZL20k_tbq3_codebook_cuda
0000000000da7640 r _ZL20k_tbq3_codebook_cuda
0000000000dadf80 r _ZL20k_tbq3_codebook_cuda
0000000000db48c0 r _ZL20k_tbq3_codebook_cuda
0000000000dbb200 r _ZL20k_tbq3_codebook_cuda
0000000000dc1b40 r _ZL20k_tbq3_codebook_cuda
0000000000dc8480 r _ZL20k_tbq3_codebook_cuda
0000000000dcedc0 r _ZL20k_tbq3_codebook_cuda
0000000000dd5700 r _ZL20k_tbq3_codebook_cuda
0000000000ddc040 r _ZL20k_tbq3_codebook_cuda
0000000000de2980 r _ZL20k_tbq3_codebook_cuda
0000000000de92c0 r _ZL20k_tbq3_codebook_cuda
0000000000defc00 r _ZL20k_tbq3_codebook_cuda
0000000000df6540 r _ZL20k_tbq3_codebook_cuda
0000000000dfce80 r _ZL20k_tbq3_codebook_cuda
0000000000e037c0 r _ZL20k_tbq3_codebook_cuda
0000000000e0a100 r _ZL20k_tbq3_codebook_cuda
0000000000e10a40 r _ZL20k_tbq3_codebook_cuda
0000000000e17380 r _ZL20k_tbq3_codebook_cuda
0000000000f133e0 r _ZL20k_tbq3_codebook_cuda
0000000000f19d20 r _ZL20k_tbq3_codebook_cuda
0000000000f20660 r _ZL20k_tbq3_codebook_cuda
0000000000f26fa0 r _ZL20k_tbq3_codebook_cuda
0000000000f2d8e0 r _ZL20k_tbq3_codebook_cuda
0000000000f34220 r _ZL20k_tbq3_codebook_cuda
0000000000f3ab60 r _ZL20k_tbq3_codebook_cuda
0000000000f414a0 r _ZL20k_tbq3_codebook_cuda
0000000000f47de0 r _ZL20k_tbq3_codebook_cuda
0000000000f4e720 r _ZL20k_tbq3_codebook_cuda
0000000000f55060 r _ZL20k_tbq3_codebook_cuda
0000000000f5b9a0 r _ZL20k_tbq3_codebook_cuda
0000000000f622e0 r _ZL20k_tbq3_codebook_cuda
0000000000f68c20 r _ZL20k_tbq3_codebook_cuda
0000000000f6f560 r _ZL20k_tbq3_codebook_cuda
0000000000f75ea0 r _ZL20k_tbq3_codebook_cuda
0000000000f7c7e0 r _ZL20k_tbq3_codebook_cuda
0000000000f83120 r _ZL20k_tbq3_codebook_cuda
0000000000f89a60 r _ZL20k_tbq3_codebook_cuda
0000000000f903a0 r _ZL20k_tbq3_codebook_cuda
0000000000f96ce0 r _ZL20k_tbq3_codebook_cuda
0000000000f9d620 r _ZL20k_tbq3_codebook_cuda
0000000000fa3f60 r _ZL20k_tbq3_codebook_cuda
0000000000faa8a0 r _ZL20k_tbq3_codebook_cuda
0000000000fb11e0 r _ZL20k_tbq3_codebook_cuda
0000000000fb7b20 r _ZL20k_tbq3_codebook_cuda
0000000000fbe460 r _ZL20k_tbq3_codebook_cuda
0000000000fc4da0 r _ZL20k_tbq3_codebook_cuda
0000000000fcb6e0 r _ZL20k_tbq3_codebook_cuda
0000000000fd2020 r _ZL20k_tbq3_codebook_cuda
0000000000fd8960 r _ZL20k_tbq3_codebook_cuda
0000000000fdf2a0 r _ZL20k_tbq3_codebook_cuda
0000000000fe5be0 r _ZL20k_tbq3_codebook_cuda
0000000000fec520 r _ZL20k_tbq3_codebook_cuda
0000000000ff2e60 r _ZL20k_tbq3_codebook_cuda
0000000000ff97a0 r _ZL20k_tbq3_codebook_cuda
00000000010000e0 r _ZL20k_tbq3_codebook_cuda
0000000001006a20 r _ZL20k_tbq3_codebook_cuda
000000000100d360 r _ZL20k_tbq3_codebook_cuda
0000000001013ca0 r _ZL20k_tbq3_codebook_cuda
0000000000c1ca20 r _ZL20k_tbq4_codebook_cuda
0000000000c29c20 r _ZL20k_tbq4_codebook_cuda
0000000000c4a880 r _ZL20k_tbq4_codebook_cuda
0000000000c511c0 r _ZL20k_tbq4_codebook_cuda
0000000000c57b00 r _ZL20k_tbq4_codebook_cuda
0000000000c64fe0 r _ZL20k_tbq4_codebook_cuda
0000000000cef820 r _ZL20k_tbq4_codebook_cuda
0000000000d58700 r _ZL20k_tbq4_codebook_cuda
0000000000d5f040 r _ZL20k_tbq4_codebook_cuda
0000000000d65980 r _ZL20k_tbq4_codebook_cuda
0000000000d6c2c0 r _ZL20k_tbq4_codebook_cuda
0000000000d72c00 r _ZL20k_tbq4_codebook_cuda
0000000000d79540 r _ZL20k_tbq4_codebook_cuda
0000000000d7fe80 r _ZL20k_tbq4_codebook_cuda
0000000000d867c0 r _ZL20k_tbq4_codebook_cuda
0000000000d8d100 r _ZL20k_tbq4_codebook_cuda
0000000000d93a40 r _ZL20k_tbq4_codebook_cuda
0000000000d9a380 r _ZL20k_tbq4_codebook_cuda
0000000000da0cc0 r _ZL20k_tbq4_codebook_cuda
0000000000da7600 r _ZL20k_tbq4_codebook_cuda
0000000000dadf40 r _ZL20k_tbq4_codebook_cuda
0000000000db4880 r _ZL20k_tbq4_codebook_cuda
0000000000dbb1c0 r _ZL20k_tbq4_codebook_cuda
0000000000dc1b00 r _ZL20k_tbq4_codebook_cuda
0000000000dc8440 r _ZL20k_tbq4_codebook_cuda
0000000000dced80 r _ZL20k_tbq4_codebook_cuda
0000000000dd56c0 r _ZL20k_tbq4_codebook_cuda
0000000000ddc000 r _ZL20k_tbq4_codebook_cuda
0000000000de2940 r _ZL20k_tbq4_codebook_cuda
0000000000de9280 r _ZL20k_tbq4_codebook_cuda
0000000000defbc0 r _ZL20k_tbq4_codebook_cuda
0000000000df6500 r _ZL20k_tbq4_codebook_cuda
0000000000dfce40 r _ZL20k_tbq4_codebook_cuda
0000000000e03780 r _ZL20k_tbq4_codebook_cuda
0000000000e0a0c0 r _ZL20k_tbq4_codebook_cuda
0000000000e10a00 r _ZL20k_tbq4_codebook_cuda
0000000000e17340 r _ZL20k_tbq4_codebook_cuda
0000000000f133a0 r _ZL20k_tbq4_codebook_cuda
0000000000f19ce0 r _ZL20k_tbq4_codebook_cuda
0000000000f20620 r _ZL20k_tbq4_codebook_cuda
0000000000f26f60 r _ZL20k_tbq4_codebook_cuda
0000000000f2d8a0 r _ZL20k_tbq4_codebook_cuda
0000000000f341e0 r _ZL20k_tbq4_codebook_cuda
0000000000f3ab20 r _ZL20k_tbq4_codebook_cuda
0000000000f41460 r _ZL20k_tbq4_codebook_cuda
0000000000f47da0 r _ZL20k_tbq4_codebook_cuda
0000000000f4e6e0 r _ZL20k_tbq4_codebook_cuda
0000000000f55020 r _ZL20k_tbq4_codebook_cuda
0000000000f5b960 r _ZL20k_tbq4_codebook_cuda
0000000000f622a0 r _ZL20k_tbq4_codebook_cuda
0000000000f68be0 r _ZL20k_tbq4_codebook_cuda
0000000000f6f520 r _ZL20k_tbq4_codebook_cuda
0000000000f75e60 r _ZL20k_tbq4_codebook_cuda
0000000000f7c7a0 r _ZL20k_tbq4_codebook_cuda
0000000000f830e0 r _ZL20k_tbq4_codebook_cuda
0000000000f89a20 r _ZL20k_tbq4_codebook_cuda
0000000000f90360 r _ZL20k_tbq4_codebook_cuda
0000000000f96ca0 r _ZL20k_tbq4_codebook_cuda
0000000000f9d5e0 r _ZL20k_tbq4_codebook_cuda
0000000000fa3f20 r _ZL20k_tbq4_codebook_cuda
0000000000faa860 r _ZL20k_tbq4_codebook_cuda
0000000000fb11a0 r _ZL20k_tbq4_codebook_cuda
0000000000fb7ae0 r _ZL20k_tbq4_codebook_cuda
0000000000fbe420 r _ZL20k_tbq4_codebook_cuda
0000000000fc4d60 r _ZL20k_tbq4_codebook_cuda
0000000000fcb6a0 r _ZL20k_tbq4_codebook_cuda
0000000000fd1fe0 r _ZL20k_tbq4_codebook_cuda
0000000000fd8920 r _ZL20k_tbq4_codebook_cuda
0000000000fdf260 r _ZL20k_tbq4_codebook_cuda
0000000000fe5ba0 r _ZL20k_tbq4_codebook_cuda
0000000000fec4e0 r _ZL20k_tbq4_codebook_cuda
0000000000ff2e20 r _ZL20k_tbq4_codebook_cuda
0000000000ff9760 r _ZL20k_tbq4_codebook_cuda
00000000010000a0 r _ZL20k_tbq4_codebook_cuda
00000000010069e0 r _ZL20k_tbq4_codebook_cuda
000000000100d320 r _ZL20k_tbq4_codebook_cuda
0000000001013c60 r _ZL20k_tbq4_codebook_cuda
0000000000153020 t _ZL24ggml_cpy_f32_tbq3_0_cudaPKcPclllllllllllllllP11CUstream_st
00000000001528f0 t _ZL24ggml_cpy_f32_tbq4_0_cudaPKcPclllllllllllllllP11CUstream_st
0000000000152cb0 t _ZL24ggml_cpy_tbq3_0_f32_cudaPKcPclllllllllllllllP11CUstream_st
0000000000152580 t _ZL24ggml_cpy_tbq4_0_f32_cudaPKcPclllllllllllllllP11CUstream_st
