# AOSP / on-device inference native library symbol baseline
# Generated: 2026-05-09
# Pre-Wave-1 (no QJL / PolarQuant kernel commits expected to be present yet).
# Diff against this file post-Wave-1 to confirm new exports landed.
#
# Search keys for Wave-1 verification:
#   QJL (W1-A):       quantize_qjl1_256, dequantize_row_qjl1_256, GGML_OP_ATTN_SCORE_QJL,
#                     ggml_vec_dot_qjl, eliza_llama_*qjl*, qjl_pack8_signs_neon,
#                     qjl_score_*, GGML_TYPE_QJL1_256
#   PolarQuant (W1-B):quantize_q4_polar, dequantize_row_q4_polar, GGML_TYPE_Q4_POLAR,
#                     ggml_vec_dot_q4_polar, polar_*hadamard*, polar_*centroid*
#   TBQ (already in): quantize_tbq3_0, quantize_tbq4_0, dequantize_row_tbq3_0,
#                     dequantize_row_tbq4_0
#   Eliza shim (existing): eliza_llama_context_params_set_type_k,
#                          eliza_llama_context_params_set_type_v
#
######################################################################
## android-arm64-cpu / libllama.so
######################################################################
000000000014efe4 T llama_adapter_get_alora_invocation_tokens
000000000014efd0 T llama_adapter_get_alora_n_invocation_tokens
000000000014ef1c T llama_adapter_lora_free
000000000014c6a4 T llama_adapter_lora_init
000000000014ee4c T llama_adapter_meta_count
000000000014ee54 T llama_adapter_meta_key_by_index
000000000014ec14 T llama_adapter_meta_val_str
000000000014eeb8 T llama_adapter_meta_val_str_by_index
000000000026d000 T llama_add_bos_token
000000000026d00c T llama_add_eos_token
0000000000172930 T llama_allocate_tree_buffers
0000000000171db4 T llama_attach_threadpool
00000000001489e4 T llama_backend_free
0000000000148918 T llama_backend_init
0000000000157a6c T llama_batch_free
0000000000157980 T llama_batch_get_one
000000000015799c T llama_batch_init
000000000014ab84 T llama_chat_apply_template
000000000015f9d8 T llama_chat_builtin_templates
0000000000172848 T llama_clear_tree_mask
0000000000172924 T llama_clear_tree_parent_ids
00000000001718a4 T llama_context_default_params
0000000000172e74 T llama_copy_state_data
00000000001733e8 T llama_decode
0000000000171e08 T llama_detach_threadpool
000000000026d06c T llama_detokenize
0000000000172410 T llama_dflash_allocate_slots
0000000000172730 T llama_dflash_cross_ring_gpu_free
000000000017272c T llama_dflash_cross_ring_gpu_init
0000000000172780 T llama_dflash_cross_ring_gpu_set_cross
0000000000172768 T llama_dflash_cross_ring_gpu_write
000000000017250c T llama_dflash_prepare_branch
0000000000172508 T llama_dflash_rollback
0000000000172418 T llama_dflash_set_active_slot
00000000001733a4 T llama_encode
0000000000148820 T llama_flash_attn_type_name
0000000000171d4c T llama_free
00000000002402fc T llama_free_model
0000000000172080 T llama_get_embeddings
00000000001720ac T llama_get_embeddings_ith
00000000001720d8 T llama_get_embeddings_seq
0000000000172150 T llama_get_layer_hidden
0000000000172288 T llama_get_layer_hidden_n_embd
0000000000172200 T llama_get_layer_hidden_n_tokens
0000000000171f94 T llama_get_logits
0000000000172008 T llama_get_logits_argmax
0000000000172044 T llama_get_logits_argmax_k
000000000017203c T llama_get_logits_argmax_n
000000000017204c T llama_get_logits_argmax_probs
0000000000171fc0 T llama_get_logits_ith
0000000000172408 T llama_get_memory
0000000000171da4 T llama_get_model
0000000000172310 T llama_get_n_layer_hiddens
00000000001729f0 T llama_get_sampled_candidates_count_ith
00000000001729c4 T llama_get_sampled_candidates_ith
0000000000172a20 T llama_get_sampled_logits_count_ith
0000000000172998 T llama_get_sampled_logits_ith
0000000000172a50 T llama_get_sampled_probs_count_ith
000000000017296c T llama_get_sampled_probs_ith
0000000000172940 T llama_get_sampled_token_ith
0000000000172e6c T llama_get_state_size
00000000001718d8 T llama_init_from_model
000000000014a20c T llama_load_model_from_file
0000000000172f4c T llama_load_session_file
000000000019f994 T llama_log_get
000000000019f998 T llama_log_set
0000000000148868 T llama_max_devices
0000000000178138 T llama_max_parallel_sequences
0000000000148870 T llama_max_tensor_buft_overrides
0000000000172d08 T llama_memory_can_shift
0000000000172c58 T llama_memory_clear
0000000000172d1c T llama_memory_recurrent_expand
0000000000172dc4 T llama_memory_recurrent_shrink
0000000000172cb0 T llama_memory_seq_add
0000000000172c88 T llama_memory_seq_cp
0000000000172cc4 T llama_memory_seq_div
0000000000172c9c T llama_memory_seq_keep
0000000000172cf0 T llama_memory_seq_pos_max
0000000000172cd8 T llama_memory_seq_pos_min
0000000000172c70 T llama_memory_seq_rm
0000000000240874 T llama_model_chat_template
00000000002403ac T llama_model_cls_label
0000000000240ab4 T llama_model_decoder_start_token
00000000002402c4 T llama_model_default_params
0000000000240768 T llama_model_desc
00000000002409d4 T llama_model_dflash_block_size
00000000002409dc T llama_model_dflash_mask_token_id
00000000002409ec T llama_model_dflash_n_target_features
00000000002409e4 T llama_model_dflash_n_target_layers
00000000002409f4 T llama_model_dflash_target_layer_ids
000000000024032c T llama_model_free
00000000002402f0 T llama_model_get_vocab
0000000000240aa4 T llama_model_has_decoder
0000000000240a90 T llama_model_has_encoder
00000000001489ec T llama_model_init_from_user
0000000000240ad0 T llama_model_is_diffusion
0000000000240ac8 T llama_model_is_hybrid
0000000000240ac0 T llama_model_is_recurrent
000000000014a26c T llama_model_load_from_file
000000000014a8ac T llama_model_load_from_file_ptr
000000000014a4f0 T llama_model_load_from_splits
0000000000240668 T llama_model_meta_count
0000000000240698 T llama_model_meta_key_by_index
0000000000240674 T llama_model_meta_key_str
0000000000240424 T llama_model_meta_val_str
0000000000240700 T llama_model_meta_val_str_by_index
00000000002403a4 T llama_model_n_cls_out
000000000024035c T llama_model_n_ctx_train
0000000000240364 T llama_model_n_embd
000000000024036c T llama_model_n_embd_inp
0000000000240374 T llama_model_n_embd_out
0000000000240384 T llama_model_n_head
0000000000240390 T llama_model_n_head_kv
000000000024037c T llama_model_n_layer
00000000002409b4 T llama_model_n_params
000000000024039c T llama_model_n_swa
000000000024405c T llama_model_quantize
000000000024402c T llama_model_quantize_default_params
000000000024041c T llama_model_rope_freq_scale_train
00000000001e5494 T llama_model_rope_type
000000000014aa18 T llama_model_save_to_file
00000000002409c0 T llama_model_share_tensors
0000000000240868 T llama_model_size
0000000000171d8c T llama_n_batch
0000000000171d7c T llama_n_ctx
0000000000171d84 T llama_n_ctx_seq
00000000002403f8 T llama_n_ctx_train
0000000000240400 T llama_n_embd
0000000000171cdc T llama_new_context_with_model
0000000000240410 T llama_n_head
0000000000240408 T llama_n_layer
0000000000171d9c T llama_n_seq_max
0000000000171e98 T llama_n_threads
0000000000171ea0 T llama_n_threads_batch
0000000000171d94 T llama_n_ubatch
0000000000148970 T llama_numa_init
000000000026cb40 T llama_n_vocab
0000000000173698 T llama_opt_epoch
0000000000173640 T llama_opt_init
0000000000173638 T llama_opt_param_filter_all
0000000000173430 T llama_perf_context
0000000000173490 T llama_perf_context_print
0000000000173600 T llama_perf_context_reset
000000000025113c T llama_perf_sampler
00000000002511a4 T llama_perf_sampler_print
000000000025121c T llama_perf_sampler_reset
0000000000171dac T llama_pooling_type
000000000014b1fc T llama_print_system_info
000000000024e1a4 T llama_sampler_accept
000000000024e1bc T llama_sampler_apply
000000000024e908 T llama_sampler_chain_add
0000000000148860 T llama_sampler_chain_default_params
000000000024ea04 T llama_sampler_chain_get
000000000024e2b0 T llama_sampler_chain_init
000000000024eadc T llama_sampler_chain_n
000000000024ea54 T llama_sampler_chain_remove
000000000024e214 T llama_sampler_clone
000000000024e274 T llama_sampler_free
0000000000251064 T llama_sampler_get_seed
000000000024e15c T llama_sampler_init
0000000000250d20 T llama_sampler_init_adaptive_p
000000000024ec8c T llama_sampler_init_dist
000000000024fd78 T llama_sampler_init_dry
000000000024f464 T llama_sampler_init_grammar
000000000024fb70 T llama_sampler_init_grammar_lazy
000000000024fba4 T llama_sampler_init_grammar_lazy_patterns
000000000024eaf0 T llama_sampler_init_greedy
0000000000250f20 T llama_sampler_init_infill
0000000000250e24 T llama_sampler_init_logit_bias
000000000024ef9c T llama_sampler_init_min_p
000000000024f300 T llama_sampler_init_mirostat
000000000024f3c0 T llama_sampler_init_mirostat_v2
000000000024fbe0 T llama_sampler_init_penalties
000000000024f0cc T llama_sampler_init_temp
000000000024f168 T llama_sampler_init_temp_ext
000000000024ee50 T llama_sampler_init_top_k
000000000024fd04 T llama_sampler_init_top_n_sigma
000000000024eef4 T llama_sampler_init_top_p
000000000024f044 T llama_sampler_init_typical
000000000024f220 T llama_sampler_init_xtc
000000000024e188 T llama_sampler_name
000000000024e1fc T llama_sampler_reset
000000000024e308 T llama_sampler_sample
0000000000173018 T llama_save_session_file
00000000001627e0 T llama_set_abort_callback
0000000000172bc0 T llama_set_adapter_cvec
0000000000172b74 T llama_set_adapters_lora
0000000000171ee8 T llama_set_causal_attn
00000000001725dc T llama_set_cross_data
00000000001725e0 T llama_set_cross_data_seq
0000000000172384 T llama_set_dflash_capture
00000000001723a8 T llama_set_dflash_n_slots
0000000000172388 T llama_set_dflash_sample_temp
0000000000172390 T llama_set_dflash_topk
0000000000171ea8 T llama_set_embeddings
00000000001723ec T llama_set_force_split_seq
0000000000171e48 T llama_set_n_threads
000000000017293c T llama_set_sampler
0000000000172ee0 T llama_set_state_data
00000000001723e8 T llama_set_tape_recording
0000000000172828 T llama_set_tree_mask
000000000017285c T llama_set_tree_parent_ids
0000000000171f44 T llama_set_warmup
000000000014ae28 T llama_split_path
000000000014af18 T llama_split_prefix
0000000000172ea4 T llama_state_get_data
0000000000172e70 T llama_state_get_size
0000000000172f50 T llama_state_load_file
000000000017301c T llama_state_save_file
00000000001730dc T llama_state_seq_get_data
0000000000173124 T llama_state_seq_get_data_ext
00000000001730d0 T llama_state_seq_get_size
00000000001730d8 T llama_state_seq_get_size_ext
00000000001732d8 T llama_state_seq_load_file
0000000000173214 T llama_state_seq_save_file
0000000000173178 T llama_state_seq_set_data
00000000001731c0 T llama_state_seq_set_data_ext
0000000000172f10 T llama_state_set_data
0000000000148898 T llama_supports_gpu_offload
0000000000148888 T llama_supports_mlock
0000000000148878 T llama_supports_mmap
00000000001488f4 T llama_supports_rpc
0000000000171f90 T llama_synchronize
0000000000172490 T llama_tape_replay
0000000000172494 T llama_tape_replay_sync
00000000001489e8 T llama_time_us
000000000026cfac T llama_token_bos
000000000026cfd0 T llama_token_cls
000000000026cfb8 T llama_token_eos
000000000026cfc4 T llama_token_eot
000000000026d030 T llama_token_fim_mid
000000000026d03c T llama_token_fim_pad
000000000026d018 T llama_token_fim_pre
000000000026d048 T llama_token_fim_rep
000000000026d054 T llama_token_fim_sep
000000000026d024 T llama_token_fim_suf
000000000026ceb0 T llama_token_get_attr
000000000026ce54 T llama_token_get_score
000000000026cdec T llama_token_get_text
000000000026cf60 T llama_token_is_control
000000000026cf0c T llama_token_is_eog
000000000026d060 T llama_tokenize
000000000026cfe8 T llama_token_nl
000000000026cff4 T llama_token_pad
000000000026cfdc T llama_token_sep
000000000026d064 T llama_token_to_piece
0000000000172934 T llama_tree_rollback
000000000026cd20 T llama_vocab_bos
000000000026cd44 T llama_vocab_cls
000000000026cd2c T llama_vocab_eos
000000000026cd38 T llama_vocab_eot
000000000026cdb0 T llama_vocab_fim_mid
000000000026cdbc T llama_vocab_fim_pad
000000000026cd98 T llama_vocab_fim_pre
000000000026cdc8 T llama_vocab_fim_rep
000000000026cdd4 T llama_vocab_fim_sep
000000000026cda4 T llama_vocab_fim_suf
000000000026cd74 T llama_vocab_get_add_bos
000000000026cd80 T llama_vocab_get_add_eos
000000000026cd8c T llama_vocab_get_add_sep
000000000026cc24 T llama_vocab_get_attr
000000000026cbc8 T llama_vocab_get_score
000000000026cb60 T llama_vocab_get_text
000000000026ccd4 T llama_vocab_is_control
000000000026cc80 T llama_vocab_is_eog
000000000026cde0 T llama_vocab_mask
000000000026cd5c T llama_vocab_nl
000000000026cb2c T llama_vocab_n_tokens
000000000026cd68 T llama_vocab_pad
000000000026cd50 T llama_vocab_sep
000000000026cb54 T llama_vocab_type
000000000010b52e V __llvm_fs_discriminator__
00000000003240a8 D unicode_map_lowercase
00000000003240b8 D unicode_map_uppercase
0000000000324098 D unicode_ranges_flags
00000000003240c8 D unicode_ranges_nfd
0000000000332ed8 B unicode_set_whitespace
000000000019fb58 T _Z11replace_allRNSt6__ndk112basic_stringIcNS_11char_traitsIcEENS_9allocatorIcEEEERKS5_S8_
0000000000152090 T _Z12llm_arch_allv
0000000000152264 T _Z13llm_arch_name8llm_arch
00000000001de184 T _Z13llm_type_name8llm_type
00000000001a0364 T _Z14gguf_kv_to_strPK12gguf_contexti
00000000001c2770 T _Z14llama_path_maxv
000000000027b3f4 T _Z15unicode_tolowerj
00000000002481b8 T _Z16llama_quant_freeP19quantize_state_impl
0000000000247fdc T _Z16llama_quant_initPK11llama_modelPK27llama_model_quantize_params
0000000000279954 T _Z16unicode_len_utf8c
000000000019fa10 T _Z18llama_log_internal14ggml_log_levelPKcz
0000000000152448 T _Z18llm_arch_is_hybridRK8llm_arch
000000000027b458 T _Z18unicode_cpt_is_hanj
0000000000172a80 T _Z19llama_graph_reserveP13llama_contextjjj
00000000001523d0 T _Z19llm_tensor_info_for10llm_tensor
0000000000279c90 T _Z19unicode_cpt_to_utf8j
000000000027b4b0 T _Z19unicode_regex_splitRKNSt6__ndk112basic_stringIcNS_11char_traitsIcEENS_9allocatorIcEEEERKNS_6vectorIS5_NS3_IS5_EEEEb
000000000017d2cc T _Z20llama_grammar_acceptP13llama_grammarj
0000000000240ae4 T _Z20llama_model_n_expertPK11llama_model
00000000001522d8 T _Z20llm_arch_from_stringRKNSt6__ndk112basic_stringIcNS_11char_traitsIcEENS_9allocatorIcEEEE
000000000027a65c T _Z20unicode_byte_to_utf8h
000000000027ac68 T _Z20unicode_utf8_to_byteRKNSt6__ndk112basic_stringIcNS_11char_traitsIcEENS_9allocatorIcEEEE
0000000000240aec T _Z21llama_model_n_devicesPK11llama_model
00000000001524a8 T _Z21llm_arch_is_diffusionRK8llm_arch
0000000000152424 T _Z21llm_arch_is_recurrentRK8llm_arch
0000000000279968 T _Z21unicode_cpt_from_utf8RKNSt6__ndk112basic_stringIcNS_11char_traitsIcEENS_9allocatorIcEEEERm
0000000000240b00 T _Z22llama_model_get_devicePK11llama_modeli
0000000000279f74 T _Z22unicode_cpts_from_utf8RKNSt6__ndk112basic_stringIcNS_11char_traitsIcEENS_9allocatorIcEEEE
00000000001c317c T _Z23llama_file_version_name10llama_fver
0000000000180cd0 T _Z23llama_grammar_free_implP13llama_grammar
000000000017d2bc T _Z23llama_grammar_get_rulesPK13llama_grammar
000000000017fb9c T _Z23llama_grammar_init_implPK11llama_vocabPKcS3_bPS3_mPKim
000000000017f234 T _Z23llama_grammar_init_implPK11llama_vocabPPK21llama_grammar_elementmm
000000000015a138 T _Z23llm_chat_apply_template17llm_chat_templateRKNSt6__ndk16vectorIPK18llama_chat_messageNS0_9allocatorIS4_EEEERNS0_12basic_stringIcNS0_11char_traitsIcEENS5_IcEEEEb
0000000000183118 T _Z24llama_grammar_accept_strR13llama_grammarRKNSt6__ndk112basic_stringIcNS1_11char_traitsIcEENS1_9allocatorIcEEEE
000000000018141c T _Z24llama_grammar_apply_implRK13llama_grammarP22llama_token_data_array
0000000000180e5c T _Z24llama_grammar_clone_implRK13llama_grammar
000000000017d2c4 T _Z24llama_grammar_get_stacksP13llama_grammar
00000000001595f0 T _Z24llm_chat_detect_templateRKNSt6__ndk112basic_stringIcNS_11char_traitsIcEENS_9allocatorIcEEEE
00000000001a01ec T _Z25llama_format_tensor_shapePK11ggml_tensor
000000000019ffbc T _Z25llama_format_tensor_shapeRKNSt6__ndk16vectorIlNS_9allocatorIlEEEE
0000000000182080 T _Z25llama_grammar_accept_implR13llama_grammari
00000000002497d4 T _Z25llama_quant_compute_typesP19quantize_state_impl11llama_ftypePP11ggml_tensorP9ggml_typem
000000000017369c T _Z26llama_get_memory_breakdownPK13llama_context
00000000001826c8 T _Z26llama_grammar_accept_tokenR13llama_grammariRKNSt6__ndk112basic_stringIcNS1_11char_traitsIcEENS1_9allocatorIcEEEE
000000000019f9dc T _Z26llama_log_callback_default14ggml_log_levelPKcPv
00000000001594e4 T _Z26llm_chat_template_from_strRKNSt6__ndk112basic_stringIcNS_11char_traitsIcEENS_9allocatorIcEEEE
000000000027a2d8 T _Z26unicode_cpt_flags_from_cptj
0000000000279de4 T _Z26unicode_cpts_normalize_nfdRKNSt6__ndk16vectorIjNS_9allocatorIjEEEE
00000000001b833c T _Z27llama_memory_status_combine19llama_memory_statusS_
00000000001b8384 T _Z27llama_memory_status_is_fail19llama_memory_status
00000000001524c8 T _Z27llm_arch_supports_sm_tensorRK8llm_arch
000000000027a584 T _Z27unicode_cpt_flags_from_utf8RKNSt6__ndk112basic_stringIcNS_11char_traitsIcEENS_9allocatorIcEEEE
000000000024400c T _Z28llama_ftype_get_default_type11llama_ftype
00000000001de2d4 T _Z28llama_rope_scaling_type_name23llama_rope_scaling_type
0000000000240ad8 T _Z29llama_internal_get_tensor_mapPK11llama_model
0000000000191ac0 T _Z30llama_relative_position_bucketiimb
00000000002509e8 T _Z30llama_sampler_init_dry_testingiffiiRKNSt6__ndk16vectorINS0_IiNS_9allocatorIiEEEENS1_IS3_EEEE
00000000001d5dd4 T _Z31llama_model_saver_supports_arch8llm_arch
000000000024830c T _Z31llama_quant_model_from_metadataPK22llama_quant_model_desc
00000000001dab80 T _Z33llama_meta_device_get_split_statePK11ggml_tensorPv
0000000000248540 T _Z38llama_quant_tensor_allows_quantizationPK19quantize_state_implPK11ggml_tensor
000000000017d870 T _Z41llama_grammar_reject_candidates_for_stackRKNSt6__ndk16vectorINS0_I21llama_grammar_elementNS_9allocatorIS1_EEEENS2_IS4_EEEERKNS0_IPKS1_NS2_ISA_EEEERKNS0_I23llama_grammar_candidateNS2_ISF_EEEE
000000000019fdb4 T _Z6formatPKcz
00000000001c196c T _ZN10llama_file15read_raw_unsafeEPvm
00000000001c1974 W _ZN10llama_file4impl15read_raw_unsafeEPvm
00000000001c2778 W _ZN10llama_file4impl18read_aligned_chunkEPvm
00000000001c2c04 W _ZN10llama_file4impl7init_fdEv
00000000001c291c W _ZN10llama_file4impl7init_fpEPKc
00000000001c2a98 W _ZN10llama_file4implC2EPKcS2_b
00000000001c194c T _ZN10llama_file8read_rawEPvm
00000000001c1d40 T _ZN10llama_file8read_u32Ev
00000000001c14a8 T _ZN10llama_fileC1EP7__sFILE
00000000001c1438 T _ZN10llama_fileC1EPKcS1_b
00000000001c14a8 T _ZN10llama_fileC2EP7__sFILE
00000000001c1438 T _ZN10llama_fileC2EPKcS1_b
00000000001c1574 T _ZN10llama_fileD1Ev
00000000001c1574 T _ZN10llama_fileD2Ev
00000000001c2014 T _ZN10llama_mmap14unmap_fragmentEmm
00000000001c201c W _ZN10llama_mmap4impl14unmap_fragmentEmm
00000000001c2d84 W _ZN10llama_mmap4implC2EP10llama_filemb
00000000001c30d0 W _ZN10llama_mmap4implD2Ev
00000000000f9544 R _ZN10llama_mmap9SUPPORTEDE
00000000001c1f4c T _ZN10llama_mmapC1EP10llama_filemb
00000000001c1f4c T _ZN10llama_mmapC2EP10llama_filemb
00000000001c1fbc T _ZN10llama_mmapD1Ev
00000000001c1fbc T _ZN10llama_mmapD2Ev
000000000027460c W _ZN10naive_trie6insertEPKcmi
0000000000163f0c W _ZN11llama_crossD2Ev
00000000001c2620 W _ZN11llama_mlock4impl7grow_toEm
00000000001c25d4 T _ZN11llama_mlock4initEPv
00000000001c2618 T _ZN11llama_mlock7grow_toEm
00000000000f9545 R _ZN11llama_mlock9SUPPORTEDE
00000000001c2588 T _ZN11llama_mlockC1Ev
00000000001c2588 T _ZN11llama_mlockC2Ev
00000000001c25b8 T _ZN11llama_mlockD1Ev
00000000001c25b8 T _ZN11llama_mlockD2Ev
00000000001de9b8 T _ZN11llama_model10load_statsER18llama_model_loader
00000000001e5550 T _ZN11llama_model10load_vocabER18llama_model_loader
00000000001dec94 T _ZN11llama_model12load_hparamsER18llama_model_loader
00000000001e55c8 T _ZN11llama_model12load_tensorsER18llama_model_loader
0000000000241ca0 W _ZN11llama_model4implD2Ev
00000000001de9c8 T _ZN11llama_model9load_archER18llama_model_loader
00000000001de3bc T _ZN11llama_modelC1ERK18llama_model_params
00000000001de3bc T _ZN11llama_modelC2ERK18llama_model_params
00000000001de7ec T _ZN11llama_modelD1Ev
00000000001de7ec T _ZN11llama_modelD2Ev
0000000000264168 T _ZN11llama_vocab4impl14init_tokenizerE16llama_vocab_type
000000000025e728 T _ZN11llama_vocab4impl4loadER18llama_model_loaderRK6LLM_KV
0000000000278bc4 W _ZN11llama_vocab4implD2Ev
000000000026b9c0 T _ZN11llama_vocab4loadER18llama_model_loaderRK6LLM_KV
000000000026b8c4 T _ZN11llama_vocabC1Ev
000000000026b8c4 T _ZN11llama_vocabC2Ev
000000000026b980 T _ZN11llama_vocabD1Ev
000000000026b980 T _ZN11llama_vocabD2Ev
0000000000151f5c T _ZN11LLM_TN_IMPLC1E8llm_arch10llm_tensorPKcii
0000000000151f5c T _ZN11LLM_TN_IMPLC2E8llm_arch10llm_tensorPKcii
0000000000158f0c W _ZN12llama_ubatch6data_tD2Ev
0000000000155ba0 W _ZN12llama_ubatchD2Ev
00000000002cccc0 T _ZN12llm_build_t5ILb0EEC1ERK11llama_modelRK16llm_graph_params
00000000002cccc0 T _ZN12llm_build_t5ILb0EEC2ERK11llama_modelRK16llm_graph_params
00000000002cd84c W _ZN12llm_build_t5ILb0EED0Ev
00000000002cd354 T _ZN12llm_build_t5ILb1EEC1ERK11llama_modelRK16llm_graph_params
00000000002cd354 T _ZN12llm_build_t5ILb1EEC2ERK11llama_modelRK16llm_graph_params
00000000002cd88c W _ZN12llm_build_t5ILb1EED0Ev
0000000000164d7c T _ZN13llama_context10get_logitsEv
00000000001702b8 T _ZN13llama_context10perf_resetEv
000000000016b6b8 T _ZN13llama_context10set_warmupEb
0000000000162460 T _ZN13llama_context11set_samplerEiP13llama_sampler
0000000000164594 T _ZN13llama_context11synchronizeEv
00000000001683ec T _ZN13llama_context11tape_replayEii
000000000016bf58 T _ZN13llama_context13graph_computeEP11ggml_cgraphb
0000000000164740 T _ZN13llama_context13graph_reserveEjjjPK22llama_memory_context_ibPm
0000000000164b54 T _ZN13llama_context13memory_updateEb
0000000000163e88 W _ZN13llama_context13sampling_infoD2Ev
0000000000162c20 T _ZN13llama_context13sched_reserveEv
000000000016b51c T _ZN13llama_context13set_n_threadsEii
000000000016a238 T _ZN13llama_context13set_tree_maskEPKhi
000000000016a6b4 T _ZN13llama_context13tree_rollbackEiPKi
0000000000165b8c T _ZN13llama_context14get_embeddingsEv
0000000000165a0c T _ZN13llama_context14get_logits_ithEi
0000000000170e88 T _ZN13llama_context14opt_epoch_iterEP16ggml_opt_datasetP15ggml_opt_resultRKNSt6__ndk16vectorIiNS4_9allocatorIiEEEESA_R11llama_batchPFvbP16ggml_opt_contextS1_S3_lllEblll
0000000000164da0 T _ZN13llama_context14output_reorderEv
0000000000162890 T _ZN13llama_context14output_reserveEi
000000000016ba24 T _ZN13llama_context14process_ubatchERK12llama_ubatch14llm_graph_typeP22llama_memory_context_iR11ggml_status
0000000000169d54 T _ZN13llama_context14set_cross_dataEPKfll
000000000016b61c T _ZN13llama_context14set_embeddingsEb
000000000016f1d0 T _ZN13llama_context14state_get_dataEPhm
000000000016ef38 T _ZN13llama_context14state_get_sizeEv
000000000016f2a8 T _ZN13llama_context14state_set_dataEPKhm
000000000016a258 T _ZN13llama_context15clear_tree_maskEv
0000000000169af0 T _ZN13llama_context15dflash_rollbackEiiii
000000000016b65c T _ZN13llama_context15set_causal_attnEb
0000000000165f34 T _ZN13llama_context15set_dflash_topkEi
000000000016fa24 T _ZN13llama_context15state_load_fileEPKcPimPm
000000000016f37c T _ZN13llama_context15state_read_dataER15llama_io_read_i
000000000016fc60 T _ZN13llama_context15state_save_fileEPKcPKim
0000000000169084 T _ZN13llama_context15tape_replay_cpuEP22llama_memory_recurrentii
0000000000165d20 T _ZN13llama_context16get_layer_hiddenEi
000000000016b990 T _ZN13llama_context16set_adapter_cvecEPKfmiii
000000000016f008 T _ZN13llama_context16state_write_dataER16llama_io_write_i
0000000000169698 T _ZN13llama_context16tape_replay_convEP22llama_memory_recurrentiii
0000000000169010 T _ZN13llama_context16tape_replay_syncEv
0000000000167c2c T _ZN13llama_context17allocate_tape_gpuEii
000000000016b488 T _ZN13llama_context17attach_threadpoolEP15ggml_threadpoolS1_
000000000016b4dc T _ZN13llama_context17detach_threadpoolEv
0000000000165b24 T _ZN13llama_context17get_logits_argmaxEv
000000000016b704 T _ZN13llama_context17set_adapters_loraEPP18llama_adapter_loramPf
0000000000165bb8 T _ZN13llama_context18get_embeddings_ithEi
0000000000165cd0 T _ZN13llama_context18get_embeddings_seqEi
000000000016b56c T _ZN13llama_context18set_abort_callbackEPFbPvES0_
0000000000169ff4 T _ZN13llama_context18set_cross_data_gpuEiPKviiiPFvPvS1_mmE
0000000000169e94 T _ZN13llama_context18set_cross_data_seqEiPKfll
0000000000165f8c T _ZN13llama_context18set_dflash_captureEPKii
0000000000165f4c T _ZN13llama_context18set_dflash_n_slotsEi
0000000000167a88 T _ZN13llama_context18set_tape_recordingEb
000000000016f7e4 T _ZN13llama_context18state_seq_get_dataEiPhmj
000000000016f6ac T _ZN13llama_context18state_seq_get_sizeEij
000000000016f8e4 T _ZN13llama_context18state_seq_set_dataEiPKhmj
0000000000165b58 T _ZN13llama_context19get_logits_argmax_kEv
0000000000165b50 T _ZN13llama_context19get_logits_argmax_nEv
00000000001725e4 T _ZN13llama_context19init_cross_ring_gpuEiii
000000000016a26c T _ZN13llama_context19set_tree_parent_idsEPKii
000000000016fdcc T _ZN13llama_context19state_seq_load_fileEiPKcPimPm
000000000016f9e4 T _ZN13llama_context19state_seq_read_dataER15llama_io_read_iij
000000000017008c T _ZN13llama_context19state_seq_save_fileEiPKcPKim
000000000016f7a4 T _ZN13llama_context20state_seq_write_dataER16llama_io_write_iij
000000000016a334 T _ZN13llama_context21allocate_tree_buffersEi
000000000016a5e0 T _ZN13llama_context21clear_tree_parent_idsEv
0000000000169c84 T _ZN13llama_context21dflash_prepare_branchEiii
000000000016af50 T _ZN13llama_context21get_sampled_probs_ithEi
000000000016ae70 T _ZN13llama_context21get_sampled_token_ithEi
000000000016b8c8 T _ZN13llama_context22adapters_lora_are_sameEPP18llama_adapter_loramPf
000000000016b048 T _ZN13llama_context22get_sampled_logits_ithEi
0000000000168374 T _ZN13llama_context22set_active_dflash_slotEi
0000000000165f2c T _ZN13llama_context22set_dflash_sample_tempEf
0000000000165b60 T _ZN13llama_context23get_logits_argmax_probsEv
000000000016b3b4 T _ZN13llama_context23get_sampled_probs_countEi
000000000016b2c0 T _ZN13llama_context24get_sampled_logits_countEi
000000000016b140 T _ZN13llama_context26get_sampled_candidates_ithEi
0000000000167508 T _ZN13llama_context27dflash_reset_hidden_captureEv
000000000016b1ec T _ZN13llama_context28get_sampled_candidates_countEi
00000000001675ac T _ZN13llama_context29dflash_ensure_recurrent_setupEv
000000000016cd90 T _ZN13llama_context6decodeERK11llama_batch
000000000016c0e8 T _ZN13llama_context6encodeERK11llama_batch
0000000000170808 T _ZN13llama_context8opt_initEP11llama_model16llama_opt_params
0000000000171538 T _ZN13llama_context9opt_epochEP16ggml_opt_datasetP15ggml_opt_resultS3_lPFvbP16ggml_opt_contextS1_S3_lllES7_
00000000001609d4 T _ZN13llama_contextC1ERK11llama_model20llama_context_params
00000000001609d4 T _ZN13llama_contextC2ERK11llama_model20llama_context_params
0000000000164060 T _ZN13llama_contextD1Ev
0000000000164060 T _ZN13llama_contextD2Ev
0000000000163d1c W _ZN13llama_contextUt_D2Ev
0000000000180d00 W _ZN13llama_grammarD2Ev
000000000019ec8c T _ZN13llama_hparams15set_swa_patternEjb
00000000002b5d04 T _ZN13llm_build_mptC1ERK11llama_modelRK16llm_graph_params
00000000002b5d04 T _ZN13llm_build_mptC2ERK11llama_modelRK16llm_graph_params
00000000002b6298 W _ZN13llm_build_mptD0Ev
00000000002be0e0 T _ZN13llm_build_plmC1ERK11llama_modelRK16llm_graph_params
00000000002be0e0 T _ZN13llm_build_plmC2ERK11llama_modelRK16llm_graph_params
00000000002beaa8 W _ZN13llm_build_plmD0Ev
0000000000274340 W _ZN13llm_tokenizerD2Ev
00000000001a5038 T _ZN14llama_kv_cache10init_batchER18llama_batch_allocrjb
00000000001b0a18 T _ZN14llama_kv_cache10state_readER15llama_io_read_iij
00000000001a6568 T _ZN14llama_kv_cache11init_updateEP13llama_contextb
00000000001a78dc T _ZN14llama_kv_cache12apply_ubatchERKNS_9slot_infoERK12llama_ubatch
00000000001b1684 T _ZN14llama_kv_cache15state_read_dataER15llama_io_read_ijjRKNS_9slot_infoE
00000000001b0d08 T _ZN14llama_kv_cache15state_read_metaER15llama_io_read_ijjRNS_9slot_infoEi
00000000001a3334 W _ZN14llama_kv_cache16stream_copy_infoD2Ev
00000000001a3480 T _ZN14llama_kv_cache5clearEb
00000000001a3cf0 T _ZN14llama_kv_cache6seq_cpEiiii
00000000001a3620 T _ZN14llama_kv_cache6seq_rmEiii
00000000001a867c T _ZN14llama_kv_cache6updateEP13llama_contextbRKNS_16stream_copy_infoE
00000000001a5304 T _ZN14llama_kv_cache7prepareERKNSt6__ndk16vectorI12llama_ubatchNS0_9allocatorIS2_EEEE
00000000001a493c T _ZN14llama_kv_cache7seq_addEiiii
00000000001a4b2c T _ZN14llama_kv_cache7seq_divEiiii
00000000001a3128 W _ZN14llama_kv_cache8kv_layerD2Ev
00000000001a45e8 T _ZN14llama_kv_cache8seq_keepEi
00000000001a6510 T _ZN14llama_kv_cache9init_fullEv
00000000001a74d0 W _ZN14llama_kv_cache9slot_infoC2ERKS0_
00000000001a7688 W _ZN14llama_kv_cache9slot_infoD2Ev
00000000001a0fb0 T _ZN14llama_kv_cacheC1ERK11llama_model9ggml_typeS3_bbbjjjj14llama_swa_typeRKNSt6__ndk18functionIFbiEEERKNS6_IFiiEEE
00000000001a0fb0 T _ZN14llama_kv_cacheC2ERK11llama_model9ggml_typeS3_bbbjjjj14llama_swa_typeRKNSt6__ndk18functionIFbiEEERKNS6_IFiiEEE
00000000001b2dc8 W _ZN14llama_kv_cacheD0Ev
00000000001b2bb8 W _ZN14llama_kv_cacheD2Ev
00000000001b30b8 W _ZN14llama_kv_cells10seq_pos_rmEj
00000000001b31ec W _ZN14llama_kv_cells11seq_pos_addEj
00000000001a83ac W _ZN14llama_kv_cells3setERKNSt6__ndk16vectorIjNS0_9allocatorIjEEEERKS_
00000000001a2f4c W _ZN14llama_kv_cells6resizeEj
00000000001a3a80 W _ZN14llama_kv_cells6seq_rmEji
00000000001a449c W _ZN14llama_kv_cells7pos_addEji
00000000001a435c W _ZN14llama_kv_cells7seq_addEji
00000000001a46cc W _ZN14llama_kv_cells8seq_keepEji
00000000001a772c W _ZN14llama_kv_cellsD2Ev
00000000001b2df0 W _ZN14llama_memory_i19set_force_split_seqEb
00000000002952fc T _ZN14llm_build_bertC1ERK11llama_modelRK16llm_graph_params
00000000002952fc T _ZN14llm_build_bertC2ERK11llama_modelRK16llm_graph_params
0000000000295adc W _ZN14llm_build_bertD0Ev
000000000029867c T _ZN14llm_build_dbrxC1ERK11llama_modelRK16llm_graph_params
000000000029867c T _ZN14llm_build_dbrxC2ERK11llama_modelRK16llm_graph_params
0000000000298b90 W _ZN14llm_build_dbrxD0Ev
0000000000298bd0 T _ZN14llm_build_deciC1ERK11llama_modelRK16llm_graph_params
0000000000298bd0 T _ZN14llm_build_deciC2ERK11llama_modelRK16llm_graph_params
00000000002991a0 W _ZN14llm_build_deciD0Ev
00000000002a76ac T _ZN14llm_build_glm4C1ERK11llama_modelRK16llm_graph_params
00000000002a76ac T _ZN14llm_build_glm4C2ERK11llama_modelRK16llm_graph_params
00000000002a7cc8 W _ZN14llm_build_glm4D0Ev
00000000002a7d08 T _ZN14llm_build_gpt2C1ERK11llama_modelRK16llm_graph_params
00000000002a7d08 T _ZN14llm_build_gpt2C2ERK11llama_modelRK16llm_graph_params
00000000002a8178 W _ZN14llm_build_gpt2D0Ev
00000000002a985c T _ZN14llm_build_grokC1ERK11llama_modelRK16llm_graph_params
00000000002a985c T _ZN14llm_build_grokC2ERK11llama_modelRK16llm_graph_params
00000000002a9ef0 W _ZN14llm_build_grokD0Ev
00000000002ab7d8 T _ZN14llm_build_jaisC1ERK11llama_modelRK16llm_graph_params
00000000002ab7d8 T _ZN14llm_build_jaisC2ERK11llama_modelRK16llm_graph_params
00000000002abbdc W _ZN14llm_build_jaisD0Ev
00000000002ae81c W _ZN14llm_build_lfm2ILb0EEC1ERK11llama_modelRK16llm_graph_params
00000000002ae81c W _ZN14llm_build_lfm2ILb0EEC2ERK11llama_modelRK16llm_graph_params
00000000002af55c W _ZN14llm_build_lfm2ILb0EED0Ev
00000000002adb1c W _ZN14llm_build_lfm2ILb1EEC1ERK11llama_modelRK16llm_graph_params
00000000002adb1c W _ZN14llm_build_lfm2ILb1EEC2ERK11llama_modelRK16llm_graph_params
00000000002af51c W _ZN14llm_build_lfm2ILb1EED0Ev
00000000002b7358 T _ZN14llm_build_olmoC1ERK11llama_modelRK16llm_graph_params
00000000002b7358 T _ZN14llm_build_olmoC2ERK11llama_modelRK16llm_graph_params
00000000002b7848 W _ZN14llm_build_olmoD0Ev
00000000002ba78c T _ZN14llm_build_phi2C1ERK11llama_modelRK16llm_graph_params
00000000002ba78c T _ZN14llm_build_phi2C2ERK11llama_modelRK16llm_graph_params
00000000002bac44 W _ZN14llm_build_phi2D0Ev
00000000002bac84 W _ZN14llm_build_phi3ILb0EEC1ERK11llama_modelRK16llm_graph_params
00000000002bac84 W _ZN14llm_build_phi3ILb0EEC2ERK11llama_modelRK16llm_graph_params
00000000002bb7c4 W _ZN14llm_build_phi3ILb0EED0Ev
00000000002bb224 W _ZN14llm_build_phi3ILb1EEC1ERK11llama_modelRK16llm_graph_params
00000000002bb224 W _ZN14llm_build_phi3ILb1EEC2ERK11llama_modelRK16llm_graph_params
00000000002bb804 W _ZN14llm_build_phi3ILb1EED0Ev
00000000002beae8 T _ZN14llm_build_qwenC1ERK11llama_modelRK16llm_graph_params
00000000002beae8 T _ZN14llm_build_qwenC2ERK11llama_modelRK16llm_graph_params
00000000002befa8 W _ZN14llm_build_qwenD0Ev
00000000002c6fd8 T _ZN14llm_build_rnd1C1ERK11llama_modelRK16llm_graph_params
00000000002c6fd8 T _ZN14llm_build_rnd1C2ERK11llama_modelRK16llm_graph_params
00000000002c754c W _ZN14llm_build_rnd1D0Ev
00000000001a0f28 T _ZN15llama_io_read_i11read_stringERNSt6__ndk112basic_stringIcNS0_11char_traitsIcEENS0_9allocatorIcEEEE
000000000016f6a8 W _ZN15llama_io_read_iD2Ev
00000000002921bc T _ZN15llm_build_afmoeC1ERK11llama_modelRK16llm_graph_params
00000000002921bc T _ZN15llm_build_afmoeC2ERK11llama_modelRK16llm_graph_params
0000000000292a04 W _ZN15llm_build_afmoeD0Ev
00000000002930a0 T _ZN15llm_build_arceeC1ERK11llama_modelRK16llm_graph_params
00000000002930a0 T _ZN15llm_build_arceeC2ERK11llama_modelRK16llm_graph_params
00000000002935dc W _ZN15llm_build_arceeD0Ev
000000000029613c T _ZN15llm_build_bloomC1ERK11llama_modelRK16llm_graph_params
000000000029613c T _ZN15llm_build_bloomC2ERK11llama_modelRK16llm_graph_params
000000000029657c W _ZN15llm_build_bloomD0Ev
000000000029e448 T _ZN15llm_build_dots1C1ERK11llama_modelRK16llm_graph_params
000000000029e448 T _ZN15llm_build_dots1C2ERK11llama_modelRK16llm_graph_params
000000000029eac4 W _ZN15llm_build_dots1D0Ev
000000000029eb04 T _ZN15llm_build_dreamC1ERK11llama_modelRK16llm_graph_params
000000000029eb04 T _ZN15llm_build_dreamC2ERK11llama_modelRK16llm_graph_params
000000000029efe0 W _ZN15llm_build_dreamD0Ev
00000000002a2a14 T _ZN15llm_build_gemmaC1ERK11llama_modelRK16llm_graph_params
00000000002a2a14 T _ZN15llm_build_gemmaC2ERK11llama_modelRK16llm_graph_params
00000000002a2ee8 W _ZN15llm_build_gemmaD0Ev
00000000002abc1c T _ZN15llm_build_jais2C1ERK11llama_modelRK16llm_graph_params
00000000002abc1c T _ZN15llm_build_jais2C2ERK11llama_modelRK16llm_graph_params
00000000002ac0e0 W _ZN15llm_build_jais2D0Ev
00000000002ac120 T _ZN15llm_build_jambaC1ERK11llama_modelRK16llm_graph_params
00000000002ac120 T _ZN15llm_build_jambaC2ERK11llama_modelRK16llm_graph_params
00000000002ac58c W _ZN15llm_build_jambaD0Ev
00000000002afb50 T _ZN15llm_build_lladaC1ERK11llama_modelRK16llm_graph_params
00000000002afb50 T _ZN15llm_build_lladaC2ERK11llama_modelRK16llm_graph_params
00000000002b002c W _ZN15llm_build_lladaD0Ev
00000000002b006c W _ZN15llm_build_llamaILb0EEC1ERK11llama_modelRK16llm_graph_params
00000000002b006c W _ZN15llm_build_llamaILb0EEC2ERK11llama_modelRK16llm_graph_params
00000000002b0d2c W _ZN15llm_build_llamaILb0EED0Ev
00000000002b06e8 W _ZN15llm_build_llamaILb1EEC1ERK11llama_modelRK16llm_graph_params
00000000002b06e8 W _ZN15llm_build_llamaILb1EEC2ERK11llama_modelRK16llm_graph_params
00000000002b0d6c W _ZN15llm_build_llamaILb1EED0Ev
00000000002b3748 T _ZN15llm_build_mambaC1ERK11llama_modelRK16llm_graph_params
00000000002b3748 T _ZN15llm_build_mambaC2ERK11llama_modelRK16llm_graph_params
00000000002b39ac W _ZN15llm_build_mambaD0Ev
00000000002b7888 W _ZN15llm_build_olmo2ILb0EEC1ERK11llama_modelRK16llm_graph_params
00000000002b7888 W _ZN15llm_build_olmo2ILb0EEC2ERK11llama_modelRK16llm_graph_params
00000000002b85c0 W _ZN15llm_build_olmo2ILb0EED0Ev
00000000002b7f24 W _ZN15llm_build_olmo2ILb1EEC1ERK11llama_modelRK16llm_graph_params
00000000002b7f24 W _ZN15llm_build_olmo2ILb1EEC2ERK11llama_modelRK16llm_graph_params
00000000002b8600 W _ZN15llm_build_olmo2ILb1EED0Ev
00000000002b8640 T _ZN15llm_build_olmoeC1ERK11llama_modelRK16llm_graph_params
00000000002b8640 T _ZN15llm_build_olmoeC2ERK11llama_modelRK16llm_graph_params
00000000002b8c48 W _ZN15llm_build_olmoeD0Ev
00000000002b980c T _ZN15llm_build_orionC1ERK11llama_modelRK16llm_graph_params
00000000002b980c T _ZN15llm_build_orionC2ERK11llama_modelRK16llm_graph_params
00000000002b9ce4 W _ZN15llm_build_orionD0Ev
00000000002bb844 T _ZN15llm_build_plamoC1ERK11llama_modelRK16llm_graph_params
00000000002bb844 T _ZN15llm_build_plamoC2ERK11llama_modelRK16llm_graph_params
00000000002bbcdc W _ZN15llm_build_plamoD0Ev
00000000002befe8 T _ZN15llm_build_qwen2C1ERK11llama_modelRK16llm_graph_params
00000000002befe8 T _ZN15llm_build_qwen2C2ERK11llama_modelRK16llm_graph_params
00000000002bf4dc W _ZN15llm_build_qwen2D0Ev
00000000002c00e0 T _ZN15llm_build_qwen3C1ERK11llama_modelRK16llm_graph_params
00000000002c00e0 T _ZN15llm_build_qwen3C2ERK11llama_modelRK16llm_graph_params
00000000002c063c W _ZN15llm_build_qwen3D0Ev
00000000002c826c T _ZN15llm_build_rwkv6C1ERK11llama_modelRK16llm_graph_params
00000000002c826c T _ZN15llm_build_rwkv6C2ERK11llama_modelRK16llm_graph_params
00000000002c8830 W _ZN15llm_build_rwkv6D0Ev
00000000002c9784 T _ZN15llm_build_rwkv7C1ERK11llama_modelRK16llm_graph_params
00000000002c9784 T _ZN15llm_build_rwkv7C2ERK11llama_modelRK16llm_graph_params
00000000002c9d48 W _ZN15llm_build_rwkv7D0Ev
00000000001a0e88 T _ZN16llama_io_write_i12write_stringERKNSt6__ndk112basic_stringIcNS0_11char_traitsIcEENS0_9allocatorIcEEEE
000000000016f2a4 W _ZN16llama_io_write_iD2Ev
000000000029361c T _ZN16llm_build_arcticC1ERK11llama_modelRK16llm_graph_params
000000000029361c T _ZN16llm_build_arcticC2ERK11llama_modelRK16llm_graph_params
0000000000293c04 W _ZN16llm_build_arcticD0Ev
0000000000293c44 T _ZN16llm_build_arwkv7C1ERK11llama_modelRK16llm_graph_params
0000000000293c44 T _ZN16llm_build_arwkv7C2ERK11llama_modelRK16llm_graph_params
000000000029411c W _ZN16llm_build_arwkv7D0Ev
0000000000295b1c T _ZN16llm_build_bitnetC1ERK11llama_modelRK16llm_graph_params
0000000000295b1c T _ZN16llm_build_bitnetC2ERK11llama_modelRK16llm_graph_params
00000000002960fc W _ZN16llm_build_bitnetD0Ev
00000000002976c4 T _ZN16llm_build_cogvlmC1ERK11llama_modelRK16llm_graph_params
00000000002976c4 T _ZN16llm_build_cogvlmC2ERK11llama_modelRK16llm_graph_params
0000000000297bd8 W _ZN16llm_build_cogvlmD0Ev
00000000002a081c T _ZN16llm_build_exaoneC1ERK11llama_modelRK16llm_graph_params
00000000002a081c T _ZN16llm_build_exaoneC2ERK11llama_modelRK16llm_graph_params
00000000002a0d30 W _ZN16llm_build_exaoneD0Ev
00000000002a1efc T _ZN16llm_build_falconC1ERK11llama_modelRK16llm_graph_params
00000000002a1efc T _ZN16llm_build_falconC2ERK11llama_modelRK16llm_graph_params
00000000002a23dc W _ZN16llm_build_falconD0Ev
00000000002a3508 W _ZN16llm_build_gemma3ILb0EEC1ERK11llama_modelRK16llm_graph_params
00000000002a3508 W _ZN16llm_build_gemma3ILb0EEC2ERK11llama_modelRK16llm_graph_params
00000000002a414c W _ZN16llm_build_gemma3ILb0EED0Ev
00000000002a3b18 W _ZN16llm_build_gemma3ILb1EEC1ERK11llama_modelRK16llm_graph_params
00000000002a3b18 W _ZN16llm_build_gemma3ILb1EEC2ERK11llama_modelRK16llm_graph_params
00000000002a418c W _ZN16llm_build_gemma3ILb1EED0Ev
00000000002b0dac W _ZN16llm_build_llama4ILb0EEC1ERK11llama_modelRK16llm_graph_params
00000000002b0dac W _ZN16llm_build_llama4ILb0EEC2ERK11llama_modelRK16llm_graph_params
00000000002b1cbc W _ZN16llm_build_llama4ILb0EED0Ev
00000000002b1534 W _ZN16llm_build_llama4ILb1EEC1ERK11llama_modelRK16llm_graph_params
00000000002b1534 W _ZN16llm_build_llama4ILb1EEC2ERK11llama_modelRK16llm_graph_params
00000000002b1cfc W _ZN16llm_build_llama4ILb1EED0Ev
00000000002bcdbc T _ZN16llm_build_plamo223build_plamo2_attn_layerEP23llm_graph_input_attn_kvP11ggml_tensorS3_RK11llama_modeli
00000000002bc0e8 T _ZN16llm_build_plamo224build_plamo2_mamba_layerEP18llm_graph_input_rsP11ggml_tensorRK11llama_modelRK12llama_ubatchi
00000000002bbd1c T _ZN16llm_build_plamo2C1ERK11llama_modelRK16llm_graph_params
00000000002bbd1c T _ZN16llm_build_plamo2C2ERK11llama_modelRK16llm_graph_params
00000000002bd134 W _ZN16llm_build_plamo2D0Ev
00000000002bd2e4 W _ZN16llm_build_plamo3ILb0EEC1ERK11llama_modelRK16llm_graph_params
00000000002bd2e4 W _ZN16llm_build_plamo3ILb0EEC2ERK11llama_modelRK16llm_graph_params
00000000002be060 W _ZN16llm_build_plamo3ILb0EED0Ev
00000000002bd990 W _ZN16llm_build_plamo3ILb1EEC1ERK11llama_modelRK16llm_graph_params
00000000002bd990 W _ZN16llm_build_plamo3ILb1EEC2ERK11llama_modelRK16llm_graph_params
00000000002be0a0 W _ZN16llm_build_plamo3ILb1EED0Ev
00000000002c1ff8 T _ZN16llm_build_qwen3510build_qkvzEP11ggml_tensori
00000000002c1f34 T _ZN16llm_build_qwen3515build_layer_ffnEP11ggml_tensori
00000000002c1a24 T _ZN16llm_build_qwen3516build_layer_attnEP23llm_graph_input_attn_kvP11ggml_tensorS3_Pii
00000000002c20d8 T _ZN16llm_build_qwen3516build_norm_gatedEP11ggml_tensorS1_S1_i
00000000002c0b10 T _ZN16llm_build_qwen3523build_layer_attn_linearEP18llm_graph_input_rsP11ggml_tensori
00000000002c067c T _ZN16llm_build_qwen35C1ERK11llama_modelRK16llm_graph_params
00000000002c067c T _ZN16llm_build_qwen35C2ERK11llama_modelRK16llm_graph_params
00000000002c2134 W _ZN16llm_build_qwen35D0Ev
00000000002c6b48 T _ZN16llm_build_refactC1ERK11llama_modelRK16llm_graph_params
00000000002c6b48 T _ZN16llm_build_refactC2ERK11llama_modelRK16llm_graph_params
00000000002c6f98 W _ZN16llm_build_refactD0Ev
00000000002cdfa8 T _ZN16llm_build_xverseC1ERK11llama_modelRK16llm_graph_params
00000000002cdfa8 T _ZN16llm_build_xverseC2ERK11llama_modelRK16llm_graph_params
00000000002ce484 W _ZN16llm_build_xverseD0Ev
0000000000194888 W _ZN16llm_graph_paramsaSEOS_
000000000019531c W _ZN16llm_graph_paramsaSERKS_
000000000016c034 W _ZN16llm_graph_paramsD2Ev
0000000000194af4 T _ZN16llm_graph_result10set_inputsEPK12llama_ubatch
0000000000195314 T _ZN16llm_graph_result10set_paramsERK16llm_graph_params
0000000000194b40 T _ZN16llm_graph_result11set_outputsEv
0000000000194324 T _ZN16llm_graph_result5resetEv
0000000000195210 T _ZN16llm_graph_result9add_inputENSt6__ndk110unique_ptrI17llm_graph_input_iNS0_14default_deleteIS2_EEEE
0000000000194cf4 T _ZN16llm_graph_result9can_reuseERK16llm_graph_params
0000000000194038 T _ZN16llm_graph_resultC1El
0000000000194038 T _ZN16llm_graph_resultC2El
000000000019d25c W _ZN16llm_graph_resultD0Ev
000000000019d0f4 W _ZN16llm_graph_resultD2Ev
00000000001d6aa4 T _ZN17llama_model_saver10add_tensorEPK11ggml_tensor
00000000001d6d64 T _ZN17llama_model_saver17add_kv_from_modelEv
00000000001da72c T _ZN17llama_model_saver22add_tensors_from_modelEv
00000000001daac0 T _ZN17llama_model_saver4saveEP7__sFILE
00000000001daaa4 T _ZN17llama_model_saver4saveERKNSt6__ndk112basic_stringIcNS0_11char_traitsIcEENS0_9allocatorIcEEEE
00000000001d617c T _ZN17llama_model_saver6add_kvE6llm_kvb
00000000001d6304 T _ZN17llama_model_saver6add_kvE6llm_kvc
00000000001d60b0 T _ZN17llama_model_saver6add_kvE6llm_kvf
00000000001d5fec T _ZN17llama_model_saver6add_kvE6llm_kvi
00000000001d5f28 T _ZN17llama_model_saver6add_kvE6llm_kvj
00000000001d6240 T _ZN17llama_model_saver6add_kvE6llm_kvPKc
00000000001d64f0 T _ZN17llama_model_saver6add_kvE6llm_kvRKNSt6__ndk16vectorINS1_12basic_stringIcNS1_11char_traitsIcEENS1_9allocatorIcEEEENS6_IS8_EEEE
00000000001d9c9c W _ZN17llama_model_saver6add_kvINSt6__ndk112basic_stringIcNS1_11char_traitsIcEENS1_9allocatorIcEEEEEEv6llm_kvRKT_b
00000000001da014 W _ZN17llama_model_saver6add_kvINSt6__ndk15arrayIfLm512EEEEEv6llm_kvRKT_b
00000000001da1d4 W _ZN17llama_model_saver6add_kvINSt6__ndk15arrayIiLm4EEEEEv6llm_kvRKT_b
00000000001d9e60 W _ZN17llama_model_saver6add_kvINSt6__ndk15arrayIjLm512EEEEEv6llm_kvRKT_b
00000000001da554 W _ZN17llama_model_saver6add_kvINSt6__ndk16vectorIfNS1_9allocatorIfEEEEEEv6llm_kvRKT_b
00000000001da388 W _ZN17llama_model_saver6add_kvINSt6__ndk16vectorIiNS1_9allocatorIiEEEEEEv6llm_kvRKT_b
00000000001d6324 W _ZN17llama_model_saver6add_kvINSt6__ndk16vectorIjNS1_9allocatorIjEEEEEEv6llm_kvRKT_b
00000000001d5ea8 T _ZN17llama_model_saverC1E8llm_archP12gguf_context
00000000001d5e38 T _ZN17llama_model_saverC1EPK11llama_model
00000000001d5ea8 T _ZN17llama_model_saverC2E8llm_archP12gguf_context
00000000001d5e38 T _ZN17llama_model_saverC2EPK11llama_model
00000000001d5f00 T _ZN17llama_model_saverD1Ev
00000000001d5f00 T _ZN17llama_model_saverD2Ev
000000000025cd84 W _ZN17llama_sampler_dryD2Ev
0000000000292a44 T _ZN17llm_build_apertusC1ERK11llama_modelRK16llm_graph_params
0000000000292a44 T _ZN17llm_build_apertusC2ERK11llama_modelRK16llm_graph_params
0000000000293060 W _ZN17llm_build_apertusD0Ev
0000000000296ca8 T _ZN17llm_build_chatglmC1ERK11llama_modelRK16llm_graph_params
0000000000296ca8 T _ZN17llm_build_chatglmC2ERK11llama_modelRK16llm_graph_params
0000000000297168 W _ZN17llm_build_chatglmD0Ev
00000000002a0d70 W _ZN17llm_build_exaone4ILb0EEC1ERK11llama_modelRK16llm_graph_params
00000000002a0d70 W _ZN17llm_build_exaone4ILb0EEC2ERK11llama_modelRK16llm_graph_params
00000000002a18e0 W _ZN17llm_build_exaone4ILb0EED0Ev
00000000002a1328 W _ZN17llm_build_exaone4ILb1EEC1ERK11llama_modelRK16llm_graph_params
00000000002a1328 W _ZN17llm_build_exaone4ILb1EEC2ERK11llama_modelRK16llm_graph_params
00000000002a1920 W _ZN17llm_build_exaone4ILb1EED0Ev
00000000002a81b8 T _ZN17llm_build_gptneoxC1ERK11llama_modelRK16llm_graph_params
00000000002a81b8 T _ZN17llm_build_gptneoxC2ERK11llama_modelRK16llm_graph_params
00000000002a87a0 W _ZN17llm_build_gptneoxD0Ev
00000000002a956c T _ZN17llm_build_granite15build_layer_ffnEP11ggml_tensorS1_RK11llama_modeli
00000000002a934c T _ZN17llm_build_granite21build_attention_layerEP11ggml_tensorS1_P23llm_graph_input_attn_kvRK11llama_modelli
00000000002a8fec T _ZN17llm_build_graniteC1ERK11llama_modelRK16llm_graph_params
00000000002a8fec T _ZN17llm_build_graniteC2ERK11llama_modelRK16llm_graph_params
00000000002a981c W _ZN17llm_build_graniteD0Ev
00000000002b91b4 T _ZN17llm_build_openelmC1ERK11llama_modelRK16llm_graph_params
00000000002b91b4 T _ZN17llm_build_openelmC2ERK11llama_modelRK16llm_graph_params
00000000002b97cc W _ZN17llm_build_openelmD0Ev
00000000002bfbb0 T _ZN17llm_build_qwen2vlC1ERK11llama_modelRK16llm_graph_params
00000000002bfbb0 T _ZN17llm_build_qwen2vlC2ERK11llama_modelRK16llm_graph_params
00000000002c00a0 W _ZN17llm_build_qwen2vlD0Ev
00000000002c64fc T _ZN17llm_build_qwen3vlC1ERK11llama_modelRK16llm_graph_params
00000000002c64fc T _ZN17llm_build_qwen3vlC2ERK11llama_modelRK16llm_graph_params
00000000002c6b08 W _ZN17llm_build_qwen3vlD0Ev
00000000002caeac T _ZN17llm_build_smollm3C1ERK11llama_modelRK16llm_graph_params
00000000002caeac T _ZN17llm_build_smollm3C2ERK11llama_modelRK16llm_graph_params
00000000002cb3e8 W _ZN17llm_build_smollm3D0Ev
0000000000195574 T _ZN17llm_graph_contextC1ERK16llm_graph_params
0000000000195574 T _ZN17llm_graph_contextC2ERK16llm_graph_params
000000000019d2a4 W _ZN17llm_graph_contextD0Ev
000000000019d284 W _ZN17llm_graph_contextD2Ev
000000000019c9e0 W _ZN17llm_graph_input_i9can_reuseERK16llm_graph_params
000000000019d934 W _ZN17llm_graph_input_iD0Ev
000000000019cda4 W _ZN17llm_graph_input_iD2Ev
0000000000272b78 W _ZN17llm_tokenizer_bpeC2ERK11llama_vocab
0000000000273ee4 W _ZN17llm_tokenizer_bpeD0Ev
0000000000273e48 W _ZN17llm_tokenizer_bpeD2Ev
0000000000272b70 W _ZN17llm_tokenizer_spmD0Ev
000000000027434c W _ZN17llm_tokenizer_ugmC2ERK11llama_vocabRKNSt6__ndk16vectorIcNS3_9allocatorIcEEEE
0000000000274894 W _ZN17llm_tokenizer_ugmD0Ev
0000000000274834 W _ZN17llm_tokenizer_ugmD2Ev
0000000000274344 W _ZN17llm_tokenizer_wpmD0Ev
000000000014bc30 T _ZN18llama_adapter_cvec4initERK11llama_model
000000000014c43c T _ZN18llama_adapter_cvec5applyERK11llama_modelPKfmiii
00000000001745bc W _ZN18llama_adapter_cvecD2Ev
000000000014c55c T _ZN18llama_adapter_lora10get_weightEP11ggml_tensor
000000000014ead0 W _ZN18llama_adapter_loraD2Ev
00000000001563f0 T _ZN18llama_batch_allocr10ubatch_addERKNSt6__ndk16vectorIiNS0_9allocatorIiEEEEjb
000000000015611c T _ZN18llama_batch_allocr11get_out_idsEv
0000000000156dbc T _ZN18llama_batch_allocr11split_equalEjb
0000000000155bf0 T _ZN18llama_batch_allocr11split_resetEv
0000000000156124 T _ZN18llama_batch_allocr12split_simpleEj
000000000015506c T _ZN18llama_batch_allocr12ubatch_printERK12llama_ubatchi
0000000000155c14 T _ZN18llama_batch_allocr14ubatch_reserveEjj
000000000015367c T _ZN18llama_batch_allocr4initERK11llama_batchRK11llama_vocabPK14llama_memory_ijjb
0000000000154eb8 T _ZN18llama_batch_allocr5clearEv
00000000001575f4 T _ZN18llama_batch_allocr9split_seqEj
0000000000152ed0 T _ZN18llama_batch_allocrC1Ej
0000000000152ed0 T _ZN18llama_batch_allocrC2Ej
000000000016ed30 W _ZN18llama_batch_allocrD2Ev
0000000000174254 W _ZN18llama_io_read_file4readEm
00000000001743a4 W _ZN18llama_io_read_file7n_bytesEv
0000000000174370 W _ZN18llama_io_read_file7read_toEPvm
0000000000174204 W _ZN18llama_io_read_fileD0Ev
000000000016fc2c W _ZN18llama_io_read_fileD2Ev
00000000001c974c T _ZN18llama_model_loader13create_tensorERK13llama_hparamsPKNSt6__ndk16vectorINS3_4pairIP19ggml_backend_deviceP24ggml_backend_buffer_typeEENS3_9allocatorISA_EEEESF_SF_SF_RK11LLM_TN_IMPLRKSt16initializer_listIlEi
00000000001caeb0 T _ZN18llama_model_loader13init_mappingsEbPNSt6__ndk16vectorINS0_10unique_ptrI11llama_mlockNS0_14default_deleteIS3_EEEENS0_9allocatorIS6_EEEE
00000000001cb8c8 T _ZN18llama_model_loader13load_all_dataEP12ggml_contextRNSt6__ndk113unordered_mapIjP19ggml_backend_bufferNS2_4hashIjEENS2_8equal_toIjEENS2_9allocatorINS2_4pairIKjS5_EEEEEEPNS2_6vectorINS2_10unique_ptrI11llama_mlockNS2_14default_deleteISJ_EEEENSA_ISM_EEEEPFbfPvESQ_
00000000001c43d0 T _ZN18llama_model_loader14get_key_or_arrE6llm_kvRjb
00000000001c4f70 W _ZN18llama_model_loader14get_key_or_arrIfLm512EEEbRKNSt6__ndk112basic_stringIcNS1_11char_traitsIcEENS1_9allocatorIcEEEERNS1_5arrayIT_XT0_EEEjb
00000000001c46ec W _ZN18llama_model_loader14get_key_or_arrIiLm4EEEbRKNSt6__ndk112basic_stringIcNS1_11char_traitsIcEENS1_9allocatorIcEEEERNS1_5arrayIT_XT0_EEEjb
00000000001c4b3c W _ZN18llama_model_loader14get_key_or_arrIjLm512EEEbRKNSt6__ndk112basic_stringIcNS1_11char_traitsIcEENS1_9allocatorIcEEEERNS1_5arrayIT_XT0_EEEjb
00000000001c4e98 W _ZN18llama_model_loader14get_key_or_arrINSt6__ndk15arrayIfLm512EEEEEb6llm_kvRT_jb
00000000001c4614 W _ZN18llama_model_loader14get_key_or_arrINSt6__ndk15arrayIiLm4EEEEEb6llm_kvRT_jb
00000000001c4a64 W _ZN18llama_model_loader14get_key_or_arrINSt6__ndk15arrayIjLm512EEEEEb6llm_kvRT_jb
00000000001c884c W _ZN18llama_model_loader19llama_tensor_weightC2EPK10llama_filetPK12gguf_contextP11ggml_tensor
00000000001ca9ac T _ZN18llama_model_loader21create_tensor_as_viewEP12ggml_contextP11ggml_tensorRKNSt6__ndk112basic_stringIcNS4_11char_traitsIcEENS4_9allocatorIcEEEERKSt16initializer_listIlEmb
00000000001d3e74 W _ZN18llama_model_loader7get_arrIfLm512EEEbRKNSt6__ndk112basic_stringIcNS1_11char_traitsIcEENS1_9allocatorIcEEEERNS1_5arrayIT_XT0_EEEb
00000000001d3614 W _ZN18llama_model_loader7get_arrIiLm4EEEbRKNSt6__ndk112basic_stringIcNS1_11char_traitsIcEENS1_9allocatorIcEEEERNS1_5arrayIT_XT0_EEEb
00000000001d39cc W _ZN18llama_model_loader7get_arrIjLm512EEEbRKNSt6__ndk112basic_stringIcNS1_11char_traitsIcEENS1_9allocatorIcEEEERNS1_5arrayIT_XT0_EEEb
00000000001c3498 W _ZN18llama_model_loader7get_arrINSt6__ndk112basic_stringIcNS1_11char_traitsIcEENS1_9allocatorIcEEEEEEbRKS7_RNS1_6vectorIT_NS5_ISB_EEEEb
00000000001c33d0 W _ZN18llama_model_loader7get_arrINSt6__ndk16vectorINS1_12basic_stringIcNS1_11char_traitsIcEENS1_9allocatorIcEEEENS6_IS8_EEEEEEb6llm_kvRT_b
00000000001c42f8 T _ZN18llama_model_loader7get_keyI18llama_pooling_typeEEb6llm_kvRT_b
00000000001c3908 W _ZN18llama_model_loader7get_keyIbEEb6llm_kvRT_b
00000000001c39d0 W _ZN18llama_model_loader7get_keyIbEEbRKNSt6__ndk112basic_stringIcNS1_11char_traitsIcEENS1_9allocatorIcEEEERT_b
00000000001c3b74 W _ZN18llama_model_loader7get_keyIfEEb6llm_kvRT_b
00000000001c3c3c W _ZN18llama_model_loader7get_keyIfEEbRKNSt6__ndk112basic_stringIcNS1_11char_traitsIcEENS1_9allocatorIcEEEERT_b
00000000001c8bfc W _ZN18llama_model_loader7get_keyIiEEbRKNSt6__ndk112basic_stringIcNS1_11char_traitsIcEENS1_9allocatorIcEEEERT_b
00000000001c3de0 W _ZN18llama_model_loader7get_keyIjEEb6llm_kvRT_b
00000000001c3ea8 W _ZN18llama_model_loader7get_keyIjEEbRKNSt6__ndk112basic_stringIcNS1_11char_traitsIcEENS1_9allocatorIcEEEERT_b
00000000001c4048 W _ZN18llama_model_loader7get_keyINSt6__ndk112basic_stringIcNS1_11char_traitsIcEENS1_9allocatorIcEEEEEEb6llm_kvRT_b
00000000001c4110 W _ZN18llama_model_loader7get_keyINSt6__ndk112basic_stringIcNS1_11char_traitsIcEENS1_9allocatorIcEEEEEEbRKS7_RT_b
00000000001c8a5c W _ZN18llama_model_loader7get_keyItEEbRKNSt6__ndk112basic_stringIcNS1_11char_traitsIcEENS1_9allocatorIcEEEERT_b
00000000001c31a4 W _ZN18llama_model_loader9get_arr_nIjEENSt6__ndk19enable_ifIXsr3std11is_integralIT_EE5valueEbE4typeE6llm_kvRS3_b
00000000001c326c W _ZN18llama_model_loader9get_arr_nIjEENSt6__ndk19enable_ifIXsr3std11is_integralIT_EE5valueEbE4typeERKNS1_12basic_stringIcNS1_11char_traitsIcEENS1_9allocatorIcEEEERS3_b
00000000001c52cc T _ZN18llama_model_loaderC1EP12gguf_contextPFvP11ggml_tensorPvES4_RKNSt6__ndk112basic_stringIcNS7_11char_traitsIcEENS7_9allocatorIcEEEERNS7_6vectorISD_NSB_ISD_EEEEP7__sFILEbbbbPK23llama_model_kv_overridePK32llama_model_tensor_buft_override
00000000001c52cc T _ZN18llama_model_loaderC2EP12gguf_contextPFvP11ggml_tensorPvES4_RKNSt6__ndk112basic_stringIcNS7_11char_traitsIcEENS7_9allocatorIcEEEERNS7_6vectorISD_NSB_ISD_EEEEP7__sFILEbbbbPK23llama_model_kv_overridePK32llama_model_tensor_buft_override
000000000014b738 W _ZN18llama_model_loaderD2Ev
000000000029415c T _ZN18llm_build_baichuanC1ERK11llama_modelRK16llm_graph_params
000000000029415c T _ZN18llm_build_baichuanC2ERK11llama_modelRK16llm_graph_params
0000000000294698 W _ZN18llm_build_baichuanD0Ev
00000000002991e0 T _ZN18llm_build_deepseekC1ERK11llama_modelRK16llm_graph_params
00000000002991e0 T _ZN18llm_build_deepseekC2ERK11llama_modelRK16llm_graph_params
0000000000299800 W _ZN18llm_build_deepseekD0Ev
000000000029f740 T _ZN18llm_build_ernie4_5C1ERK11llama_modelRK16llm_graph_params
000000000029f740 T _ZN18llm_build_ernie4_5C2ERK11llama_modelRK16llm_graph_params
000000000029fc18 W _ZN18llm_build_ernie4_5D0Ev
000000000029fc58 T _ZN18llm_build_eurobertC1ERK11llama_modelRK16llm_graph_params
000000000029fc58 T _ZN18llm_build_eurobertC2ERK11llama_modelRK16llm_graph_params
00000000002a00c8 W _ZN18llm_build_eurobertD0Ev
00000000002a6f20 T _ZN18llm_build_glm4_moeC1ERK11llama_modelRK16llm_graph_params
00000000002a6f20 T _ZN18llm_build_glm4_moeC2ERK11llama_modelRK16llm_graph_params
00000000002a766c W _ZN18llm_build_glm4_moeD0Ev
00000000002a9f30 T _ZN18llm_build_grovemoeC1ERK11llama_modelRK16llm_graph_params
00000000002a9f30 T _ZN18llm_build_grovemoeC2ERK11llama_modelRK16llm_graph_params
00000000002aa5b0 W _ZN18llm_build_grovemoeD0Ev
00000000002b4024 T _ZN18llm_build_minicpm3C1ERK11llama_modelRK16llm_graph_params
00000000002b4024 T _ZN18llm_build_minicpm3C2ERK11llama_modelRK16llm_graph_params
00000000002b4ad0 W _ZN18llm_build_minicpm3D0Ev
00000000002b5140 T _ZN18llm_build_mistral3C1ERK11llama_modelRK16llm_graph_params
00000000002b5140 T _ZN18llm_build_mistral3C2ERK11llama_modelRK16llm_graph_params
00000000002b5794 W _ZN18llm_build_mistral3D0Ev
00000000002b69c4 T _ZN18llm_build_nemotronC1ERK11llama_modelRK16llm_graph_params
00000000002b69c4 T _ZN18llm_build_nemotronC2ERK11llama_modelRK16llm_graph_params
00000000002b6e84 W _ZN18llm_build_nemotronD0Ev
00000000002b6ec4 T _ZN18llm_build_neo_bertC1ERK11llama_modelRK16llm_graph_params
00000000002b6ec4 T _ZN18llm_build_neo_bertC2ERK11llama_modelRK16llm_graph_params
00000000002b7318 W _ZN18llm_build_neo_bertD0Ev
00000000002bf51c T _ZN18llm_build_qwen2moeC1ERK11llama_modelRK16llm_graph_params
00000000002bf51c T _ZN18llm_build_qwen2moeC2ERK11llama_modelRK16llm_graph_params
00000000002bfb70 W _ZN18llm_build_qwen2moeD0Ev
00000000002c3ce4 T _ZN18llm_build_qwen3moeC1ERK11llama_modelRK16llm_graph_params
00000000002c3ce4 T _ZN18llm_build_qwen3moeC2ERK11llama_modelRK16llm_graph_params
00000000002c4260 W _ZN18llm_build_qwen3moeD0Ev
00000000002c9d88 T _ZN18llm_build_seed_ossC1ERK11llama_modelRK16llm_graph_params
00000000002c9d88 T _ZN18llm_build_seed_ossC2ERK11llama_modelRK16llm_graph_params
00000000002ca2ac W _ZN18llm_build_seed_ossD0Ev
00000000002cb428 T _ZN18llm_build_stablelmC1ERK11llama_modelRK16llm_graph_params
00000000002cb428 T _ZN18llm_build_stablelmC2ERK11llama_modelRK16llm_graph_params
00000000002cb98c W _ZN18llm_build_stablelmD0Ev
000000000019240c T _ZN18llm_graph_input_rs9can_reuseERK16llm_graph_params
0000000000192378 T _ZN18llm_graph_input_rs9set_inputEPK12llama_ubatch
000000000019cb84 W _ZN18llm_graph_input_rsD0Ev
0000000000274948 W _ZN18llm_tokenizer_rwkvC2ERK11llama_vocab
0000000000274b08 W _ZN18llm_tokenizer_rwkvD0Ev
0000000000274ae8 W _ZN18llm_tokenizer_rwkvD2Ev
0000000000174788 W _ZN19dflash_capture_dataD2Ev
0000000000174430 W _ZN19llama_io_write_file12write_tensorEPK11ggml_tensormm
00000000001743fc W _ZN19llama_io_write_file5writeEPKvm
000000000017025c W _ZN19llama_io_write_file7n_bytesEv
00000000001743ac W _ZN19llama_io_write_fileD0Ev
000000000016fd98 W _ZN19llama_io_write_fileD2Ev
00000000001b6d00 T _ZN19llama_kv_cache_iswa10init_batchER18llama_batch_allocrjb
00000000001b7580 T _ZN19llama_kv_cache_iswa10state_readER15llama_io_read_iij
00000000001b7440 T _ZN19llama_kv_cache_iswa11init_updateEP13llama_contextb
00000000001b68d8 T _ZN19llama_kv_cache_iswa5clearEb
00000000001b6984 T _ZN19llama_kv_cache_iswa6seq_cpEiiii
00000000001b6918 T _ZN19llama_kv_cache_iswa6seq_rmEiii
00000000001b6a2c T _ZN19llama_kv_cache_iswa7seq_addEiiii
00000000001b6a94 T _ZN19llama_kv_cache_iswa7seq_divEiiii
00000000001b69ec T _ZN19llama_kv_cache_iswa8seq_keepEi
00000000001b73e8 T _ZN19llama_kv_cache_iswa9init_fullEv
00000000001b6550 T _ZN19llama_kv_cache_iswaC1ERK11llama_model9ggml_typeS3_bbbbjjjjRKNSt6__ndk18functionIFbiEEERKNS5_IFiiEEE
00000000001b6550 T _ZN19llama_kv_cache_iswaC2ERK11llama_model9ggml_typeS3_bbbbjjjjRKNSt6__ndk18functionIFbiEEERKNS5_IFiiEEE
00000000001b7fb0 W _ZN19llama_kv_cache_iswaD0Ev
00000000001b7f4c W _ZN19llama_kv_cache_iswaD2Ev
00000000001b8700 T _ZN19llama_memory_hybrid10init_batchER18llama_batch_allocrjb
00000000001b927c T _ZN19llama_memory_hybrid10state_readER15llama_io_read_iij
00000000001b8cf0 T _ZN19llama_memory_hybrid11init_updateEP13llama_contextb
00000000001b9be8 W _ZN19llama_memory_hybrid19set_force_split_seqEb
00000000001b8d70 T _ZN19llama_memory_hybrid5clearEb
00000000001b8e1c T _ZN19llama_memory_hybrid6seq_cpEiiii
00000000001b8db0 T _ZN19llama_memory_hybrid6seq_rmEiii
00000000001b8ec4 T _ZN19llama_memory_hybrid7seq_addEiiii
00000000001b8f2c T _ZN19llama_memory_hybrid7seq_divEiiii
00000000001b8e84 T _ZN19llama_memory_hybrid8seq_keepEi
00000000001b8c98 T _ZN19llama_memory_hybrid9init_fullEv
00000000001b8394 T _ZN19llama_memory_hybridC1ERK11llama_model9ggml_typeS3_bjjj14llama_swa_typeS3_S3_jjbbRKNSt6__ndk18functionIFbiEEESA_
00000000001b8394 T _ZN19llama_memory_hybridC2ERK11llama_model9ggml_typeS3_bjjj14llama_swa_typeS3_S3_jjbbRKNSt6__ndk18functionIFbiEEESA_
00000000001b9b84 W _ZN19llama_memory_hybridD0Ev
00000000001b9b20 W _ZN19llama_memory_hybridD2Ev
00000000002965bc T _ZN19llm_build_chameleonC1ERK11llama_modelRK16llm_graph_params
00000000002965bc T _ZN19llm_build_chameleonC2ERK11llama_modelRK16llm_graph_params
0000000000296c68 W _ZN19llm_build_chameleonD0Ev
00000000002971a8 T _ZN19llm_build_codeshellC1ERK11llama_modelRK16llm_graph_params
00000000002971a8 T _ZN19llm_build_codeshellC2ERK11llama_modelRK16llm_graph_params
0000000000297684 W _ZN19llm_build_codeshellD0Ev
000000000029811c T _ZN19llm_build_command_rC1ERK11llama_modelRK16llm_graph_params
000000000029811c T _ZN19llm_build_command_rC2ERK11llama_modelRK16llm_graph_params
000000000029863c W _ZN19llm_build_command_rD0Ev
0000000000299840 T _ZN19llm_build_deepseek2C1ERK11llama_modelRK16llm_graph_params
0000000000299840 T _ZN19llm_build_deepseek2C2ERK11llama_modelRK16llm_graph_params
000000000029a8d4 W _ZN19llm_build_deepseek2D0Ev
00000000002a1960 T _ZN19llm_build_falcon_h1C1ERK11llama_modelRK16llm_graph_params
00000000002a1960 T _ZN19llm_build_falcon_h1C2ERK11llama_modelRK16llm_graph_params
00000000002a1ebc W _ZN19llm_build_falcon_h1D0Ev
00000000002ab2bc T _ZN19llm_build_internlm2C1ERK11llama_modelRK16llm_graph_params
00000000002ab2bc T _ZN19llm_build_internlm2C2ERK11llama_modelRK16llm_graph_params
00000000002ab798 W _ZN19llm_build_internlm2D0Ev
00000000002af59c T _ZN19llm_build_llada_moeC1ERK11llama_modelRK16llm_graph_params
00000000002af59c T _ZN19llm_build_llada_moeC2ERK11llama_modelRK16llm_graph_params
00000000002afb10 W _ZN19llm_build_llada_moeD0Ev
00000000002b1d3c T _ZN19llm_build_maincoderC1ERK11llama_modelRK16llm_graph_params
00000000002b1d3c T _ZN19llm_build_maincoderC2ERK11llama_modelRK16llm_graph_params
00000000002b2298 W _ZN19llm_build_maincoderD0Ev
00000000002b9d24 T _ZN19llm_build_paddleocrC1ERK11llama_modelRK16llm_graph_params
00000000002b9d24 T _ZN19llm_build_paddleocrC2ERK11llama_modelRK16llm_graph_params
00000000002ba214 W _ZN19llm_build_paddleocrD0Ev
00000000002c3b68 T _ZN19llm_build_qwen35moe10build_qkvzEP11ggml_tensori
00000000002c3940 T _ZN19llm_build_qwen35moe15build_layer_ffnEP11ggml_tensori
00000000002c3430 T _ZN19llm_build_qwen35moe16build_layer_attnEP23llm_graph_input_attn_kvP11ggml_tensorS3_Pii
00000000002c3c48 T _ZN19llm_build_qwen35moe16build_norm_gatedEP11ggml_tensorS1_S1_i
00000000002c2578 T _ZN19llm_build_qwen35moe23build_layer_attn_linearEP18llm_graph_input_rsP11ggml_tensori
00000000002c2174 T _ZN19llm_build_qwen35moeC1ERK11llama_modelRK16llm_graph_params
00000000002c2174 T _ZN19llm_build_qwen35moeC2ERK11llama_modelRK16llm_graph_params
00000000002c3ca4 W _ZN19llm_build_qwen35moeD0Ev
00000000002c5a48 T _ZN19llm_build_qwen3next10build_qkvzEP11ggml_tensori
00000000002c57ac T _ZN19llm_build_qwen3next15build_layer_ffnEP11ggml_tensori
00000000002c52a8 T _ZN19llm_build_qwen3next16build_layer_attnEP23llm_graph_input_attn_kvP11ggml_tensorS3_i
00000000002c59ec T _ZN19llm_build_qwen3next16build_norm_gatedEP11ggml_tensorS1_S1_i
00000000002c45f8 T _ZN19llm_build_qwen3next23build_layer_attn_linearEP18llm_graph_input_rsP11ggml_tensori
00000000002c42a0 T _ZN19llm_build_qwen3nextC1ERK11llama_modelRK16llm_graph_params
00000000002c42a0 T _ZN19llm_build_qwen3nextC2ERK11llama_modelRK16llm_graph_params
00000000002c5e50 W _ZN19llm_build_qwen3nextD0Ev
00000000002cb9cc T _ZN19llm_build_starcoderC1ERK11llama_modelRK16llm_graph_params
00000000002cb9cc T _ZN19llm_build_starcoderC2ERK11llama_modelRK16llm_graph_params
00000000002cbe40 W _ZN19llm_build_starcoderD0Ev
00000000002cd8cc T _ZN19llm_build_t5encoderC1ERK11llama_modelRK16llm_graph_params
00000000002cd8cc T _ZN19llm_build_t5encoderC2ERK11llama_modelRK16llm_graph_params
00000000002cd8fc W _ZN19llm_build_t5encoderD0Ev
0000000000191fec T _ZN19llm_graph_input_cls9set_inputEPK12llama_ubatch
000000000019e300 W _ZN19llm_graph_input_clsC2ERK13llama_cparams8llm_arch
000000000019cb34 W _ZN19llm_graph_input_clsD0Ev
000000000019cb00 W _ZN19llm_graph_input_clsD2Ev
0000000000191424 T _ZN19llm_graph_input_pos9can_reuseERK16llm_graph_params
0000000000191214 T _ZN19llm_graph_input_pos9set_inputEPK12llama_ubatch
000000000019c9d0 W _ZN19llm_graph_input_posD0Ev
0000000000248038 W _ZN19quantize_state_implC2ERK11llama_modelPK27llama_model_quantize_params
0000000000248264 W _ZN19quantize_state_implD2Ev
000000000017be5c T _ZN20llama_grammar_parser10parse_ruleEPKc
00000000001784d0 T _ZN20llama_grammar_parser13get_symbol_idEPKcm
0000000000178e98 T _ZN20llama_grammar_parser14parse_sequenceEPKcRKNSt6__ndk112basic_stringIcNS2_11char_traitsIcEENS2_9allocatorIcEEEERNS2_6vectorI21llama_grammar_elementNS6_ISC_EEEEb
0000000000178a90 T _ZN20llama_grammar_parser16parse_alternatesEPKcRKNSt6__ndk112basic_stringIcNS2_11char_traitsIcEENS2_9allocatorIcEEEEjb
00000000001786b8 T _ZN20llama_grammar_parser18generate_symbol_idERKNSt6__ndk112basic_stringIcNS0_11char_traitsIcEENS0_9allocatorIcEEEE
000000000017c338 T _ZN20llama_grammar_parser5parseEPKc
000000000017c75c T _ZN20llama_grammar_parser5printEP7__sFILE
00000000001789a0 T _ZN20llama_grammar_parser8add_ruleEjRKNSt6__ndk16vectorI21llama_grammar_elementNS0_9allocatorIS2_EEEE
0000000000180c48 W _ZN20llama_grammar_parserD2Ev
000000000017413c W _ZN20llama_io_read_buffer4readEm
00000000001741fc W _ZN20llama_io_read_buffer7n_bytesEv
00000000001741c0 W _ZN20llama_io_read_buffer7read_toEPvm
0000000000174134 W _ZN20llama_io_read_bufferD0Ev
0000000000173fdc W _ZN20llama_io_write_dummy12write_tensorEPK11ggml_tensormm
0000000000173fcc W _ZN20llama_io_write_dummy5writeEPKvm
0000000000173fec W _ZN20llama_io_write_dummy7n_bytesEv
0000000000173fc4 W _ZN20llama_io_write_dummyD0Ev
00000000002946d8 T _ZN20llm_build_bailingmoeC1ERK11llama_modelRK16llm_graph_params
00000000002946d8 T _ZN20llm_build_bailingmoeC2ERK11llama_modelRK16llm_graph_params
0000000000294c04 W _ZN20llm_build_bailingmoeD0Ev
00000000002a0108 T _ZN20llm_build_exaone_moeC1ERK11llama_modelRK16llm_graph_params
00000000002a0108 T _ZN20llm_build_exaone_moeC2ERK11llama_modelRK16llm_graph_params
00000000002a07dc W _ZN20llm_build_exaone_moeD0Ev
00000000002b2308 T _ZN20llm_build_mamba_base17build_mamba_layerEP18llm_graph_input_rsP11ggml_tensorRK11llama_modelRK12llama_ubatchi
00000000002b22d8 T _ZN20llm_build_mamba_baseC1ERK16llm_graph_params
00000000002b22d8 T _ZN20llm_build_mamba_baseC2ERK16llm_graph_params
00000000002b3444 W _ZN20llm_build_mamba_baseD0Ev
00000000002b39ec T _ZN20llm_build_mimo2_iswaC1ERK11llama_modelRK16llm_graph_params
00000000002b39ec T _ZN20llm_build_mimo2_iswaC2ERK11llama_modelRK16llm_graph_params
00000000002b3fe4 W _ZN20llm_build_mimo2_iswaD0Ev
00000000002b4b10 T _ZN20llm_build_minimax_m2C1ERK11llama_modelRK16llm_graph_params
00000000002b4b10 T _ZN20llm_build_minimax_m2C2ERK11llama_modelRK16llm_graph_params
00000000002b5100 W _ZN20llm_build_minimax_m2D0Ev
00000000002b6708 T _ZN20llm_build_nemotron_h15build_ffn_layerEP11ggml_tensorRK11llama_modeli
00000000002b65c0 T _ZN20llm_build_nemotron_h21build_attention_layerEP11ggml_tensorP23llm_graph_input_attn_kvRK11llama_modelli
00000000002b62d8 T _ZN20llm_build_nemotron_hC1ERK11llama_modelRK16llm_graph_params
00000000002b62d8 T _ZN20llm_build_nemotron_hC2ERK11llama_modelRK16llm_graph_params
00000000002b6984 W _ZN20llm_build_nemotron_hD0Ev
00000000002c5e90 T _ZN20llm_build_qwen3vlmoeC1ERK11llama_modelRK16llm_graph_params
00000000002c5e90 T _ZN20llm_build_qwen3vlmoeC2ERK11llama_modelRK16llm_graph_params
00000000002c64bc W _ZN20llm_build_qwen3vlmoeD0Ev
00000000002c758c T _ZN20llm_build_rwkv6_baseC1ERK11llama_modelRK16llm_graph_params
00000000002c758c T _ZN20llm_build_rwkv6_baseC2ERK11llama_modelRK16llm_graph_params
00000000002c822c W _ZN20llm_build_rwkv6_baseD0Ev
00000000002c8870 T _ZN20llm_build_rwkv6qwen2C1ERK11llama_modelRK16llm_graph_params
00000000002c8870 T _ZN20llm_build_rwkv6qwen2C2ERK11llama_modelRK16llm_graph_params
00000000002c8cf0 W _ZN20llm_build_rwkv6qwen2D0Ev
00000000002c8d30 T _ZN20llm_build_rwkv7_baseC1ERK11llama_modelRK16llm_graph_params
00000000002c8d30 T _ZN20llm_build_rwkv7_baseC2ERK11llama_modelRK16llm_graph_params
00000000002c9744 W _ZN20llm_build_rwkv7_baseD0Ev
00000000002cbe80 T _ZN20llm_build_starcoder2C1ERK11llama_modelRK16llm_graph_params
00000000002cbe80 T _ZN20llm_build_starcoder2C2ERK11llama_modelRK16llm_graph_params
00000000002cc35c W _ZN20llm_build_starcoder2D0Ev
00000000001911ac T _ZN20llm_graph_input_embd9can_reuseERK16llm_graph_params
00000000001910e4 T _ZN20llm_graph_input_embd9set_inputEPK12llama_ubatch
000000000019c9c8 W _ZN20llm_graph_input_embdD0Ev
0000000000191cfc T _ZN20llm_graph_input_mean9set_inputEPK12llama_ubatch
000000000019e1e0 W _ZN20llm_graph_input_meanC2ERK13llama_cparams
000000000019cab0 W _ZN20llm_graph_input_meanD0Ev
000000000019ca7c W _ZN20llm_graph_input_meanD2Ev
0000000000274b44 W _ZN20llm_tokenizer_plamo25buildERK11llama_vocab
0000000000275f00 W _ZN20llm_tokenizer_plamo2D0Ev
0000000000275dbc W _ZN20llm_tokenizer_plamo2D2Ev
0000000000174090 W _ZN21llama_io_write_buffer12write_tensorEPK11ggml_tensormm
0000000000173ffc W _ZN21llama_io_write_buffer5writeEPKvm
000000000017412c W _ZN21llama_io_write_buffer7n_bytesEv
0000000000173ff4 W _ZN21llama_io_write_bufferD0Ev
0000000000251a24 W _ZN21llama_sampler_backend8get_nameEv
000000000024eb4c W _ZN21llama_sampler_backendC2EPKc
000000000025814c W _ZN21llama_sampler_backendD2Ev
0000000000294c44 T _ZN21llm_build_bailingmoe2C1ERK11llama_modelRK16llm_graph_params
0000000000294c44 T _ZN21llm_build_bailingmoe2C2ERK11llama_modelRK16llm_graph_params
00000000002952bc W _ZN21llm_build_bailingmoe2D0Ev
00000000002a2f28 T _ZN21llm_build_gemma2_iswaC1ERK11llama_modelRK16llm_graph_params
00000000002a2f28 T _ZN21llm_build_gemma2_iswaC2ERK11llama_modelRK16llm_graph_params
00000000002a34c8 W _ZN21llm_build_gemma2_iswaD0Ev
00000000002a6b58 T _ZN21llm_build_gemma4_iswa19build_inp_per_layerEv
00000000002a6da8 T _ZN21llm_build_gemma4_iswa24project_per_layer_inputsEP11ggml_tensorS1_
00000000002a5e30 T _ZN21llm_build_gemma4_iswaC1ERK11llama_modelRK16llm_graph_params
00000000002a5e30 T _ZN21llm_build_gemma4_iswaC2ERK11llama_modelRK16llm_graph_params
00000000002a6ee0 W _ZN21llm_build_gemma4_iswaD0Ev
00000000002aac40 T _ZN21llm_build_hunyuan_moeC1ERK11llama_modelRK16llm_graph_params
00000000002aac40 T _ZN21llm_build_hunyuan_moeC2ERK11llama_modelRK16llm_graph_params
00000000002ab27c W _ZN21llm_build_hunyuan_moeD0Ev
00000000002ac5cc T _ZN21llm_build_kimi_linearC1ERK11llama_modelRK16llm_graph_params
00000000002ac5cc T _ZN21llm_build_kimi_linearC2ERK11llama_modelRK16llm_graph_params
00000000002adadc W _ZN21llm_build_kimi_linearD0Ev
00000000002b57d4 T _ZN21llm_build_modern_bertC1ERK11llama_modelRK16llm_graph_params
00000000002b57d4 T _ZN21llm_build_modern_bertC2ERK11llama_modelRK16llm_graph_params
00000000002b5cc4 W _ZN21llm_build_modern_bertD0Ev
00000000002cc39c T _ZN21llm_build_step35_iswaC1ERK11llama_modelRK16llm_graph_params
00000000002cc39c T _ZN21llm_build_step35_iswaC2ERK11llama_modelRK16llm_graph_params
00000000002ccc80 W _ZN21llm_build_step35_iswaD0Ev
00000000001b26d4 T _ZN22llama_kv_cache_context4nextEv
00000000001b270c T _ZN22llama_kv_cache_context5applyEv
00000000001b2048 T _ZN22llama_kv_cache_contextC1E19llama_memory_status
00000000001b2084 T _ZN22llama_kv_cache_contextC1EP14llama_kv_cache
00000000001b2528 T _ZN22llama_kv_cache_contextC1EP14llama_kv_cacheNSt6__ndk16vectorINS0_9slot_infoENS2_9allocatorIS4_EEEENS3_I12llama_ubatchNS5_IS8_EEEE
00000000001b2498 T _ZN22llama_kv_cache_contextC1EP14llama_kv_cacheP13llama_contextbNS0_16stream_copy_infoE
00000000001b2048 T _ZN22llama_kv_cache_contextC2E19llama_memory_status
00000000001b2084 T _ZN22llama_kv_cache_contextC2EP14llama_kv_cache
00000000001b2528 T _ZN22llama_kv_cache_contextC2EP14llama_kv_cacheNSt6__ndk16vectorINS0_9slot_infoENS2_9allocatorIS4_EEEENS3_I12llama_ubatchNS5_IS8_EEEE
00000000001b2498 T _ZN22llama_kv_cache_contextC2EP14llama_kv_cacheP13llama_contextbNS0_16stream_copy_infoE
00000000001b26ac T _ZN22llama_kv_cache_contextD0Ev
00000000001b2598 T _ZN22llama_kv_cache_contextD1Ev
00000000001b2598 T _ZN22llama_kv_cache_contextD2Ev
00000000001bdbc0 T _ZN22llama_memory_recurrent10init_batchER18llama_batch_allocrjb
00000000001bf830 T _ZN22llama_memory_recurrent10state_readER15llama_io_read_iij
00000000001be29c T _ZN22llama_memory_recurrent11init_updateEP13llama_contextb
00000000001bffa0 T _ZN22llama_memory_recurrent15state_read_dataER15llama_io_read_ij
00000000001bf964 T _ZN22llama_memory_recurrent15state_read_metaER15llama_io_read_iji
00000000001bc354 T _ZN22llama_memory_recurrent5clearEb
00000000001bd00c T _ZN22llama_memory_recurrent6expandEj
00000000001bd024 T _ZN22llama_memory_recurrent6resizeEj
00000000001bc740 T _ZN22llama_memory_recurrent6seq_cpEiiii
00000000001bc420 T _ZN22llama_memory_recurrent6seq_rmEiii
00000000001bda40 T _ZN22llama_memory_recurrent6shrinkEj
00000000001be0dc T _ZN22llama_memory_recurrent7prepareERKNSt6__ndk16vectorI12llama_ubatchNS0_9allocatorIS2_EEEE
00000000001bcd10 T _ZN22llama_memory_recurrent7seq_addEiiii
00000000001bcdbc T _ZN22llama_memory_recurrent7seq_divEiiii
00000000001bcb34 T _ZN22llama_memory_recurrent8seq_keepEi
00000000001bc938 T _ZN22llama_memory_recurrent9copy_cellEii
00000000001be2e8 T _ZN22llama_memory_recurrent9find_slotERK12llama_ubatch
00000000001be244 T _ZN22llama_memory_recurrent9init_fullEv
00000000001bbb40 T _ZN22llama_memory_recurrentC1ERK11llama_model9ggml_typeS3_bjjRKNSt6__ndk18functionIFbiEEE
00000000001bbb40 T _ZN22llama_memory_recurrentC2ERK11llama_model9ggml_typeS3_bjjRKNSt6__ndk18functionIFbiEEE
00000000001c0870 W _ZN22llama_memory_recurrentD0Ev
00000000001c078c W _ZN22llama_memory_recurrentD2Ev
0000000000297c18 T _ZN22llm_build_cohere2_iswaC1ERK11llama_modelRK16llm_graph_params
0000000000297c18 T _ZN22llm_build_cohere2_iswaC2ERK11llama_modelRK16llm_graph_params
00000000002980dc W _ZN22llm_build_cohere2_iswaD0Ev
000000000029d8b0 T _ZN22llm_build_dflash_draftC1ERK11llama_modelRK16llm_graph_params
000000000029d8b0 T _ZN22llm_build_dflash_draftC2ERK11llama_modelRK16llm_graph_params
000000000029e3d4 W _ZN22llm_build_dflash_draftD0Ev
000000000029f020 T _ZN22llm_build_ernie4_5_moeC1ERK11llama_modelRK16llm_graph_params
000000000029f020 T _ZN22llm_build_ernie4_5_moeC2ERK11llama_modelRK16llm_graph_params
000000000029f700 W _ZN22llm_build_ernie4_5_moeD0Ev
00000000002a5adc T _ZN22llm_build_gemma3n_iswa13altup_correctEP11ggml_tensorS1_i
00000000002a56e8 T _ZN22llm_build_gemma3n_iswa13altup_predictEP11ggml_tensori
00000000002a5a10 T _ZN22llm_build_gemma3n_iswa13gaussian_topkEP11ggml_tensor
00000000002a56b0 T _ZN22llm_build_gemma3n_iswa14calc_magnitudeEP11ggml_tensor
00000000002a535c T _ZN22llm_build_gemma3n_iswa19build_inp_per_layerEv
00000000002a5578 T _ZN22llm_build_gemma3n_iswa24project_per_layer_inputsEP11ggml_tensorS1_
00000000002a5d54 T _ZN22llm_build_gemma3n_iswa31altup_compute_router_modalitiesEP11ggml_tensori
00000000002a5938 T _ZN22llm_build_gemma3n_iswa6laurelEP11ggml_tensori
00000000002a41cc T _ZN22llm_build_gemma3n_iswaC1ERK11llama_modelRK16llm_graph_params
00000000002a41cc T _ZN22llm_build_gemma3n_iswaC2ERK11llama_modelRK16llm_graph_params
00000000002a5df0 W _ZN22llm_build_gemma3n_iswaD0Ev
00000000002ca2ec W _ZN22llm_build_smallthinkerILb0EEC1ERK11llama_modelRK16llm_graph_params
00000000002ca2ec W _ZN22llm_build_smallthinkerILb0EEC2ERK11llama_modelRK16llm_graph_params
00000000002cae2c W _ZN22llm_build_smallthinkerILb0EED0Ev
00000000002ca88c W _ZN22llm_build_smallthinkerILb1EEC1ERK11llama_modelRK16llm_graph_params
00000000002ca88c W _ZN22llm_build_smallthinkerILb1EEC2ERK11llama_modelRK16llm_graph_params
00000000002cae6c W _ZN22llm_build_smallthinkerILb1EED0Ev
0000000000192e84 T _ZN22llm_graph_input_attn_k9can_reuseERK16llm_graph_params
0000000000192e3c T _ZN22llm_graph_input_attn_k9set_inputEPK12llama_ubatch
000000000019d938 W _ZN22llm_graph_input_attn_kC2ERK13llama_hparamsRK13llama_cparamsPK22llama_kv_cache_context
000000000019ccd0 W _ZN22llm_graph_input_attn_kD0Ev
000000000019cc9c W _ZN22llm_graph_input_attn_kD2Ev
000000000029c644 T _ZN22llm_graph_input_dflash9set_inputEPK12llama_ubatch
000000000029e3cc W _ZN22llm_graph_input_dflashD0Ev
00000000002aa5f0 T _ZN23llm_build_hunyuan_denseC1ERK11llama_modelRK16llm_graph_params
00000000002aa5f0 T _ZN23llm_build_hunyuan_denseC2ERK11llama_modelRK16llm_graph_params
00000000002aac00 W _ZN23llm_build_hunyuan_denseD0Ev
0000000000192dc0 T _ZN23llm_graph_input_attn_kv9can_reuseERK16llm_graph_params
0000000000192c54 T _ZN23llm_graph_input_attn_kv9set_inputEPK12llama_ubatch
000000000019d7b8 W _ZN23llm_graph_input_attn_kvC2ERK13llama_hparamsRK13llama_cparamsPK22llama_kv_cache_contextPK15llama_tree_mask
000000000019cc4c W _ZN23llm_graph_input_attn_kvD0Ev
000000000019cc18 W _ZN23llm_graph_input_attn_kvD2Ev
00000000001afbec T _ZN23llm_graph_input_k_shift9set_inputEPK12llama_ubatch
00000000001b2df4 W _ZN23llm_graph_input_k_shiftD0Ev
0000000000191ce0 T _ZN23llm_graph_input_out_ids9can_reuseERK16llm_graph_params
0000000000191b8c T _ZN23llm_graph_input_out_ids9set_inputEPK12llama_ubatch
000000000019e07c W _ZN23llm_graph_input_out_idsC2ERK13llama_hparamsRK13llama_cparamsj
000000000019ca2c W _ZN23llm_graph_input_out_idsD0Ev
000000000019c9f8 W _ZN23llm_graph_input_out_idsD2Ev
00000000001ba25c T _ZN24llama_memory_hybrid_iswa10init_batchER18llama_batch_allocrjb
00000000001baec4 T _ZN24llama_memory_hybrid_iswa10state_readER15llama_io_read_iij
00000000001ba938 T _ZN24llama_memory_hybrid_iswa11init_updateEP13llama_contextb
00000000001bb83c W _ZN24llama_memory_hybrid_iswa19set_force_split_seqEb
00000000001ba9b8 T _ZN24llama_memory_hybrid_iswa5clearEb
00000000001baa68 T _ZN24llama_memory_hybrid_iswa6seq_cpEiiii
00000000001ba9f8 T _ZN24llama_memory_hybrid_iswa6seq_rmEiii
00000000001bab10 T _ZN24llama_memory_hybrid_iswa7seq_addEiiii
00000000001bab78 T _ZN24llama_memory_hybrid_iswa7seq_divEiiii
00000000001baad0 T _ZN24llama_memory_hybrid_iswa8seq_keepEi
00000000001ba8e0 T _ZN24llama_memory_hybrid_iswa9init_fullEv
00000000001b9eec T _ZN24llama_memory_hybrid_iswaC1ERK11llama_model9ggml_typeS3_bbjjjS3_S3_jjbbRKNSt6__ndk18functionIFbiEEES9_
00000000001b9eec T _ZN24llama_memory_hybrid_iswaC2ERK11llama_model9ggml_typeS3_bbjjjS3_S3_jjbbRKNSt6__ndk18functionIFbiEEES9_
00000000001bb7d8 W _ZN24llama_memory_hybrid_iswaD0Ev
00000000001bb774 W _ZN24llama_memory_hybrid_iswaD2Ev
000000000029c344 T _ZN24llm_build_delta_net_base15build_delta_netEP11ggml_tensorS1_S1_S1_S1_S1_i
000000000029bfc8 T _ZN24llm_build_delta_net_base21build_delta_net_fusedEP11ggml_tensorS1_S1_S1_S1_S1_i
000000000029a944 T _ZN24llm_build_delta_net_base24build_delta_net_chunkingEP11ggml_tensorS1_S1_S1_S1_S1_i
000000000029bad0 T _ZN24llm_build_delta_net_base30build_delta_net_autoregressiveEP11ggml_tensorS1_S1_S1_S1_S1_i
000000000029a914 T _ZN24llm_build_delta_net_baseC1ERK16llm_graph_params
000000000029a914 T _ZN24llm_build_delta_net_baseC2ERK16llm_graph_params
000000000029c604 W _ZN24llm_build_delta_net_baseD0Ev
00000000002a8cfc T _ZN24llm_build_granite_hybrid15build_layer_ffnEP11ggml_tensorS1_RK11llama_modeli
00000000002a8adc T _ZN24llm_build_granite_hybrid21build_attention_layerEP11ggml_tensorS1_P23llm_graph_input_attn_kvRK11llama_modelli
00000000002a87e0 T _ZN24llm_build_granite_hybridC1ERK11llama_modelRK16llm_graph_params
00000000002a87e0 T _ZN24llm_build_granite_hybridC2ERK11llama_modelRK16llm_graph_params
00000000002a8fac W _ZN24llm_build_granite_hybridD0Ev
00000000002ba254 T _ZN24llm_build_pangu_embeddedC1ERK11llama_modelRK16llm_graph_params
00000000002ba254 T _ZN24llm_build_pangu_embeddedC2ERK11llama_modelRK16llm_graph_params
00000000002ba74c W _ZN24llm_build_pangu_embeddedD0Ev
0000000000193ec8 T _ZN24llm_graph_input_sampling9can_reuseERK16llm_graph_params
0000000000193c24 T _ZN24llm_graph_input_sampling9set_inputEPK12llama_ubatch
000000000019d0b8 W _ZN24llm_graph_input_samplingD0Ev
000000000019d098 W _ZN24llm_graph_input_samplingD2Ev
00000000002a241c T _ZN25llm_build_gemma_embeddingC1ERK11llama_modelRK16llm_graph_params
00000000002a241c T _ZN25llm_build_gemma_embeddingC2ERK11llama_modelRK16llm_graph_params
00000000002a29d4 W _ZN25llm_build_gemma_embeddingD0Ev
00000000002b8c88 T _ZN25llm_build_openai_moe_iswaC1ERK11llama_modelRK16llm_graph_params
00000000002b8c88 T _ZN25llm_build_openai_moe_iswaC2ERK11llama_modelRK16llm_graph_params
00000000002b9174 W _ZN25llm_build_openai_moe_iswaD0Ev
0000000000191448 T _ZN25llm_graph_input_attn_temp9set_inputEPK12llama_ubatch
000000000019c9d8 W _ZN25llm_graph_input_attn_tempD0Ev
000000000026e030 W _ZN25llm_tokenizer_bpe_session14add_new_bigramEii
00000000002687c0 W _ZN25llm_tokenizer_bpe_session6appendEiRNSt6__ndk16vectorIiNS0_9allocatorIiEEEE
0000000000267384 W _ZN25llm_tokenizer_bpe_session8tokenizeERKNSt6__ndk112basic_stringIcNS0_11char_traitsIcEENS0_9allocatorIcEEEERNS0_6vectorIiNS4_IiEEEE
00000000002689e4 W _ZN25llm_tokenizer_bpe_sessionD2Ev
000000000026d074 W _ZN25llm_tokenizer_spm_session14try_add_bigramEii
0000000000266e34 W _ZN25llm_tokenizer_spm_session8tokenizeERKNSt6__ndk112basic_stringIcNS0_11char_traitsIcEENS0_9allocatorIcEEEERNS0_6vectorIiNS4_IiEEEE
000000000026d30c W _ZN25llm_tokenizer_spm_session9resegmentER10llm_symbolRNSt6__ndk16vectorIiNS2_9allocatorIiEEEE
00000000002671e0 W _ZN25llm_tokenizer_spm_sessionD2Ev
000000000026f644 W _ZN25llm_tokenizer_ugm_session16normalize_prefixERKNSt6__ndk112basic_stringIcNS0_11char_traitsIcEENS0_9allocatorIcEEEEm
000000000026925c W _ZN25llm_tokenizer_ugm_session8tokenizeERKNSt6__ndk112basic_stringIcNS0_11char_traitsIcEENS0_9allocatorIcEEEERNS0_6vectorIiNS4_IiEEEE
000000000026f2c8 W _ZN25llm_tokenizer_ugm_session9normalizeERKNSt6__ndk112basic_stringIcNS0_11char_traitsIcEENS0_9allocatorIcEEEEPS6_
000000000026ecac W _ZN25llm_tokenizer_wpm_session10preprocessERKNSt6__ndk112basic_stringIcNS0_11char_traitsIcEENS0_9allocatorIcEEEE
0000000000268a9c W _ZN25llm_tokenizer_wpm_session8tokenizeERKNSt6__ndk112basic_stringIcNS0_11char_traitsIcEENS0_9allocatorIcEEEERNS0_6vectorIiNS4_IiEEEE
00000000002cd93c T _ZN26llm_build_wavtokenizer_decC1ERK11llama_modelRK16llm_graph_params
00000000002cd93c T _ZN26llm_build_wavtokenizer_decC2ERK11llama_modelRK16llm_graph_params
00000000002cdf68 W _ZN26llm_build_wavtokenizer_decD0Ev
0000000000193148 T _ZN26llm_graph_input_attn_cross9set_inputEPK12llama_ubatch
000000000019cda8 W _ZN26llm_graph_input_attn_crossD0Ev
00000000001924c0 T _ZN26llm_graph_input_cross_embd9set_inputEPK12llama_ubatch
000000000019cb8c W _ZN26llm_graph_input_cross_embdD0Ev
00000000001934c4 T _ZN26llm_graph_input_mem_hybrid9can_reuseERK16llm_graph_params
0000000000193390 T _ZN26llm_graph_input_mem_hybrid9set_inputEPK12llama_ubatch
000000000019e7a0 W _ZN26llm_graph_input_mem_hybridC2ERK13llama_cparamsNSt6__ndk110unique_ptrI23llm_graph_input_attn_kvNS3_14default_deleteIS5_EEEENS4_I18llm_graph_input_rsNS6_IS9_EEEEPK27llama_memory_hybrid_context
000000000019ce2c W _ZN26llm_graph_input_mem_hybridD0Ev
000000000019cdb0 W _ZN26llm_graph_input_mem_hybridD2Ev
00000000001916b8 T _ZN26llm_graph_input_pos_bucket9set_inputEPK12llama_ubatch
000000000019c9e8 W _ZN26llm_graph_input_pos_bucketD0Ev
000000000026998c W _ZN26llm_tokenizer_rwkv_session8tokenizeERKNSt6__ndk112basic_stringIcNS0_11char_traitsIcEENS0_9allocatorIcEEEERNS0_6vectorIiNS4_IiEEEE
00000000001b7e68 T _ZN27llama_kv_cache_iswa_context4nextEv
00000000001b7ed8 T _ZN27llama_kv_cache_iswa_context5applyEv
00000000001b75ec T _ZN27llama_kv_cache_iswa_contextC1E19llama_memory_status
00000000001b7614 T _ZN27llama_kv_cache_iswa_contextC1EP19llama_kv_cache_iswa
00000000001b7874 T _ZN27llama_kv_cache_iswa_contextC1EP19llama_kv_cache_iswaNSt6__ndk16vectorIN14llama_kv_cache9slot_infoENS2_9allocatorIS5_EEEES8_NS3_I12llama_ubatchNS6_IS9_EEEE
00000000001b7734 T _ZN27llama_kv_cache_iswa_contextC1EP19llama_kv_cache_iswaP13llama_contextb
00000000001b75ec T _ZN27llama_kv_cache_iswa_contextC2E19llama_memory_status
00000000001b7614 T _ZN27llama_kv_cache_iswa_contextC2EP19llama_kv_cache_iswa
00000000001b7874 T _ZN27llama_kv_cache_iswa_contextC2EP19llama_kv_cache_iswaNSt6__ndk16vectorIN14llama_kv_cache9slot_infoENS2_9allocatorIS5_EEEES8_NS3_I12llama_ubatchNS6_IS9_EEEE
00000000001b7734 T _ZN27llama_kv_cache_iswa_contextC2EP19llama_kv_cache_iswaP13llama_contextb
00000000001b7e40 T _ZN27llama_kv_cache_iswa_contextD0Ev
00000000001b7d60 T _ZN27llama_kv_cache_iswa_contextD1Ev
00000000001b7d60 T _ZN27llama_kv_cache_iswa_contextD2Ev
00000000001b9a0c T _ZN27llama_memory_hybrid_context4nextEv
00000000001b9a7c T _ZN27llama_memory_hybrid_context5applyEv
00000000001b92e8 T _ZN27llama_memory_hybrid_contextC1E19llama_memory_status
00000000001b9310 T _ZN27llama_memory_hybrid_contextC1EP19llama_memory_hybrid
00000000001b9570 T _ZN27llama_memory_hybrid_contextC1EP19llama_memory_hybridNSt6__ndk16vectorIN14llama_kv_cache9slot_infoENS2_9allocatorIS5_EEEENS3_I12llama_ubatchNS6_IS9_EEEE
00000000001b9430 T _ZN27llama_memory_hybrid_contextC1EP19llama_memory_hybridP13llama_contextb
00000000001b92e8 T _ZN27llama_memory_hybrid_contextC2E19llama_memory_status
00000000001b9310 T _ZN27llama_memory_hybrid_contextC2EP19llama_memory_hybrid
00000000001b9570 T _ZN27llama_memory_hybrid_contextC2EP19llama_memory_hybridNSt6__ndk16vectorIN14llama_kv_cache9slot_infoENS2_9allocatorIS5_EEEENS3_I12llama_ubatchNS6_IS9_EEEE
00000000001b9430 T _ZN27llama_memory_hybrid_contextC2EP19llama_memory_hybridP13llama_contextb
00000000001b9cd0 W _ZN27llama_memory_hybrid_contextD0Ev
00000000001b9bf0 W _ZN27llama_memory_hybrid_contextD2Ev
0000000000193014 T _ZN28llm_graph_input_attn_kv_iswa9can_reuseERK16llm_graph_params
0000000000192efc T _ZN28llm_graph_input_attn_kv_iswa9set_inputEPK12llama_ubatch
000000000019e588 W _ZN28llm_graph_input_attn_kv_iswaC2ERK13llama_hparamsRK13llama_cparamsPK27llama_kv_cache_iswa_context
000000000019cd54 W _ZN28llm_graph_input_attn_kv_iswaD0Ev
000000000019cd20 W _ZN28llm_graph_input_attn_kv_iswaD2Ev
0000000000193710 T _ZN28llm_graph_input_mem_hybrid_k9can_reuseERK16llm_graph_params
0000000000193634 T _ZN28llm_graph_input_mem_hybrid_k9set_inputEPK12llama_ubatch
000000000019e944 W _ZN28llm_graph_input_mem_hybrid_kC2ERK13llama_cparamsNSt6__ndk110unique_ptrI22llm_graph_input_attn_kNS3_14default_deleteIS5_EEEENS4_I18llm_graph_input_rsNS6_IS9_EEEEPK27llama_memory_hybrid_context
000000000019cf24 W _ZN28llm_graph_input_mem_hybrid_kD0Ev
000000000019cea8 W _ZN28llm_graph_input_mem_hybrid_kD2Ev
0000000000192514 T _ZN29llm_graph_input_attn_no_cache9set_inputEPK12llama_ubatch
000000000019e428 W _ZN29llm_graph_input_attn_no_cacheC2ERK13llama_hparamsRK13llama_cparams
000000000019cbc8 W _ZN29llm_graph_input_attn_no_cacheD0Ev
000000000019cb94 W _ZN29llm_graph_input_attn_no_cacheD2Ev
0000000000191b70 T _ZN29llm_graph_input_pos_bucket_kv9set_inputEPK12llama_ubatch
000000000019c9f0 W _ZN29llm_graph_input_pos_bucket_kvD0Ev
00000000001c0668 T _ZN30llama_memory_recurrent_context4nextEv
00000000001c06a0 T _ZN30llama_memory_recurrent_context5applyEv
00000000001c04f4 T _ZN30llama_memory_recurrent_contextC1E19llama_memory_status
00000000001c051c T _ZN30llama_memory_recurrent_contextC1EP22llama_memory_recurrent
00000000001c054c T _ZN30llama_memory_recurrent_contextC1EP22llama_memory_recurrentNSt6__ndk16vectorI12llama_ubatchNS2_9allocatorIS4_EEEE
00000000001c04f4 T _ZN30llama_memory_recurrent_contextC2E19llama_memory_status
00000000001c051c T _ZN30llama_memory_recurrent_contextC2EP22llama_memory_recurrent
00000000001c054c T _ZN30llama_memory_recurrent_contextC2EP22llama_memory_recurrentNSt6__ndk16vectorI12llama_ubatchNS2_9allocatorIS4_EEEE
00000000001c0640 T _ZN30llama_memory_recurrent_contextD0Ev
00000000001c0590 T _ZN30llama_memory_recurrent_contextD1Ev
00000000001c0590 T _ZN30llama_memory_recurrent_contextD2Ev
0000000000193a70 T _ZN31llm_graph_input_mem_hybrid_iswa9can_reuseERK16llm_graph_params
000000000019387c T _ZN31llm_graph_input_mem_hybrid_iswa9set_inputEPK12llama_ubatch
000000000019eae8 W _ZN31llm_graph_input_mem_hybrid_iswaC2ERK13llama_cparamsNSt6__ndk110unique_ptrI28llm_graph_input_attn_kv_iswaNS3_14default_deleteIS5_EEEENS4_I18llm_graph_input_rsNS6_IS9_EEEEPK32llama_memory_hybrid_iswa_context
000000000019d01c W _ZN31llm_graph_input_mem_hybrid_iswaD0Ev
000000000019cfa0 W _ZN31llm_graph_input_mem_hybrid_iswaD2Ev
00000000001bb690 T _ZN32llama_memory_hybrid_iswa_context4nextEv
00000000001bb700 T _ZN32llama_memory_hybrid_iswa_context5applyEv
00000000001baf2c T _ZN32llama_memory_hybrid_iswa_contextC1E19llama_memory_status
00000000001baf54 T _ZN32llama_memory_hybrid_iswa_contextC1EP24llama_memory_hybrid_iswa
00000000001bb1b4 T _ZN32llama_memory_hybrid_iswa_contextC1EP24llama_memory_hybrid_iswaNSt6__ndk16vectorIN14llama_kv_cache9slot_infoENS2_9allocatorIS5_EEEES8_NS3_I12llama_ubatchNS6_IS9_EEEE
00000000001bb074 T _ZN32llama_memory_hybrid_iswa_contextC1EP24llama_memory_hybrid_iswaP13llama_contextb
00000000001baf2c T _ZN32llama_memory_hybrid_iswa_contextC2E19llama_memory_status
00000000001baf54 T _ZN32llama_memory_hybrid_iswa_contextC2EP24llama_memory_hybrid_iswa
00000000001bb1b4 T _ZN32llama_memory_hybrid_iswa_contextC2EP24llama_memory_hybrid_iswaNSt6__ndk16vectorIN14llama_kv_cache9slot_infoENS2_9allocatorIS5_EEEES8_NS3_I12llama_ubatchNS6_IS9_EEEE
00000000001bb074 T _ZN32llama_memory_hybrid_iswa_contextC2EP24llama_memory_hybrid_iswaP13llama_contextb
00000000001bb924 W _ZN32llama_memory_hybrid_iswa_contextD0Ev
00000000001bb844 W _ZN32llama_memory_hybrid_iswa_contextD2Ev
0000000000151e5c T _ZN6LLM_KVC1E8llm_archPKc
0000000000151e5c T _ZN6LLM_KVC2E8llm_archPKc
00000000001d2740 W _ZN8GGUFMeta3GKVIbE17validate_overrideE28llama_model_kv_override_typePK23llama_model_kv_override
00000000001d25f0 W _ZN8GGUFMeta3GKVIbE6get_kvEPK12gguf_contexti
00000000001d2b28 W _ZN8GGUFMeta3GKVIfE17validate_overrideE28llama_model_kv_override_typePK23llama_model_kv_override
00000000001d29d8 W _ZN8GGUFMeta3GKVIfE6get_kvEPK12gguf_contexti
00000000001d509c W _ZN8GGUFMeta3GKVIiE17validate_overrideE28llama_model_kv_override_typePK23llama_model_kv_override
00000000001d4f4c W _ZN8GGUFMeta3GKVIiE6get_kvEPK12gguf_contexti
00000000001d2f10 W _ZN8GGUFMeta3GKVIjE17validate_overrideE28llama_model_kv_override_typePK23llama_model_kv_override
00000000001d2dc0 W _ZN8GGUFMeta3GKVIjE6get_kvEPK12gguf_contexti
00000000001d20cc W _ZN8GGUFMeta3GKVINS_9ArrayInfoEE6get_kvEPK12gguf_contexti
00000000001d337c W _ZN8GGUFMeta3GKVINSt6__ndk112basic_stringIcNS1_11char_traitsIcEENS1_9allocatorIcEEEEE17validate_overrideE28llama_model_kv_override_typePK23llama_model_kv_override
00000000001d31a8 W _ZN8GGUFMeta3GKVINSt6__ndk112basic_stringIcNS1_11char_traitsIcEENS1_9allocatorIcEEEEE6get_kvEPK12gguf_contexti
00000000001d4cb4 W _ZN8GGUFMeta3GKVItE17validate_overrideE28llama_model_kv_override_typePK23llama_model_kv_override
00000000001d4b64 W _ZN8GGUFMeta3GKVItE6get_kvEPK12gguf_contexti
000000000019f914 T _ZN9time_measC1ERlb
000000000019f914 T _ZN9time_measC2ERlb
000000000019f954 T _ZN9time_measD1Ev
000000000019f954 T _ZN9time_measD2Ev
00000000001c17d0 T _ZNK10llama_file13has_direct_ioEv
00000000001c17c4 T _ZNK10llama_file14read_alignmentEv
00000000001c1810 W _ZNK10llama_file4impl4seekEmi
00000000001c15f8 W _ZNK10llama_file4impl4tellEv
00000000001c1db8 W _ZNK10llama_file4impl9write_rawEPKvm
00000000001c1808 T _ZNK10llama_file4seekEmi
00000000001c17b8 T _ZNK10llama_file4sizeEv
00000000001c15f0 T _ZNK10llama_file4tellEv
00000000001c17ec T _ZNK10llama_file7file_idEv
00000000001c1db0 T _ZNK10llama_file9write_rawEPKvm
00000000001c1ef8 T _ZNK10llama_file9write_u32Ej
00000000001c2008 T _ZNK10llama_mmap4addrEv
00000000001c1ffc T _ZNK10llama_mmap4sizeEv
000000000023bf64 T _ZNK11llama_model10dev_outputEv
000000000023c2b4 T _ZNK11llama_model10get_tensorEPKc
000000000023a888 T _ZNK11llama_model10n_elementsEv
000000000023a894 T _ZNK11llama_model10print_infoEv
000000000023a3b4 T _ZNK11llama_model10split_modeEv
000000000023cd50 T _ZNK11llama_model11build_graphERK16llm_graph_params
000000000023bf70 T _ZNK11llama_model11select_buftEi
0000000000239518 T _ZNK11llama_model12n_gpu_layersEv
00000000001de17c T _ZNK11llama_model12tensor_splitEv
000000000023c43c T _ZNK11llama_model13create_memoryERK19llama_memory_paramsRK13llama_cparams
000000000023c3f8 T _ZNK11llama_model16get_rope_factorsERK13llama_cparamsi
000000000023a3c0 T _ZNK11llama_model16memory_breakdownEv
000000000023c370 T _ZNK11llama_model18get_rope_freq_baseERK13llama_cparamsi
000000000023c3b4 T _ZNK11llama_model19get_rope_freq_scaleERK13llama_cparamsi
000000000023c2a8 T _ZNK11llama_model20has_tensor_overridesEv
000000000023a364 T _ZNK11llama_model4descEv
000000000023a394 T _ZNK11llama_model4sizeEv
00000000001e533c T _ZNK11llama_model9arch_nameEv
000000000023bf34 T _ZNK11llama_model9dev_layerEi
0000000000239530 T _ZNK11llama_model9n_devicesEv
000000000023a3a0 T _ZNK11llama_model9n_tensorsEv
00000000001e53e8 T _ZNK11llama_model9type_nameEv
000000000026c9c4 T _ZNK11llama_vocab10detokenizeEPKiiPcibb
000000000026c9cc T _ZNK11llama_vocab10detokenizeERKNSt6__ndk16vectorIiNS0_9allocatorIiEEEEb
000000000026bc2c T _ZNK11llama_vocab10is_controlEi
000000000026bbe0 T _ZNK11llama_vocab10is_unknownEi
000000000026cb24 T _ZNK11llama_vocab10print_infoEv
000000000026c04c T _ZNK11llama_vocab10token_maskEv
000000000026c064 T _ZNK11llama_vocab11get_add_bosEv
000000000026c070 T _ZNK11llama_vocab11get_add_eosEv
000000000026c07c T _ZNK11llama_vocab11get_add_sepEv
000000000026ba34 T _ZNK11llama_vocab12get_pre_typeEv
000000000026bfec T _ZNK11llama_vocab12token_middleEv
000000000026bfe0 T _ZNK11llama_vocab12token_prefixEv
000000000026bff8 T _ZNK11llama_vocab12token_suffixEv
00000000002643ac T _ZNK11llama_vocab13byte_to_tokenEh
000000000026c0c4 T _ZNK11llama_vocab13find_bpe_rankERKNSt6__ndk112basic_stringIcNS0_11char_traitsIcEENS0_9allocatorIcEEEES8_
000000000026c0b8 T _ZNK11llama_vocab13max_token_lenEv
000000000026ba40 T _ZNK11llama_vocab13n_token_typesEv
000000000026be08 T _ZNK11llama_vocab13text_to_tokenERKNSt6__ndk112basic_stringIcNS0_11char_traitsIcEENS0_9allocatorIcEEEE
000000000026c01c T _ZNK11llama_vocab13token_fim_midEv
000000000026c028 T _ZNK11llama_vocab13token_fim_padEv
000000000026c004 T _ZNK11llama_vocab13token_fim_preEv
000000000026c034 T _ZNK11llama_vocab13token_fim_repEv
000000000026c040 T _ZNK11llama_vocab13token_fim_sepEv
000000000026c010 T _ZNK11llama_vocab13token_fim_sufEv
000000000026bd64 T _ZNK11llama_vocab13token_to_byteEi
000000000026c2b8 T _ZNK11llama_vocab14get_bpe_mergesEv
0000000000266c9c T _ZNK11llama_vocab14get_token_dataEi
000000000026bf24 T _ZNK11llama_vocab14token_get_attrEi
000000000026be60 T _ZNK11llama_vocab14token_get_textEi
000000000026c984 T _ZNK11llama_vocab14token_to_pieceEi
0000000000266cf4 T _ZNK11llama_vocab14token_to_pieceEiPciib
000000000026bc78 T _ZNK11llama_vocab15is_user_definedEi
000000000026bec8 T _ZNK11llama_vocab15token_get_scoreEi
000000000026c094 T _ZNK11llama_vocab16get_clean_spacesEv
000000000026c088 T _ZNK11llama_vocab17get_ignore_mergesEv
000000000026b9f8 T _ZNK11llama_vocab17get_tokenizer_preEv
000000000026b9c8 T _ZNK11llama_vocab19get_tokenizer_modelEv
000000000026c058 T _ZNK11llama_vocab20get_add_space_prefixEv
0000000000267378 T _ZNK11llama_vocab22get_escape_whitespacesEv
000000000026c698 T _ZNK11llama_vocab24get_precompiled_charsmapEv
000000000026c0a0 T _ZNK11llama_vocab28get_remove_extra_whitespacesEv
000000000026c0ac T _ZNK11llama_vocab30get_treat_whitespace_as_suffixEv
000000000026ad24 T _ZNK11llama_vocab4impl10detokenizeEPKiiPcibb
0000000000266324 T _ZNK11llama_vocab4impl10is_controlEi
00000000002662dc T _ZNK11llama_vocab4impl10is_unknownEi
000000000026b120 T _ZNK11llama_vocab4impl10print_infoEv
0000000000266494 T _ZNK11llama_vocab4impl13token_to_byteEi
0000000000266684 T _ZNK11llama_vocab4impl14token_get_attrEi
000000000026ace8 T _ZNK11llama_vocab4impl14token_to_pieceEi
0000000000269cc8 T _ZNK11llama_vocab4impl14token_to_pieceEiPciib
00000000002663b4 T _ZNK11llama_vocab4impl15is_user_definedEi
00000000002666dc T _ZNK11llama_vocab4impl22tokenizer_st_partitionERNSt6__ndk112forward_listI23fragment_buffer_variantNS1_9allocatorIS3_EEEEb
0000000000265f88 T _ZNK11llama_vocab4impl24token_to_piece_for_cacheEib
0000000000266444 T _ZNK11llama_vocab4impl6is_eogEi
000000000026636c T _ZNK11llama_vocab4impl7is_byteEi
0000000000266148 T _ZNK11llama_vocab4impl8get_typeEv
000000000026477c T _ZNK11llama_vocab4impl8tokenizeERKNSt6__ndk112basic_stringIcNS1_11char_traitsIcEENS1_9allocatorIcEEEEbb
0000000000266294 T _ZNK11llama_vocab4impl9is_normalEi
00000000002663fc T _ZNK11llama_vocab4impl9is_unusedEi
0000000000266150 T _ZNK11llama_vocab4impl9type_nameEv
000000000026bd10 T _ZNK11llama_vocab6is_eogEi
000000000026ac9c T _ZNK11llama_vocab7is_byteEi
000000000026ba28 T _ZNK11llama_vocab8get_typeEv
000000000026b8b0 T _ZNK11llama_vocab8n_tokensEv
000000000026c72c T _ZNK11llama_vocab8tokenizeEPKciPiibb
000000000026c97c T _ZNK11llama_vocab8tokenizeERKNSt6__ndk112basic_stringIcNS0_11char_traitsIcEENS0_9allocatorIcEEEEbb
000000000026bfc8 T _ZNK11llama_vocab8token_nlEv
000000000026bb94 T _ZNK11llama_vocab9is_normalEi
000000000026bcc4 T _ZNK11llama_vocab9is_unusedEi
000000000026bf80 T _ZNK11llama_vocab9token_bosEv
000000000026bfa4 T _ZNK11llama_vocab9token_eomEv
000000000026bf8c T _ZNK11llama_vocab9token_eosEv
000000000026bf98 T _ZNK11llama_vocab9token_eotEv
000000000026bfd4 T _ZNK11llama_vocab9token_padEv
000000000026bfbc T _ZNK11llama_vocab9token_sepEv
000000000026bfb0 T _ZNK11llama_vocab9token_unkEv
000000000026ba4c T _ZNK11llama_vocab9type_nameEv
0000000000151f6c T _ZNK11LLM_TN_IMPL3strEv
0000000000164b4c T _ZNK13llama_context10get_memoryEv
0000000000164b04 T _ZNK13llama_context11get_cparamsEv
000000000016ef24 T _ZNK13llama_context12graph_get_cbEv
000000000016bcec T _ZNK13llama_context12graph_paramsEP16llm_graph_resultRK12llama_ubatchPK22llama_memory_context_i14llm_graph_type
0000000000164d74 T _ZNK13llama_context12pooling_typeEv
0000000000170264 T _ZNK13llama_context13perf_get_dataEv
0000000000164698 T _ZNK13llama_context15graph_max_nodesEj
0000000000164b44 T _ZNK13llama_context15n_threads_batchEv
00000000001702f0 T _ZNK13llama_context16memory_breakdownEv
000000000016ed28 T _ZNK13llama_context18get_gf_res_reserveEv
0000000000165bb0 T _ZNK13llama_context18get_sampled_tokensEv
00000000001657b4 T _ZNK13llama_context18output_resolve_rowEi
0000000000165eb8 T _ZNK13llama_context19get_n_layer_hiddensEv
0000000000165e30 T _ZNK13llama_context23get_layer_hidden_n_embdEi
0000000000165da8 T _ZNK13llama_context25get_layer_hidden_n_tokensEi
0000000000164b14 T _ZNK13llama_context5n_ctxEv
0000000000164b24 T _ZNK13llama_context7n_batchEv
0000000000164b2c T _ZNK13llama_context8n_ubatchEv
0000000000164afc T _ZNK13llama_context9get_modelEv
0000000000164b0c T _ZNK13llama_context9get_schedEv
0000000000164b1c T _ZNK13llama_context9n_ctx_seqEv
0000000000164b34 T _ZNK13llama_context9n_seq_maxEv
0000000000164b3c T _ZNK13llama_context9n_threadsEv
000000000019eef8 T _ZNK13llama_hparams10is_swa_anyEv
000000000019f0d0 T _ZNK13llama_hparams10n_embd_inpEv
000000000019f0e4 T _ZNK13llama_hparams10n_embd_outEv
000000000019f830 T _ZNK13llama_hparams10n_layer_kvEv
000000000019f6e4 T _ZNK13llama_hparams12is_recurrentEj
000000000019f190 T _ZNK13llama_hparams12n_embd_k_gqaEj
000000000019f1e4 T _ZNK13llama_hparams12n_embd_v_gqaEj
000000000019f0f8 T _ZNK13llama_hparams13n_embd_head_kEj
000000000019f144 T _ZNK13llama_hparams13n_embd_head_vEj
000000000019f72c T _ZNK13llama_hparams14n_pos_per_embdEv
000000000019f390 T _ZNK13llama_hparams16n_embd_k_gqa_maxEv
000000000019f4b0 T _ZNK13llama_hparams16n_embd_v_gqa_maxEv
000000000019f75c T _ZNK13llama_hparams17n_embd_head_k_mlaEv
000000000019f7bc T _ZNK13llama_hparams17n_embd_head_v_mlaEv
000000000019f238 T _ZNK13llama_hparams24is_n_embd_k_gqa_variableEv
000000000019f2e4 T _ZNK13llama_hparams24is_n_embd_v_gqa_variableEv
000000000019efb8 T _ZNK13llama_hparams4n_ffEj
000000000019eff0 T _ZNK13llama_hparams5n_gqaEj
000000000019f044 T _ZNK13llama_hparams5n_rotEj
000000000019f81c T _ZNK13llama_hparams6has_kvEj
000000000019f748 T _ZNK13llama_hparams6is_mlaEv
000000000019f090 T _ZNK13llama_hparams6is_swaEj
000000000019ef48 T _ZNK13llama_hparams6n_headEj
000000000019f5d0 T _ZNK13llama_hparams8n_embd_rEv
000000000019f680 T _ZNK13llama_hparams8n_embd_sEv
000000000019ef80 T _ZNK13llama_hparams9n_head_kvEj
000000000019f8fc T _ZNK13llama_hparams9use_mropeEv
00000000001af9cc T _ZNK14llama_kv_cache10total_sizeEv
00000000001a4d98 T _ZNK14llama_kv_cache11seq_pos_maxEi
00000000001a4d20 T _ZNK14llama_kv_cache11seq_pos_minEi
00000000001afcf8 T _ZNK14llama_kv_cache11state_writeER16llama_io_write_iij
00000000001a8d50 T _ZNK14llama_kv_cache12get_n_streamEv
00000000001a317c T _ZNK14llama_kv_cache12size_k_bytesEv
00000000001a31e0 T _ZNK14llama_kv_cache12size_v_bytesEv
00000000001a8d18 T _ZNK14llama_kv_cache13get_can_shiftEv
00000000001a6700 T _ZNK14llama_kv_cache13get_has_shiftEv
00000000001af58c T _ZNK14llama_kv_cache15set_input_k_rotEP11ggml_tensor
00000000001af7ac T _ZNK14llama_kv_cache15set_input_v_rotEP11ggml_tensor
00000000001afa30 T _ZNK14llama_kv_cache16build_rope_shiftERK13llama_cparamsP12ggml_contextP11ggml_tensorS6_S6_S6_ffj
00000000001a4e44 T _ZNK14llama_kv_cache16memory_breakdownEv
00000000001a99c4 T _ZNK14llama_kv_cache16set_input_k_idxsEP11ggml_tensorPK12llama_ubatchRKNS_9slot_infoE
00000000001a9c04 T _ZNK14llama_kv_cache16set_input_v_idxsEP11ggml_tensorPK12llama_ubatchRKNS_9slot_infoE
00000000001b05c8 T _ZNK14llama_kv_cache16state_write_dataER16llama_io_write_iRKNS_13cell_ranges_tE
00000000001b0260 T _ZNK14llama_kv_cache16state_write_metaER16llama_io_write_iRKNS_13cell_ranges_tEi
00000000001a896c T _ZNK14llama_kv_cache17build_graph_shiftEP16llm_graph_resultP13llama_context
00000000001a98f0 T _ZNK14llama_kv_cache17build_input_k_rotEP12ggml_context
00000000001a9968 T _ZNK14llama_kv_cache17build_input_v_rotEP12ggml_context
00000000001aa0b0 T _ZNK14llama_kv_cache17set_input_kq_maskEP11ggml_tensorPK12llama_ubatchb
00000000001a9fcc T _ZNK14llama_kv_cache17set_input_k_shiftEP11ggml_tensor
00000000001a9868 T _ZNK14llama_kv_cache18build_input_k_idxsEP12ggml_contextRK12llama_ubatch
00000000001a989c T _ZNK14llama_kv_cache18build_input_v_idxsEP12ggml_contextRK12llama_ubatch
00000000001af45c T _ZNK14llama_kv_cache20set_input_pos_bucketEP11ggml_tensorPK12llama_ubatch
00000000001a9334 T _ZNK14llama_kv_cache5cpy_kEP12ggml_contextP11ggml_tensorS3_iRKNS_9slot_infoE
00000000001a9560 T _ZNK14llama_kv_cache5cpy_vEP12ggml_contextP11ggml_tensorS3_iRKNS_9slot_infoE
00000000001a8e44 T _ZNK14llama_kv_cache5get_kEP12ggml_contextijRKNS_9slot_infoE
00000000001a9054 T _ZNK14llama_kv_cache5get_vEP12ggml_contextijRKNS_9slot_infoE
00000000001a8d58 T _ZNK14llama_kv_cache6type_kEv
00000000001a8d68 T _ZNK14llama_kv_cache6type_vEv
00000000001a8d78 T _ZNK14llama_kv_cache8get_n_kvERKNS_9slot_infoE
00000000001a4474 T _ZNK14llama_kv_cache8get_sizeEv
00000000001a6794 T _ZNK14llama_kv_cache9find_slotERK12llama_ubatchb
0000000000194e38 W _ZNK16llm_graph_params11allow_reuseERKS_
0000000000194880 T _ZNK16llm_graph_result13get_max_nodesEv
000000000019a234 T _ZNK17llm_graph_context10build_attnEP22llm_graph_input_attn_kP11ggml_tensorS3_S3_S3_S3_S3_S3_S3_S3_fi
0000000000199b84 T _ZNK17llm_graph_context10build_attnEP23llm_graph_input_attn_kvP11ggml_tensorS3_S3_S3_S3_S3_S3_S3_S3_fi
000000000019a9e4 T _ZNK17llm_graph_context10build_attnEP26llm_graph_input_attn_crossP11ggml_tensorS3_S3_S3_S3_S3_S3_S3_S3_fi
000000000019a43c T _ZNK17llm_graph_context10build_attnEP28llm_graph_input_attn_kv_iswaP11ggml_tensorS3_S3_S3_S3_S3_S3_S3_S3_fi
00000000001997ac T _ZNK17llm_graph_context10build_attnEP29llm_graph_input_attn_no_cacheP11ggml_tensorS3_S3_S3_S3_S3_S3_S3_S3_fi
000000000019581c T _ZNK17llm_graph_context10build_cvecEP11ggml_tensori
0000000000195a64 T _ZNK17llm_graph_context10build_normEP11ggml_tensorS1_S1_13llm_norm_typei
000000000019afe8 T _ZNK17llm_graph_context12build_rs_inpEv
0000000000198844 T _ZNK17llm_graph_context13build_inp_clsEv
00000000001983a4 T _ZNK17llm_graph_context13build_inp_posEv
0000000000195838 T _ZNK17llm_graph_context13build_lora_mmEP11ggml_tensorS1_S1_
0000000000196aec T _ZNK17llm_graph_context13build_moe_ffnEP11ggml_tensorS1_S1_S1_S1_S1_ll15llm_ffn_op_typebf29llama_expert_gating_func_typeiS1_S1_S1_S1_S1_
0000000000196b7c T _ZNK17llm_graph_context13build_moe_ffnEP11ggml_tensorS1_S1_S1_S1_S1_S1_S1_S1_S1_ll15llm_ffn_op_typebf29llama_expert_gating_func_typeiS1_S1_S1_S1_S1_S1_
000000000019be2c T _ZNK17llm_graph_context13build_poolingEP11ggml_tensorS1_S1_S1_S1_
0000000000198e68 T _ZNK17llm_graph_context14build_attn_mhaEP11ggml_tensorS1_S1_S1_S1_S1_S1_fi
0000000000197fc0 T _ZNK17llm_graph_context14build_inp_embdEP11ggml_tensor
0000000000198738 T _ZNK17llm_graph_context14build_inp_meanEv
0000000000198d18 T _ZNK17llm_graph_context14build_pos_biasEP11ggml_tensorS1_
000000000019c164 T _ZNK17llm_graph_context14build_samplingEv
000000000019bcdc T _ZNK17llm_graph_context15build_dense_outEP11ggml_tensorS1_S1_
000000000019a020 T _ZNK17llm_graph_context16build_attn_inp_kEv
000000000019595c T _ZNK17llm_graph_context16build_lora_mm_idEP11ggml_tensorS1_S1_
0000000000199930 T _ZNK17llm_graph_context17build_attn_inp_kvEv
0000000000198624 T _ZNK17llm_graph_context17build_inp_out_idsEv
000000000019a860 T _ZNK17llm_graph_context20build_attn_inp_crossEv
00000000001984e0 T _ZNK17llm_graph_context20build_inp_attn_scaleEv
0000000000198950 T _ZNK17llm_graph_context20build_inp_cross_embdEv
000000000019b514 T _ZNK17llm_graph_context20build_inp_mem_hybridEv
000000000019ab4c T _ZNK17llm_graph_context22build_attn_inp_kv_iswaEv
000000000019b720 T _ZNK17llm_graph_context22build_inp_mem_hybrid_kEv
00000000001995ec T _ZNK17llm_graph_context23build_attn_inp_no_cacheEv
0000000000198bd0 T _ZNK17llm_graph_context24build_inp_pos_bucket_decEv
0000000000198aa8 T _ZNK17llm_graph_context24build_inp_pos_bucket_encEv
000000000019b928 T _ZNK17llm_graph_context25build_inp_mem_hybrid_iswaEv
000000000019b26c T _ZNK17llm_graph_context27build_rwkv_token_shift_loadEP18llm_graph_input_rsRK12llama_ubatchi
000000000019b430 T _ZNK17llm_graph_context28build_rwkv_token_shift_storeEP11ggml_tensorRK12llama_ubatchi
00000000001957a8 T _ZNK17llm_graph_context2cbEP11ggml_tensorPKci
000000000019ae50 T _ZNK17llm_graph_context8build_rsEP11ggml_tensorS1_S1_iijjjiRKNSt6__ndk18functionIFS1_P12ggml_contextS1_S1_EEE
000000000019b1b4 T _ZNK17llm_graph_context8build_rsEP18llm_graph_input_rsP11ggml_tensoriiRKNSt6__ndk18functionIFS3_P12ggml_contextS3_S3_EEE
00000000001962dc T _ZNK17llm_graph_context9build_ffnEP11ggml_tensorS1_S1_S1_S1_S1_S1_S1_S1_S1_S1_15llm_ffn_op_type17llm_ffn_gate_typei
0000000000195c08 T _ZNK17llm_graph_context9build_qkvERK11llama_layerP11ggml_tensorllli
000000000014bb98 T _ZNK18llama_adapter_cvec10tensor_forEi
000000000014bbe0 T _ZNK18llama_adapter_cvec8apply_toEP12ggml_contextP11ggml_tensori
0000000000156114 T _ZNK18llama_batch_allocr10get_n_usedEv
0000000000155ac4 T _ZNK18llama_batch_allocr11seq_pos_maxEi
0000000000155a98 T _ZNK18llama_batch_allocr11seq_pos_minEi
0000000000156104 T _ZNK18llama_batch_allocr12get_n_tokensEv
000000000015610c T _ZNK18llama_batch_allocr13get_n_outputsEv
0000000000156100 T _ZNK18llama_batch_allocr9get_batchEv
00000000001cd104 T _ZNK18llama_model_loader10ftype_nameEv
00000000001c8fec T _ZNK18llama_model_loader10get_weightEPKc
00000000001cd79c T _ZNK18llama_model_loader10print_infoEv
00000000001c8fb8 T _ZNK18llama_model_loader13get_arch_nameEv
00000000001cb63c T _ZNK18llama_model_loader13load_data_forEP11ggml_tensor
00000000001c91b4 T _ZNK18llama_model_loader14require_weightEPKc
00000000001c92c8 T _ZNK18llama_model_loader15get_tensor_metaEPKc
00000000001c9420 T _ZNK18llama_model_loader17check_tensor_dimsERKNSt6__ndk112basic_stringIcNS0_11char_traitsIcEENS0_9allocatorIcEEEERKNS0_6vectorIlNS4_IlEEEEb
00000000001cb510 T _ZNK18llama_model_loader17get_mapping_rangeEPmS0_PPviP12ggml_context
00000000001c92e4 T _ZNK18llama_model_loader19require_tensor_metaERKNSt6__ndk112basic_stringIcNS0_11char_traitsIcEENS0_9allocatorIcEEEE
00000000001cad00 T _ZNK18llama_model_loader20done_getting_tensorsEv
00000000001d4874 W _ZNK18llama_model_loader20weight_name_comparerclERKNSt6__ndk112basic_stringIcNS1_11char_traitsIcEENS1_9allocatorIcEEEES9_
00000000001c8fe4 T _ZNK18llama_model_loader8get_archEv
00000000001b6b0c T _ZNK19llama_kv_cache_iswa11seq_pos_maxEi
00000000001b6afc T _ZNK19llama_kv_cache_iswa11seq_pos_minEi
00000000001b7524 T _ZNK19llama_kv_cache_iswa11state_writeER16llama_io_write_iij
00000000001b74b0 T _ZNK19llama_kv_cache_iswa13get_can_shiftEv
00000000001b6b1c T _ZNK19llama_kv_cache_iswa16memory_breakdownEv
00000000001b75e4 T _ZNK19llama_kv_cache_iswa7get_swaEv
00000000001b75dc T _ZNK19llama_kv_cache_iswa8get_baseEv
00000000001b8fe8 T _ZNK19llama_memory_hybrid11seq_pos_maxEi
00000000001b8f94 T _ZNK19llama_memory_hybrid11seq_pos_minEi
00000000001b9220 T _ZNK19llama_memory_hybrid11state_writeER16llama_io_write_iij
00000000001b92d8 T _ZNK19llama_memory_hybrid12get_mem_attnEv
00000000001b92e0 T _ZNK19llama_memory_hybrid12get_mem_recrEv
00000000001b8d60 T _ZNK19llama_memory_hybrid13get_can_shiftEv
00000000001b903c T _ZNK19llama_memory_hybrid16memory_breakdownEv
000000000017d130 T _ZNK20llama_grammar_parser7c_rulesEv
00000000002b2ae8 T _ZNK20llm_build_mamba_base18build_mamba2_layerEP18llm_graph_input_rsP11ggml_tensorRK11llama_modelRK12llama_ubatchi
00000000002c76f8 T _ZNK20llm_build_rwkv6_base20build_rwkv6_time_mixEP18llm_graph_input_rsP11ggml_tensorS3_RK12llama_ubatchi
00000000002c75c8 T _ZNK20llm_build_rwkv6_base23build_rwkv6_channel_mixEPK11llama_layerP11ggml_tensorS4_8llm_arch
00000000002c8e2c T _ZNK20llm_build_rwkv7_base20build_rwkv7_time_mixEP18llm_graph_input_rsP11ggml_tensorS3_RS3_RK12llama_ubatchi
00000000002c8d6c T _ZNK20llm_build_rwkv7_base23build_rwkv7_channel_mixEPK11llama_layerP11ggml_tensorS4_8llm_arch
000000000026f998 W _ZNK20llm_tokenizer_plamo26encodeERKNSt6__ndk112basic_stringIcNS0_11char_traitsIcEENS0_9allocatorIcEEEE
00000000001b2850 T _ZNK22llama_kv_cache_context10get_statusEv
00000000001b2858 T _ZNK22llama_kv_cache_context10get_ubatchEv
00000000001b2ba8 T _ZNK22llama_kv_cache_context15set_input_k_rotEP11ggml_tensor
00000000001b2bb0 T _ZNK22llama_kv_cache_context15set_input_v_rotEP11ggml_tensor
00000000001b2b68 T _ZNK22llama_kv_cache_context16set_input_k_idxsEP11ggml_tensorPK12llama_ubatch
00000000001b2b80 T _ZNK22llama_kv_cache_context16set_input_v_idxsEP11ggml_tensorPK12llama_ubatch
00000000001b29ac T _ZNK22llama_kv_cache_context17build_input_k_rotEP12ggml_context
00000000001b2a28 T _ZNK22llama_kv_cache_context17build_input_v_rotEP12ggml_context
00000000001b2b98 T _ZNK22llama_kv_cache_context17set_input_kq_maskEP11ggml_tensorPK12llama_ubatchb
00000000001b2a88 T _ZNK22llama_kv_cache_context17set_input_k_shiftEP11ggml_tensor
00000000001b2920 T _ZNK22llama_kv_cache_context18build_input_k_idxsEP12ggml_contextRK12llama_ubatch
00000000001b2954 T _ZNK22llama_kv_cache_context18build_input_v_idxsEP12ggml_contextRK12llama_ubatch
00000000001b28e0 T _ZNK22llama_kv_cache_context18get_turbo_rotationEv
00000000001b2ba0 T _ZNK22llama_kv_cache_context20set_input_pos_bucketEP11ggml_tensorPK12llama_ubatch
00000000001b28f8 T _ZNK22llama_kv_cache_context21get_turbo_rot_forwardEv
00000000001b2904 T _ZNK22llama_kv_cache_context21get_turbo_rot_inverseEv
00000000001b28ec T _ZNK22llama_kv_cache_context22get_turbo_rotation_invEv
00000000001b2910 T _ZNK22llama_kv_cache_context5cpy_kEP12ggml_contextP11ggml_tensorS3_i
00000000001b2918 T _ZNK22llama_kv_cache_context5cpy_vEP12ggml_contextP11ggml_tensorS3_i
00000000001b28a0 T _ZNK22llama_kv_cache_context5get_kEP12ggml_contexti
00000000001b28c0 T _ZNK22llama_kv_cache_context5get_vEP12ggml_contexti
00000000001b2878 T _ZNK22llama_kv_cache_context6type_kEv
00000000001b288c T _ZNK22llama_kv_cache_context6type_vEv
00000000001b2870 T _ZNK22llama_kv_cache_context8get_n_kvEv
00000000001b8014 W _ZNK22llama_memory_context_i21get_turbo_rot_forwardEv
00000000001b801c W _ZNK22llama_memory_context_i21get_turbo_rot_inverseEv
00000000001bef2c T _ZNK22llama_memory_recurrent10total_sizeEv
00000000001bcf00 T _ZNK22llama_memory_recurrent11seq_pos_maxEi
00000000001bce70 T _ZNK22llama_memory_recurrent11seq_pos_minEi
00000000001bef90 T _ZNK22llama_memory_recurrent11state_writeER16llama_io_write_iij
00000000001bc224 T _ZNK22llama_memory_recurrent12size_r_bytesEv
00000000001bc280 T _ZNK22llama_memory_recurrent12size_s_bytesEv
00000000001bef24 T _ZNK22llama_memory_recurrent13get_can_shiftEv
00000000001bcf84 T _ZNK22llama_memory_recurrent14get_cell_countEi
00000000001bda58 T _ZNK22llama_memory_recurrent16memory_breakdownEv
00000000001bf5f8 T _ZNK22llama_memory_recurrent16state_write_dataER16llama_io_write_iRKNSt6__ndk16vectorINS2_4pairIjjEENS2_9allocatorIS5_EEEE
00000000001bf478 T _ZNK22llama_memory_recurrent16state_write_metaER16llama_io_write_iRKNSt6__ndk16vectorINS2_4pairIjjEENS2_9allocatorIS5_EEEEi
00000000001bac34 T _ZNK24llama_memory_hybrid_iswa11seq_pos_maxEi
00000000001babe0 T _ZNK24llama_memory_hybrid_iswa11seq_pos_minEi
00000000001bae6c T _ZNK24llama_memory_hybrid_iswa11state_writeER16llama_io_write_iij
00000000001baf1c T _ZNK24llama_memory_hybrid_iswa12get_mem_attnEv
00000000001baf24 T _ZNK24llama_memory_hybrid_iswa12get_mem_recrEv
00000000001ba9a8 T _ZNK24llama_memory_hybrid_iswa13get_can_shiftEv
00000000001bac88 T _ZNK24llama_memory_hybrid_iswa16memory_breakdownEv
0000000000267240 W _ZNK25llm_tokenizer_bpe_session10append_bosERNSt6__ndk16vectorIiNS0_9allocatorIiEEEE
00000000002688ac W _ZNK25llm_tokenizer_bpe_session10append_eosERNSt6__ndk16vectorIiNS0_9allocatorIiEEEE
00000000001b7f24 T _ZNK27llama_kv_cache_iswa_context10get_statusEv
00000000001b7f2c T _ZNK27llama_kv_cache_iswa_context10get_ubatchEv
00000000001b7f44 T _ZNK27llama_kv_cache_iswa_context7get_swaEv
00000000001b7f3c T _ZNK27llama_kv_cache_iswa_context8get_baseEv
00000000001b9ac8 T _ZNK27llama_memory_hybrid_context10get_statusEv
00000000001b9ad0 T _ZNK27llama_memory_hybrid_context10get_ubatchEv
00000000001b9ae8 T _ZNK27llama_memory_hybrid_context21get_turbo_rot_forwardEv
00000000001b9b00 T _ZNK27llama_memory_hybrid_context21get_turbo_rot_inverseEv
00000000001b9ae0 T _ZNK27llama_memory_hybrid_context8get_attnEv
00000000001b9b18 T _ZNK27llama_memory_hybrid_context8get_recrEv
0000000000178140 T _ZNK29llama_grammar_trigger_pattern4findERKNSt6__ndk112basic_stringIcNS0_11char_traitsIcEENS0_9allocatorIcEEEE
00000000001c06d0 T _ZNK30llama_memory_recurrent_context10get_statusEv
00000000001c06d8 T _ZNK30llama_memory_recurrent_context10get_ubatchEv
00000000001c076c T _ZNK30llama_memory_recurrent_context6s_copyEi
00000000001c074c T _ZNK30llama_memory_recurrent_context7get_r_lEi
00000000001c075c T _ZNK30llama_memory_recurrent_context7get_s_lEi
00000000001c0708 T _ZNK30llama_memory_recurrent_context8get_headEv
00000000001c06e8 T _ZNK30llama_memory_recurrent_context8get_n_rsEv
00000000001c0724 T _ZNK30llama_memory_recurrent_context8get_rs_zEv
00000000001c0740 T _ZNK30llama_memory_recurrent_context8get_sizeEv
00000000001bb74c T _ZNK32llama_memory_hybrid_iswa_context10get_statusEv
00000000001bb754 T _ZNK32llama_memory_hybrid_iswa_context10get_ubatchEv
00000000001bb764 T _ZNK32llama_memory_hybrid_iswa_context8get_attnEv
00000000001bb76c T _ZNK32llama_memory_hybrid_iswa_context8get_recrEv
0000000000151e68 T _ZNK6LLM_KVclE6llm_kv
00000000002d00ac T _ZNKSt6__ndk110error_code7messageEv
00000000002f0b1c W _ZNKSt6__ndk110moneypunctIcLb0EE11do_groupingEv
00000000002f0b7c W _ZNKSt6__ndk110moneypunctIcLb0EE13do_neg_formatEv
00000000002f0b6c W _ZNKSt6__ndk110moneypunctIcLb0EE13do_pos_formatEv
00000000002f0b2c W _ZNKSt6__ndk110moneypunctIcLb0EE14do_curr_symbolEv
00000000002f0b60 W _ZNKSt6__ndk110moneypunctIcLb0EE14do_frac_digitsEv
00000000002f0b04 W _ZNKSt6__ndk110moneypunctIcLb0EE16do_decimal_pointEv
00000000002f0b4c W _ZNKSt6__ndk110moneypunctIcLb0EE16do_negative_signEv
00000000002f0b3c W _ZNKSt6__ndk110moneypunctIcLb0EE16do_positive_signEv
00000000002f0b10 W _ZNKSt6__ndk110moneypunctIcLb0EE16do_thousands_sepEv
00000000002f0ba4 W _ZNKSt6__ndk110moneypunctIcLb1EE11do_groupingEv
00000000002f0c04 W _ZNKSt6__ndk110moneypunctIcLb1EE13do_neg_formatEv
00000000002f0bf4 W _ZNKSt6__ndk110moneypunctIcLb1EE13do_pos_formatEv
00000000002f0bb4 W _ZNKSt6__ndk110moneypunctIcLb1EE14do_curr_symbolEv
00000000002f0be8 W _ZNKSt6__ndk110moneypunctIcLb1EE14do_frac_digitsEv
00000000002f0b8c W _ZNKSt6__ndk110moneypunctIcLb1EE16do_decimal_pointEv
00000000002f0bd4 W _ZNKSt6__ndk110moneypunctIcLb1EE16do_negative_signEv
00000000002f0bc4 W _ZNKSt6__ndk110moneypunctIcLb1EE16do_positive_signEv
00000000002f0b98 W _ZNKSt6__ndk110moneypunctIcLb1EE16do_thousands_sepEv
00000000002f0c2c W _ZNKSt6__ndk110moneypunctIwLb0EE11do_groupingEv
00000000002f0c94 W _ZNKSt6__ndk110moneypunctIwLb0EE13do_neg_formatEv
00000000002f0c84 W _ZNKSt6__ndk110moneypunctIwLb0EE13do_pos_formatEv
00000000002f0c3c W _ZNKSt6__ndk110moneypunctIwLb0EE14do_curr_symbolEv
00000000002f0c78 W _ZNKSt6__ndk110moneypunctIwLb0EE14do_frac_digitsEv
00000000002f0c14 W _ZNKSt6__ndk110moneypunctIwLb0EE16do_decimal_pointEv
00000000002f0c5c W _ZNKSt6__ndk110moneypunctIwLb0EE16do_negative_signEv
00000000002f0c4c W _ZNKSt6__ndk110moneypunctIwLb0EE16do_positive_signEv
00000000002f0c20 W _ZNKSt6__ndk110moneypunctIwLb0EE16do_thousands_sepEv
00000000002f0cbc W _ZNKSt6__ndk110moneypunctIwLb1EE11do_groupingEv
00000000002f0d24 W _ZNKSt6__ndk110moneypunctIwLb1EE13do_neg_formatEv
00000000002f0d14 W _ZNKSt6__ndk110moneypunctIwLb1EE13do_pos_formatEv
00000000002f0ccc W _ZNKSt6__ndk110moneypunctIwLb1EE14do_curr_symbolEv
00000000002f0d08 W _ZNKSt6__ndk110moneypunctIwLb1EE14do_frac_digitsEv
00000000002f0ca4 W _ZNKSt6__ndk110moneypunctIwLb1EE16do_decimal_pointEv
00000000002f0cec W _ZNKSt6__ndk110moneypunctIwLb1EE16do_negative_signEv
00000000002f0cdc W _ZNKSt6__ndk110moneypunctIwLb1EE16do_positive_signEv
00000000002f0cb0 W _ZNKSt6__ndk110moneypunctIwLb1EE16do_thousands_sepEv
00000000002f0630 T _ZNKSt6__ndk110__time_put8__do_putEPcRS1_PK2tmcc
00000000002f0a0c T _ZNKSt6__ndk110__time_put8__do_putEPwRS1_PK2tmcc
000000000018483c W _ZNKSt6__ndk111basic_regexIcNS_12regex_traitsIcEEE21__match_at_start_ecmaINS_9allocatorINS_9sub_matchIPKcEEEEEEbS8_S8_RNS_13match_resultsIS8_T_EENS_15regex_constants15match_flag_typeEb
0000000000185648 W _ZNKSt6__ndk111basic_regexIcNS_12regex_traitsIcEEE27__match_at_start_posix_subsINS_9allocatorINS_9sub_matchIPKcEEEEEEbS8_S8_RNS_13match_resultsIS8_T_EENS_15regex_constants15match_flag_typeEb
0000000000184cf8 W _ZNKSt6__ndk111basic_regexIcNS_12regex_traitsIcEEE29__match_at_start_posix_nosubsINS_9allocatorINS_9sub_matchIPKcEEEEEEbS8_S8_RNS_13match_resultsIS8_T_EENS_15regex_constants15match_flag_typeEb
000000000018419c W _ZNKSt6__ndk111basic_regexIcNS_12regex_traitsIcEEE8__searchINS_9allocatorINS_9sub_matchIPKcEEEEEEbS8_S8_RNS_13match_resultsIS8_T_EENS_15regex_constants15match_flag_typeE
0000000000287d34 W _ZNKSt6__ndk111basic_regexIwNS_12regex_traitsIwEEE21__match_at_start_ecmaINS_9allocatorINS_9sub_matchIPKwEEEEEEbS8_S8_RNS_13match_resultsIS8_T_EENS_15regex_constants15match_flag_typeEb
00000000002903f0 W _ZNKSt6__ndk111basic_regexIwNS_12regex_traitsIwEEE27__match_at_start_posix_subsINS_9allocatorINS_9sub_matchIPKwEEEEEEbS8_S8_RNS_13match_resultsIS8_T_EENS_15regex_constants15match_flag_typeEb
000000000028fa90 W _ZNKSt6__ndk111basic_regexIwNS_12regex_traitsIwEEE29__match_at_start_posix_nosubsINS_9allocatorINS_9sub_matchIPKwEEEEEEbS8_S8_RNS_13match_resultsIS8_T_EENS_15regex_constants15match_flag_typeEb
000000000028f5c8 W _ZNKSt6__ndk111basic_regexIwNS_12regex_traitsIwEEE8__searchINS_9allocatorINS_9sub_matchIPKwEEEEEEbS8_S8_RNS_13match_resultsIS8_T_EENS_15regex_constants15match_flag_typeE
0000000000301268 T _ZNKSt6__ndk112ctype_bynameIcE10do_tolowerEc
0000000000301284 T _ZNKSt6__ndk112ctype_bynameIcE10do_tolowerEPcPKc
0000000000301120 T _ZNKSt6__ndk112ctype_bynameIcE10do_toupperEc
000000000030113c T _ZNKSt6__ndk112ctype_bynameIcE10do_toupperEPcPKc
0000000000301880 T _ZNKSt6__ndk112ctype_bynameIwE10do_scan_isEmPKwS3_
0000000000301b50 T _ZNKSt6__ndk112ctype_bynameIwE10do_tolowerEPwPKw
0000000000301b3c T _ZNKSt6__ndk112ctype_bynameIwE10do_tolowerEw
0000000000301ae4 T _ZNKSt6__ndk112ctype_bynameIwE10do_toupperEPwPKw
0000000000301ad0 T _ZNKSt6__ndk112ctype_bynameIwE10do_toupperEw
00000000003019a8 T _ZNKSt6__ndk112ctype_bynameIwE11do_scan_notEmPKwS3_
0000000000301594 T _ZNKSt6__ndk112ctype_bynameIwE5do_isEmw
00000000003016e8 T _ZNKSt6__ndk112ctype_bynameIwE5do_isEPKwS3_Pm
0000000000301ba8 T _ZNKSt6__ndk112ctype_bynameIwE8do_widenEc
0000000000301c18 T _ZNKSt6__ndk112ctype_bynameIwE8do_widenEPKcS3_Pw
0000000000301d40 T _ZNKSt6__ndk112ctype_bynameIwE9do_narrowEPKwS3_cPc
0000000000301cc8 T _ZNKSt6__ndk112ctype_bynameIwE9do_narrowEwc
0000000000272990 W _ZNKSt6__ndk112__hash_tableINS_17__hash_value_typeINS_12basic_stringIcNS_11char_traitsIcEENS_9allocatorIcEEEEiEENS_22__unordered_map_hasherIS7_S8_NS_4hashIS7_EENS_8equal_toIS7_EELb1EEENS_21__unordered_map_equalIS7_S8_SD_SB_Lb1EEENS5_IS8_EEE4findIS7_EENS_21__hash_const_iteratorIPNS_11__hash_nodeIS8_PvEEEERKT_
0000000000173bd0 W _ZNKSt6__ndk112__hash_tableINS_17__hash_value_typeINS_12basic_stringIcNS_11char_traitsIcEENS_9allocatorIcEEEENS_4pairIiiEEEENS_22__unordered_map_hasherIS7_SA_NS_4hashIS7_EENS_8equal_toIS7_EELb1EEENS_21__unordered_map_equalIS7_SA_SF_SD_Lb1EEENS5_ISA_EEE4findIS7_EENS_21__hash_const_iteratorIPNS_11__hash_nodeISA_PvEEEERKT_
000000000024c6ac W _ZNKSt6__ndk112__hash_tableINS_17__hash_value_typeINS_12basic_stringIcNS_11char_traitsIcEENS_9allocatorIcEEEENS_6vectorIfNS5_IfEEEEEENS_22__unordered_map_hasherIS7_SB_NS_4hashIS7_EENS_8equal_toIS7_EELb1EEENS_21__unordered_map_equalIS7_SB_SG_SE_Lb1EEENS5_ISB_EEE4findIS7_EENS_21__hash_const_iteratorIPNS_11__hash_nodeISB_PvEEEERKT_
000000000015159c W _ZNKSt6__ndk112__hash_tableINS_17__hash_value_typeINS_12basic_stringIcNS_11char_traitsIcEENS_9allocatorIcEEEES7_EENS_22__unordered_map_hasherIS7_S8_NS_4hashIS7_EENS_8equal_toIS7_EELb1EEENS_21__unordered_map_equalIS7_S8_SD_SB_Lb1EEENS5_IS8_EEE4findIS7_EENS_21__hash_const_iteratorIPNS_11__hash_nodeIS8_PvEEEERKT_
000000000018ef1c W _ZNKSt6__ndk112regex_traitsIcE18__lookup_classnameINS_11__wrap_iterIPKcEEEEtT_S7_bc
00000000001d12bc W _ZNKSt6__ndk112regex_traitsIcE18__lookup_classnameIPKcEEtT_S5_bc
000000000018eac8 W _ZNKSt6__ndk112regex_traitsIcE19__transform_primaryINS_11__wrap_iterIPcEEEENS_12basic_stringIcNS_11char_traitsIcEENS_9allocatorIcEEEET_SC_c
000000000018d0dc W _ZNKSt6__ndk112regex_traitsIcE19__transform_primaryIPcEENS_12basic_stringIcNS_11char_traitsIcEENS_9allocatorIcEEEET_SA_c
000000000018e838 W _ZNKSt6__ndk112regex_traitsIcE20__lookup_collatenameINS_11__wrap_iterIPKcEEEENS_12basic_stringIcNS_11char_traitsIcEENS_9allocatorIcEEEET_SD_c
000000000018ce4c W _ZNKSt6__ndk112regex_traitsIcE20__lookup_collatenameIPcEENS_12basic_stringIcNS_11char_traitsIcEENS_9allocatorIcEEEET_SA_c
00000000001d102c W _ZNKSt6__ndk112regex_traitsIcE20__lookup_collatenameIPKcEENS_12basic_stringIcNS_11char_traitsIcEENS_9allocatorIcEEEET_SB_c
000000000018f3ac W _ZNKSt6__ndk112regex_traitsIcE9transformINS_11__wrap_iterIPcEEEENS_12basic_stringIcNS_11char_traitsIcEENS_9allocatorIcEEEET_SC_
000000000018ccd8 W _ZNKSt6__ndk112regex_traitsIcE9transformIPcEENS_12basic_stringIcNS_11char_traitsIcEENS_9allocatorIcEEEET_SA_
000000000028db40 W _ZNKSt6__ndk112regex_traitsIwE18__lookup_classnameINS_11__wrap_iterIPKwEEEEtT_S7_bw
000000000028d660 W _ZNKSt6__ndk112regex_traitsIwE19__transform_primaryINS_11__wrap_iterIPwEEEENS_12basic_stringIwNS_11char_traitsIwEENS_9allocatorIwEEEET_SC_w
000000000028b6ec W _ZNKSt6__ndk112regex_traitsIwE19__transform_primaryIPwEENS_12basic_stringIwNS_11char_traitsIwEENS_9allocatorIwEEEET_SA_w
000000000028d18c W _ZNKSt6__ndk112regex_traitsIwE20__lookup_collatenameINS_11__wrap_iterIPKwEEEENS_12basic_stringIwNS_11char_traitsIwEENS_9allocatorIwEEEET_SD_w
000000000028b218 W _ZNKSt6__ndk112regex_traitsIwE20__lookup_collatenameIPwEENS_12basic_stringIwNS_11char_traitsIwEENS_9allocatorIwEEEET_SA_w
000000000028e0ec W _ZNKSt6__ndk112regex_traitsIwE9transformINS_11__wrap_iterIPwEEEENS_12basic_stringIwNS_11char_traitsIwEENS_9allocatorIwEEEET_SC_
000000000028b08c W _ZNKSt6__ndk112regex_traitsIwE9transformIPwEENS_12basic_stringIwNS_11char_traitsIwEENS_9allocatorIwEEEET_SA_
0000000000259bbc W _ZNKSt6__ndk113match_resultsIPKcNS_9allocatorINS_9sub_matchIS2_EEEEE6formatINS_20back_insert_iteratorINS_12basic_stringIcNS_11char_traitsIcEENS3_IcEEEEEEEET_SG_S2_S2_NS_15regex_constants15match_flag_typeE
00000000002cf088 T _ZNKSt6__ndk113random_device7entropyEv
00000000003042b8 T _ZNKSt6__ndk114__codecvt_utf8IDiE10do_unshiftER9mbstate_tPcS4_RS4_
00000000003042c8 T _ZNKSt6__ndk114__codecvt_utf8IDiE11do_encodingEv
0000000000304300 T _ZNKSt6__ndk114__codecvt_utf8IDiE13do_max_lengthEv
00000000003042d4 T _ZNKSt6__ndk114__codecvt_utf8IDiE16do_always_noconvEv
0000000000304248 T _ZNKSt6__ndk114__codecvt_utf8IDiE5do_inER9mbstate_tPKcS5_RS5_PDiS7_RS7_
00000000003041d8 T _ZNKSt6__ndk114__codecvt_utf8IDiE6do_outER9mbstate_tPKDiS5_RS5_PcS7_RS7_
00000000003042e0 T _ZNKSt6__ndk114__codecvt_utf8IDiE9do_lengthER9mbstate_tPKcS5_m
0000000000304028 T _ZNKSt6__ndk114__codecvt_utf8IDsE10do_unshiftER9mbstate_tPcS4_RS4_
0000000000304038 T _ZNKSt6__ndk114__codecvt_utf8IDsE11do_encodingEv
00000000003041bc T _ZNKSt6__ndk114__codecvt_utf8IDsE13do_max_lengthEv
0000000000304044 T _ZNKSt6__ndk114__codecvt_utf8IDsE16do_always_noconvEv
0000000000303e98 T _ZNKSt6__ndk114__codecvt_utf8IDsE5do_inER9mbstate_tPKcS5_RS5_PDsS7_RS7_
0000000000303d8c T _ZNKSt6__ndk114__codecvt_utf8IDsE6do_outER9mbstate_tPKDsS5_RS5_PcS7_RS7_
0000000000304050 T _ZNKSt6__ndk114__codecvt_utf8IDsE9do_lengthER9mbstate_tPKcS5_m
0000000000303d28 T _ZNKSt6__ndk114__codecvt_utf8IwE10do_unshiftER9mbstate_tPcS4_RS4_
0000000000303d38 T _ZNKSt6__ndk114__codecvt_utf8IwE11do_encodingEv
0000000000303d70 T _ZNKSt6__ndk114__codecvt_utf8IwE13do_max_lengthEv
0000000000303d44 T _ZNKSt6__ndk114__codecvt_utf8IwE16do_always_noconvEv
0000000000303cb8 T _ZNKSt6__ndk114__codecvt_utf8IwE5do_inER9mbstate_tPKcS5_RS5_PwS7_RS7_
0000000000303c48 T _ZNKSt6__ndk114__codecvt_utf8IwE6do_outER9mbstate_tPKwS5_RS5_PcS7_RS7_
0000000000303d50 T _ZNKSt6__ndk114__codecvt_utf8IwE9do_lengthER9mbstate_tPKcS5_m
00000000002ff9f0 T _ZNKSt6__ndk114collate_bynameIcE10do_compareEPKcS3_S3_S3_
00000000002ffbc8 T _ZNKSt6__ndk114collate_bynameIcE12do_transformEPKcS3_
00000000002ffff0 T _ZNKSt6__ndk114collate_bynameIwE10do_compareEPKwS3_S3_S3_
00000000003001fc T _ZNKSt6__ndk114collate_bynameIwE12do_transformEPKwS3_
00000000002d0c08 W _ZNKSt6__ndk115basic_streambufIcNS_11char_traitsIcEEE6getlocEv
00000000002d5f94 W _ZNKSt6__ndk115basic_streambufIwNS_11char_traitsIwEEE6getlocEv
00000000002db700 W _ZNKSt6__ndk115basic_stringbufIcNS_11char_traitsIcEENS_9allocatorIcEEE3strEv
0000000000304f18 T _ZNKSt6__ndk115__codecvt_utf16IDiLb0EE10do_unshiftER9mbstate_tPcS4_RS4_
0000000000304f28 T _ZNKSt6__ndk115__codecvt_utf16IDiLb0EE11do_encodingEv
0000000000305034 T _ZNKSt6__ndk115__codecvt_utf16IDiLb0EE13do_max_lengthEv
0000000000304f34 T _ZNKSt6__ndk115__codecvt_utf16IDiLb0EE16do_always_noconvEv
0000000000304e1c T _ZNKSt6__ndk115__codecvt_utf16IDiLb0EE5do_inER9mbstate_tPKcS5_RS5_PDiS7_RS7_
0000000000304d44 T _ZNKSt6__ndk115__codecvt_utf16IDiLb0EE6do_outER9mbstate_tPKDiS5_RS5_PcS7_RS7_
0000000000304f40 T _ZNKSt6__ndk115__codecvt_utf16IDiLb0EE9do_lengthER9mbstate_tPKcS5_m
0000000000305224 T _ZNKSt6__ndk115__codecvt_utf16IDiLb1EE10do_unshiftER9mbstate_tPcS4_RS4_
0000000000305234 T _ZNKSt6__ndk115__codecvt_utf16IDiLb1EE11do_encodingEv
0000000000305340 T _ZNKSt6__ndk115__codecvt_utf16IDiLb1EE13do_max_lengthEv
0000000000305240 T _ZNKSt6__ndk115__codecvt_utf16IDiLb1EE16do_always_noconvEv
0000000000305128 T _ZNKSt6__ndk115__codecvt_utf16IDiLb1EE5do_inER9mbstate_tPKcS5_RS5_PDiS7_RS7_
0000000000305050 T _ZNKSt6__ndk115__codecvt_utf16IDiLb1EE6do_outER9mbstate_tPKDiS5_RS5_PcS7_RS7_
000000000030524c T _ZNKSt6__ndk115__codecvt_utf16IDiLb1EE9do_lengthER9mbstate_tPKcS5_m
0000000000304a64 T _ZNKSt6__ndk115__codecvt_utf16IDsLb0EE10do_unshiftER9mbstate_tPcS4_RS4_
0000000000304a74 T _ZNKSt6__ndk115__codecvt_utf16IDsLb0EE11do_encodingEv
0000000000304b20 T _ZNKSt6__ndk115__codecvt_utf16IDsLb0EE13do_max_lengthEv
0000000000304a80 T _ZNKSt6__ndk115__codecvt_utf16IDsLb0EE16do_always_noconvEv
00000000003049d0 T _ZNKSt6__ndk115__codecvt_utf16IDsLb0EE5do_inER9mbstate_tPKcS5_RS5_PDsS7_RS7_
0000000000304934 T _ZNKSt6__ndk115__codecvt_utf16IDsLb0EE6do_outER9mbstate_tPKDsS5_RS5_PcS7_RS7_
0000000000304a8c T _ZNKSt6__ndk115__codecvt_utf16IDsLb0EE9do_lengthER9mbstate_tPKcS5_m
0000000000304c6c T _ZNKSt6__ndk115__codecvt_utf16IDsLb1EE10do_unshiftER9mbstate_tPcS4_RS4_
0000000000304c7c T _ZNKSt6__ndk115__codecvt_utf16IDsLb1EE11do_encodingEv
0000000000304d28 T _ZNKSt6__ndk115__codecvt_utf16IDsLb1EE13do_max_lengthEv
0000000000304c88 T _ZNKSt6__ndk115__codecvt_utf16IDsLb1EE16do_always_noconvEv
0000000000304bd8 T _ZNKSt6__ndk115__codecvt_utf16IDsLb1EE5do_inER9mbstate_tPKcS5_RS5_PDsS7_RS7_
0000000000304b3c T _ZNKSt6__ndk115__codecvt_utf16IDsLb1EE6do_outER9mbstate_tPKDsS5_RS5_PcS7_RS7_
0000000000304c94 T _ZNKSt6__ndk115__codecvt_utf16IDsLb1EE9do_lengthER9mbstate_tPKcS5_m
00000000003044f0 T _ZNKSt6__ndk115__codecvt_utf16IwLb0EE10do_unshiftER9mbstate_tPcS4_RS4_
0000000000304500 T _ZNKSt6__ndk115__codecvt_utf16IwLb0EE11do_encodingEv
000000000030460c T _ZNKSt6__ndk115__codecvt_utf16IwLb0EE13do_max_lengthEv
000000000030450c T _ZNKSt6__ndk115__codecvt_utf16IwLb0EE16do_always_noconvEv
00000000003043f4 T _ZNKSt6__ndk115__codecvt_utf16IwLb0EE5do_inER9mbstate_tPKcS5_RS5_PwS7_RS7_
000000000030431c T _ZNKSt6__ndk115__codecvt_utf16IwLb0EE6do_outER9mbstate_tPKwS5_RS5_PcS7_RS7_
0000000000304518 T _ZNKSt6__ndk115__codecvt_utf16IwLb0EE9do_lengthER9mbstate_tPKcS5_m
00000000003047fc T _ZNKSt6__ndk115__codecvt_utf16IwLb1EE10do_unshiftER9mbstate_tPcS4_RS4_
000000000030480c T _ZNKSt6__ndk115__codecvt_utf16IwLb1EE11do_encodingEv
0000000000304918 T _ZNKSt6__ndk115__codecvt_utf16IwLb1EE13do_max_lengthEv
0000000000304818 T _ZNKSt6__ndk115__codecvt_utf16IwLb1EE16do_always_noconvEv
0000000000304700 T _ZNKSt6__ndk115__codecvt_utf16IwLb1EE5do_inER9mbstate_tPKcS5_RS5_PwS7_RS7_
0000000000304628 T _ZNKSt6__ndk115__codecvt_utf16IwLb1EE6do_outER9mbstate_tPKwS5_RS5_PcS7_RS7_
0000000000304824 T _ZNKSt6__ndk115__codecvt_utf16IwLb1EE9do_lengthER9mbstate_tPKcS5_m
00000000002d0090 T _ZNKSt6__ndk115error_condition7messageEv
00000000002f0d4c W _ZNKSt6__ndk117moneypunct_bynameIcLb0EE11do_groupingEv
00000000002f0e24 W _ZNKSt6__ndk117moneypunct_bynameIcLb0EE13do_neg_formatEv
00000000002f0e18 W _ZNKSt6__ndk117moneypunct_bynameIcLb0EE13do_pos_formatEv
00000000002f0d7c W _ZNKSt6__ndk117moneypunct_bynameIcLb0EE14do_curr_symbolEv
00000000002f0e0c W _ZNKSt6__ndk117moneypunct_bynameIcLb0EE14do_frac_digitsEv
00000000002f0d34 W _ZNKSt6__ndk117moneypunct_bynameIcLb0EE16do_decimal_pointEv
00000000002f0ddc W _ZNKSt6__ndk117moneypunct_bynameIcLb0EE16do_negative_signEv
00000000002f0dac W _ZNKSt6__ndk117moneypunct_bynameIcLb0EE16do_positive_signEv
00000000002f0d40 W _ZNKSt6__ndk117moneypunct_bynameIcLb0EE16do_thousands_sepEv
00000000002f0e48 W _ZNKSt6__ndk117moneypunct_bynameIcLb1EE11do_groupingEv
00000000002f0f20 W _ZNKSt6__ndk117moneypunct_bynameIcLb1EE13do_neg_formatEv
00000000002f0f14 W _ZNKSt6__ndk117moneypunct_bynameIcLb1EE13do_pos_formatEv
00000000002f0e78 W _ZNKSt6__ndk117moneypunct_bynameIcLb1EE14do_curr_symbolEv
00000000002f0f08 W _ZNKSt6__ndk117moneypunct_bynameIcLb1EE14do_frac_digitsEv
00000000002f0e30 W _ZNKSt6__ndk117moneypunct_bynameIcLb1EE16do_decimal_pointEv
00000000002f0ed8 W _ZNKSt6__ndk117moneypunct_bynameIcLb1EE16do_negative_signEv
00000000002f0ea8 W _ZNKSt6__ndk117moneypunct_bynameIcLb1EE16do_positive_signEv
00000000002f0e3c W _ZNKSt6__ndk117moneypunct_bynameIcLb1EE16do_thousands_sepEv
00000000002f0f44 W _ZNKSt6__ndk117moneypunct_bynameIwLb0EE11do_groupingEv
00000000002f101c W _ZNKSt6__ndk117moneypunct_bynameIwLb0EE13do_neg_formatEv
00000000002f1010 W _ZNKSt6__ndk117moneypunct_bynameIwLb0EE13do_pos_formatEv
00000000002f0f74 W _ZNKSt6__ndk117moneypunct_bynameIwLb0EE14do_curr_symbolEv
00000000002f1004 W _ZNKSt6__ndk117moneypunct_bynameIwLb0EE14do_frac_digitsEv
00000000002f0f2c W _ZNKSt6__ndk117moneypunct_bynameIwLb0EE16do_decimal_pointEv
00000000002f0fd4 W _ZNKSt6__ndk117moneypunct_bynameIwLb0EE16do_negative_signEv
00000000002f0fa4 W _ZNKSt6__ndk117moneypunct_bynameIwLb0EE16do_positive_signEv
00000000002f0f38 W _ZNKSt6__ndk117moneypunct_bynameIwLb0EE16do_thousands_sepEv
00000000002f1040 W _ZNKSt6__ndk117moneypunct_bynameIwLb1EE11do_groupingEv
00000000002f1118 W _ZNKSt6__ndk117moneypunct_bynameIwLb1EE13do_neg_formatEv
00000000002f110c W _ZNKSt6__ndk117moneypunct_bynameIwLb1EE13do_pos_formatEv
00000000002f1070 W _ZNKSt6__ndk117moneypunct_bynameIwLb1EE14do_curr_symbolEv
00000000002f1100 W _ZNKSt6__ndk117moneypunct_bynameIwLb1EE14do_frac_digitsEv
00000000002f1028 W _ZNKSt6__ndk117moneypunct_bynameIwLb1EE16do_decimal_pointEv
00000000002f10d0 W _ZNKSt6__ndk117moneypunct_bynameIwLb1EE16do_negative_signEv
00000000002f10a0 W _ZNKSt6__ndk117moneypunct_bynameIwLb1EE16do_positive_signEv
00000000002f1034 W _ZNKSt6__ndk117moneypunct_bynameIwLb1EE16do_thousands_sepEv
000000000030bef0 T _ZNKSt6__ndk118__time_get_storageIcE15__do_date_orderEv
000000000030c188 T _ZNKSt6__ndk118__time_get_storageIwE15__do_date_orderEv
0000000000305b74 T _ZNKSt6__ndk120__codecvt_utf8_utf16IDiE10do_unshiftER9mbstate_tPcS4_RS4_
0000000000305b84 T _ZNKSt6__ndk120__codecvt_utf8_utf16IDiE11do_encodingEv
0000000000305bbc T _ZNKSt6__ndk120__codecvt_utf8_utf16IDiE13do_max_lengthEv
0000000000305b90 T _ZNKSt6__ndk120__codecvt_utf8_utf16IDiE16do_always_noconvEv
0000000000305b04 T _ZNKSt6__ndk120__codecvt_utf8_utf16IDiE5do_inER9mbstate_tPKcS5_RS5_PDiS7_RS7_
0000000000305a94 T _ZNKSt6__ndk120__codecvt_utf8_utf16IDiE6do_outER9mbstate_tPKDiS5_RS5_PcS7_RS7_
0000000000305b9c T _ZNKSt6__ndk120__codecvt_utf8_utf16IDiE9do_lengthER9mbstate_tPKcS5_m
0000000000305a30 T _ZNKSt6__ndk120__codecvt_utf8_utf16IDsE10do_unshiftER9mbstate_tPcS4_RS4_
0000000000305a40 T _ZNKSt6__ndk120__codecvt_utf8_utf16IDsE11do_encodingEv
0000000000305a78 T _ZNKSt6__ndk120__codecvt_utf8_utf16IDsE13do_max_lengthEv
0000000000305a4c T _ZNKSt6__ndk120__codecvt_utf8_utf16IDsE16do_always_noconvEv
00000000003059c0 T _ZNKSt6__ndk120__codecvt_utf8_utf16IDsE5do_inER9mbstate_tPKcS5_RS5_PDsS7_RS7_
0000000000305950 T _ZNKSt6__ndk120__codecvt_utf8_utf16IDsE6do_outER9mbstate_tPKDsS5_RS5_PcS7_RS7_
0000000000305a58 T _ZNKSt6__ndk120__codecvt_utf8_utf16IDsE9do_lengthER9mbstate_tPKcS5_m
00000000003058ec T _ZNKSt6__ndk120__codecvt_utf8_utf16IwE10do_unshiftER9mbstate_tPcS4_RS4_
00000000003058fc T _ZNKSt6__ndk120__codecvt_utf8_utf16IwE11do_encodingEv
0000000000305934 T _ZNKSt6__ndk120__codecvt_utf8_utf16IwE13do_max_lengthEv
0000000000305908 T _ZNKSt6__ndk120__codecvt_utf8_utf16IwE16do_always_noconvEv
00000000003055f4 T _ZNKSt6__ndk120__codecvt_utf8_utf16IwE5do_inER9mbstate_tPKcS5_RS5_PwS7_RS7_
000000000030535c T _ZNKSt6__ndk120__codecvt_utf8_utf16IwE6do_outER9mbstate_tPKwS5_RS5_PcS7_RS7_
0000000000305914 T _ZNKSt6__ndk120__codecvt_utf8_utf16IwE9do_lengthER9mbstate_tPKcS5_m
000000000030826c T _ZNKSt6__ndk120__time_get_c_storageIcE3__cEv
0000000000308378 T _ZNKSt6__ndk120__time_get_c_storageIcE3__rEv
0000000000308054 T _ZNKSt6__ndk120__time_get_c_storageIcE3__xEv
0000000000308160 T _ZNKSt6__ndk120__time_get_c_storageIcE3__XEv
0000000000307db8 T _ZNKSt6__ndk120__time_get_c_storageIcE7__am_pmEv
00000000003068d8 T _ZNKSt6__ndk120__time_get_c_storageIcE7__weeksEv
00000000003070d0 T _ZNKSt6__ndk120__time_get_c_storageIcE8__monthsEv
00000000003082d8 T _ZNKSt6__ndk120__time_get_c_storageIwE3__cEv
00000000003083e4 T _ZNKSt6__ndk120__time_get_c_storageIwE3__rEv
00000000003080c0 T _ZNKSt6__ndk120__time_get_c_storageIwE3__xEv
00000000003081cc T _ZNKSt6__ndk120__time_get_c_storageIwE3__XEv
0000000000307f04 T _ZNKSt6__ndk120__time_get_c_storageIwE7__am_pmEv
0000000000306d7c T _ZNKSt6__ndk120__time_get_c_storageIwE7__weeksEv
0000000000307810 T _ZNKSt6__ndk120__time_get_c_storageIwE8__monthsEv
000000000031113c T _ZNKSt6__ndk123__match_any_but_newlineIcE6__execERNS_7__stateIcEE
000000000031118c T _ZNKSt6__ndk123__match_any_but_newlineIwE6__execERNS_7__stateIwEE
0000000000300c64 T _ZNKSt6__ndk15ctypeIcE10do_tolowerEc
0000000000300d08 T _ZNKSt6__ndk15ctypeIcE10do_tolowerEPcPKc
0000000000300af0 T _ZNKSt6__ndk15ctypeIcE10do_toupperEc
0000000000300b94 T _ZNKSt6__ndk15ctypeIcE10do_toupperEPcPKc
0000000000300dd8 T _ZNKSt6__ndk15ctypeIcE8do_widenEc
0000000000300de4 T _ZNKSt6__ndk15ctypeIcE8do_widenEPKcS3_Pc
0000000000300e68 T _ZNKSt6__ndk15ctypeIcE9do_narrowEcc
0000000000300e7c T _ZNKSt6__ndk15ctypeIcE9do_narrowEPKcS3_cPc
00000000003004b8 T _ZNKSt6__ndk15ctypeIwE10do_scan_isEmPKwS3_
000000000030075c T _ZNKSt6__ndk15ctypeIwE10do_tolowerEPwPKw
00000000003006b8 T _ZNKSt6__ndk15ctypeIwE10do_tolowerEw
00000000003005e8 T _ZNKSt6__ndk15ctypeIwE10do_toupperEPwPKw
000000000030053c T _ZNKSt6__ndk15ctypeIwE10do_toupperEw
00000000003004fc T _ZNKSt6__ndk15ctypeIwE11do_scan_notEmPKwS3_
0000000000300434 T _ZNKSt6__ndk15ctypeIwE5do_isEmw
0000000000300470 T _ZNKSt6__ndk15ctypeIwE5do_isEPKwS3_Pm
000000000030082c T _ZNKSt6__ndk15ctypeIwE8do_widenEc
0000000000300838 T _ZNKSt6__ndk15ctypeIwE8do_widenEPKcS3_Pw
000000000030091c T _ZNKSt6__ndk15ctypeIwE9do_narrowEPKwS3_cPc
000000000030090c T _ZNKSt6__ndk15ctypeIwE9do_narrowEwc
00000000002ff1fc T _ZNKSt6__ndk16locale4nameEv
00000000002ff4e8 T _ZNKSt6__ndk16locale9has_facetERNS0_2idE
00000000002ff5e0 T _ZNKSt6__ndk16locale9use_facetERNS0_2idE
00000000002ff668 T _ZNKSt6__ndk16localeeqERKS0_
00000000002857ec W _ZNKSt6__ndk16__treeINS_12__value_typeINS_12basic_stringIcNS_11char_traitsIcEENS_9allocatorIcEEEEiEENS_19__map_value_compareIS7_S8_NS_4lessIS7_EELb1EEENS5_IS8_EEE4findIS7_EENS_21__tree_const_iteratorIS8_PNS_11__tree_nodeIS8_PvEElEERKT_
0000000000301e54 T _ZNKSt6__ndk17codecvtIcc9mbstate_tE10do_unshiftERS1_PcS4_RS4_
0000000000301e64 T _ZNKSt6__ndk17codecvtIcc9mbstate_tE11do_encodingEv
0000000000301e90 T _ZNKSt6__ndk17codecvtIcc9mbstate_tE13do_max_lengthEv
0000000000301e70 T _ZNKSt6__ndk17codecvtIcc9mbstate_tE16do_always_noconvEv
0000000000301e40 T _ZNKSt6__ndk17codecvtIcc9mbstate_tE5do_inERS1_PKcS5_RS5_PcS7_RS7_
0000000000301e2c T _ZNKSt6__ndk17codecvtIcc9mbstate_tE6do_outERS1_PKcS5_RS5_PcS7_RS7_
0000000000301e7c T _ZNKSt6__ndk17codecvtIcc9mbstate_tE9do_lengthERS1_PKcS5_m
0000000000303804 T _ZNKSt6__ndk17codecvtIDic9mbstate_tE10do_unshiftERS1_PcS4_RS4_
0000000000303814 T _ZNKSt6__ndk17codecvtIDic9mbstate_tE11do_encodingEv
0000000000303a2c T _ZNKSt6__ndk17codecvtIDic9mbstate_tE13do_max_lengthEv
0000000000303820 T _ZNKSt6__ndk17codecvtIDic9mbstate_tE16do_always_noconvEv
0000000000303558 T _ZNKSt6__ndk17codecvtIDic9mbstate_tE5do_inERS1_PKcS5_RS5_PDiS7_RS7_
00000000003032a8 T _ZNKSt6__ndk17codecvtIDic9mbstate_tE6do_outERS1_PKDiS5_RS5_PcS7_RS7_
000000000030382c T _ZNKSt6__ndk17codecvtIDic9mbstate_tE9do_lengthERS1_PKcS5_m
0000000000303bf8 T _ZNKSt6__ndk17codecvtIDiDu9mbstate_tE10do_unshiftERS1_PDuS4_RS4_
0000000000303c08 T _ZNKSt6__ndk17codecvtIDiDu9mbstate_tE11do_encodingEv
0000000000303c3c T _ZNKSt6__ndk17codecvtIDiDu9mbstate_tE13do_max_lengthEv
0000000000303c14 T _ZNKSt6__ndk17codecvtIDiDu9mbstate_tE16do_always_noconvEv
0000000000303b90 T _ZNKSt6__ndk17codecvtIDiDu9mbstate_tE5do_inERS1_PKDuS5_RS5_PDiS7_RS7_
0000000000303a68 T _ZNKSt6__ndk17codecvtIDiDu9mbstate_tE6do_outERS1_PKDiS5_RS5_PDuS7_RS7_
0000000000303c20 T _ZNKSt6__ndk17codecvtIDiDu9mbstate_tE9do_lengthERS1_PKDuS5_m
0000000000302ed8 T _ZNKSt6__ndk17codecvtIDsc9mbstate_tE10do_unshiftERS1_PcS4_RS4_
0000000000302ee8 T _ZNKSt6__ndk17codecvtIDsc9mbstate_tE11do_encodingEv
000000000030311c T _ZNKSt6__ndk17codecvtIDsc9mbstate_tE13do_max_lengthEv
0000000000302ef4 T _ZNKSt6__ndk17codecvtIDsc9mbstate_tE16do_always_noconvEv
0000000000302be0 T _ZNKSt6__ndk17codecvtIDsc9mbstate_tE5do_inERS1_PKcS5_RS5_PDsS7_RS7_
0000000000302920 T _ZNKSt6__ndk17codecvtIDsc9mbstate_tE6do_outERS1_PKDsS5_RS5_PcS7_RS7_
0000000000302f00 T _ZNKSt6__ndk17codecvtIDsc9mbstate_tE9do_lengthERS1_PKcS5_m
0000000000303228 T _ZNKSt6__ndk17codecvtIDsDu9mbstate_tE10do_unshiftERS1_PDuS4_RS4_
0000000000303238 T _ZNKSt6__ndk17codecvtIDsDu9mbstate_tE11do_encodingEv
000000000030326c T _ZNKSt6__ndk17codecvtIDsDu9mbstate_tE13do_max_lengthEv
0000000000303244 T _ZNKSt6__ndk17codecvtIDsDu9mbstate_tE16do_always_noconvEv
00000000003031c0 T _ZNKSt6__ndk17codecvtIDsDu9mbstate_tE5do_inERS1_PKDuS5_RS5_PDsS7_RS7_
0000000000303158 T _ZNKSt6__ndk17codecvtIDsDu9mbstate_tE6do_outERS1_PKDsS5_RS5_PDuS7_RS7_
0000000000303250 T _ZNKSt6__ndk17codecvtIDsDu9mbstate_tE9do_lengthERS1_PKDuS5_m
00000000003025d0 T _ZNKSt6__ndk17codecvtIwc9mbstate_tE10do_unshiftERS1_PcS4_RS4_
00000000003026b0 T _ZNKSt6__ndk17codecvtIwc9mbstate_tE11do_encodingEv
0000000000302878 T _ZNKSt6__ndk17codecvtIwc9mbstate_tE13do_max_lengthEv
0000000000302774 T _ZNKSt6__ndk17codecvtIwc9mbstate_tE16do_always_noconvEv
0000000000302324 T _ZNKSt6__ndk17codecvtIwc9mbstate_tE5do_inERS1_PKcS5_RS5_PwS7_RS7_
0000000000302060 T _ZNKSt6__ndk17codecvtIwc9mbstate_tE6do_outERS1_PKwS5_RS5_PcS7_RS7_
0000000000302780 T _ZNKSt6__ndk17codecvtIwc9mbstate_tE9do_lengthERS1_PKcS5_m
00000000002ddfe8 W _ZNKSt6__ndk17collateIcE10do_compareEPKcS3_S3_S3_
00000000002de04c W _ZNKSt6__ndk17collateIcE12do_transformEPKcS3_
00000000002de0fc W _ZNKSt6__ndk17collateIcE7do_hashEPKcS3_
00000000002de16c W _ZNKSt6__ndk17collateIwE10do_compareEPKwS3_S3_S3_
00000000002de1c4 W _ZNKSt6__ndk17collateIwE12do_transformEPKwS3_
00000000002de280 W _ZNKSt6__ndk17collateIwE7do_hashEPKwS3_
00000000002de2b8 W _ZNKSt6__ndk17num_getIcNS_19istreambuf_iteratorIcNS_11char_traitsIcEEEEE6do_getES4_S4_RNS_8ios_baseERjRb
00000000002e15e0 W _ZNKSt6__ndk17num_getIcNS_19istreambuf_iteratorIcNS_11char_traitsIcEEEEE6do_getES4_S4_RNS_8ios_baseERjRd
00000000002e1c84 W _ZNKSt6__ndk17num_getIcNS_19istreambuf_iteratorIcNS_11char_traitsIcEEEEE6do_getES4_S4_RNS_8ios_baseERjRe
00000000002e0f3c W _ZNKSt6__ndk17num_getIcNS_19istreambuf_iteratorIcNS_11char_traitsIcEEEEE6do_getES4_S4_RNS_8ios_baseERjRf
00000000002de9d4 W _ZNKSt6__ndk17num_getIcNS_19istreambuf_iteratorIcNS_11char_traitsIcEEEEE6do_getES4_S4_RNS_8ios_baseERjRl
00000000002e02c4 W _ZNKSt6__ndk17num_getIcNS_19istreambuf_iteratorIcNS_11char_traitsIcEEEEE6do_getES4_S4_RNS_8ios_baseERjRm
00000000002e2328 W _ZNKSt6__ndk17num_getIcNS_19istreambuf_iteratorIcNS_11char_traitsIcEEEEE6do_getES4_S4_RNS_8ios_baseERjRPv
00000000002df64c W _ZNKSt6__ndk17num_getIcNS_19istreambuf_iteratorIcNS_11char_traitsIcEEEEE6do_getES4_S4_RNS_8ios_baseERjRt
00000000002df010 W _ZNKSt6__ndk17num_getIcNS_19istreambuf_iteratorIcNS_11char_traitsIcEEEEE6do_getES4_S4_RNS_8ios_baseERjRx
00000000002e0900 W _ZNKSt6__ndk17num_getIcNS_19istreambuf_iteratorIcNS_11char_traitsIcEEEEE6do_getES4_S4_RNS_8ios_baseERjRy
00000000002dfc88 W _ZNKSt6__ndk17num_getIcNS_19istreambuf_iteratorIcNS_11char_traitsIcEEEEE6do_getES4_S4_RNS_8ios_baseERjS8_
00000000002e2b68 W _ZNKSt6__ndk17num_getIwNS_19istreambuf_iteratorIwNS_11char_traitsIwEEEEE6do_getES4_S4_RNS_8ios_baseERjRb
00000000002e5e24 W _ZNKSt6__ndk17num_getIwNS_19istreambuf_iteratorIwNS_11char_traitsIwEEEEE6do_getES4_S4_RNS_8ios_baseERjRd
00000000002e64bc W _ZNKSt6__ndk17num_getIwNS_19istreambuf_iteratorIwNS_11char_traitsIwEEEEE6do_getES4_S4_RNS_8ios_baseERjRe
00000000002e578c W _ZNKSt6__ndk17num_getIwNS_19istreambuf_iteratorIwNS_11char_traitsIwEEEEE6do_getES4_S4_RNS_8ios_baseERjRf
00000000002e326c W _ZNKSt6__ndk17num_getIwNS_19istreambuf_iteratorIwNS_11char_traitsIwEEEEE6do_getES4_S4_RNS_8ios_baseERjRl
00000000002e4b2c W _ZNKSt6__ndk17num_getIwNS_19istreambuf_iteratorIwNS_11char_traitsIwEEEEE6do_getES4_S4_RNS_8ios_baseERjRm
00000000002e6b54 W _ZNKSt6__ndk17num_getIwNS_19istreambuf_iteratorIwNS_11char_traitsIwEEEEE6do_getES4_S4_RNS_8ios_baseERjRPv
00000000002e3ecc W _ZNKSt6__ndk17num_getIwNS_19istreambuf_iteratorIwNS_11char_traitsIwEEEEE6do_getES4_S4_RNS_8ios_baseERjRt
00000000002e389c W _ZNKSt6__ndk17num_getIwNS_19istreambuf_iteratorIwNS_11char_traitsIwEEEEE6do_getES4_S4_RNS_8ios_baseERjRx
00000000002e515c W _ZNKSt6__ndk17num_getIwNS_19istreambuf_iteratorIwNS_11char_traitsIwEEEEE6do_getES4_S4_RNS_8ios_baseERjRy
00000000002e44fc W _ZNKSt6__ndk17num_getIwNS_19istreambuf_iteratorIwNS_11char_traitsIwEEEEE6do_getES4_S4_RNS_8ios_baseERjS8_
00000000002e7d74 W _ZNKSt6__ndk17num_putIcNS_19ostreambuf_iteratorIcNS_11char_traitsIcEEEEE6do_putES4_RNS_8ios_baseEcb
00000000002e884c W _ZNKSt6__ndk17num_putIcNS_19ostreambuf_iteratorIcNS_11char_traitsIcEEEEE6do_putES4_RNS_8ios_baseEcd
00000000002e8cdc W _ZNKSt6__ndk17num_putIcNS_19ostreambuf_iteratorIcNS_11char_traitsIcEEEEE6do_putES4_RNS_8ios_baseEce
00000000002e7f54 W _ZNKSt6__ndk17num_putIcNS_19ostreambuf_iteratorIcNS_11char_traitsIcEEEEE6do_putES4_RNS_8ios_baseEcl
00000000002e83ec W _ZNKSt6__ndk17num_putIcNS_19ostreambuf_iteratorIcNS_11char_traitsIcEEEEE6do_putES4_RNS_8ios_baseEcm
00000000002e9164 W _ZNKSt6__ndk17num_putIcNS_19ostreambuf_iteratorIcNS_11char_traitsIcEEEEE6do_putES4_RNS_8ios_baseEcPKv
00000000002e81a0 W _ZNKSt6__ndk17num_putIcNS_19ostreambuf_iteratorIcNS_11char_traitsIcEEEEE6do_putES4_RNS_8ios_baseEcx
00000000002e861c W _ZNKSt6__ndk17num_putIcNS_19ostreambuf_iteratorIcNS_11char_traitsIcEEEEE6do_putES4_RNS_8ios_baseEcy
00000000002e94b8 W _ZNKSt6__ndk17num_putIwNS_19ostreambuf_iteratorIwNS_11char_traitsIwEEEEE6do_putES4_RNS_8ios_baseEwb
00000000002e9f98 W _ZNKSt6__ndk17num_putIwNS_19ostreambuf_iteratorIwNS_11char_traitsIwEEEEE6do_putES4_RNS_8ios_baseEwd
00000000002ea428 W _ZNKSt6__ndk17num_putIwNS_19ostreambuf_iteratorIwNS_11char_traitsIwEEEEE6do_putES4_RNS_8ios_baseEwe
00000000002e96a0 W _ZNKSt6__ndk17num_putIwNS_19ostreambuf_iteratorIwNS_11char_traitsIwEEEEE6do_putES4_RNS_8ios_baseEwl
00000000002e9b38 W _ZNKSt6__ndk17num_putIwNS_19ostreambuf_iteratorIwNS_11char_traitsIwEEEEE6do_putES4_RNS_8ios_baseEwm
00000000002ea8b0 W _ZNKSt6__ndk17num_putIwNS_19ostreambuf_iteratorIwNS_11char_traitsIwEEEEE6do_putES4_RNS_8ios_baseEwPKv
00000000002e98ec W _ZNKSt6__ndk17num_putIwNS_19ostreambuf_iteratorIwNS_11char_traitsIwEEEEE6do_putES4_RNS_8ios_baseEwx
00000000002e9d68 W _ZNKSt6__ndk17num_putIwNS_19ostreambuf_iteratorIwNS_11char_traitsIwEEEEE6do_putES4_RNS_8ios_baseEwy
00000000002cf360 T _ZNKSt6__ndk18ios_base6getlocEv
00000000002f71b0 W _ZNKSt6__ndk18messagesIcE6do_getEliiRKNS_12basic_stringIcNS_11char_traitsIcEENS_9allocatorIcEEEE
00000000002f71a4 W _ZNKSt6__ndk18messagesIcE7do_openERKNS_12basic_stringIcNS_11char_traitsIcEENS_9allocatorIcEEEERKNS_6localeE
00000000002f71dc W _ZNKSt6__ndk18messagesIcE8do_closeEl
00000000002f71f0 W _ZNKSt6__ndk18messagesIwE6do_getEliiRKNS_12basic_stringIwNS_11char_traitsIwEENS_9allocatorIwEEEE
00000000002f71e4 W _ZNKSt6__ndk18messagesIwE7do_openERKNS_12basic_stringIcNS_11char_traitsIcEENS_9allocatorIcEEEERKNS_6localeE
00000000002f721c W _ZNKSt6__ndk18messagesIwE8do_closeEl
0000000000305e34 T _ZNKSt6__ndk18numpunctIcE11do_groupingEv
0000000000305e94 T _ZNKSt6__ndk18numpunctIcE11do_truenameEv
0000000000305f88 T _ZNKSt6__ndk18numpunctIcE12do_falsenameEv
0000000000305e04 T _ZNKSt6__ndk18numpunctIcE16do_decimal_pointEv
0000000000305e1c T _ZNKSt6__ndk18numpunctIcE16do_thousands_sepEv
0000000000305e64 T _ZNKSt6__ndk18numpunctIwE11do_groupingEv
0000000000305eb4 T _ZNKSt6__ndk18numpunctIwE11do_truenameEv
0000000000305fac T _ZNKSt6__ndk18numpunctIwE12do_falsenameEv
0000000000305e10 T _ZNKSt6__ndk18numpunctIwE16do_decimal_pointEv
0000000000305e28 T _ZNKSt6__ndk18numpunctIwE16do_thousands_sepEv
00000000002eda8c W _ZNKSt6__ndk18time_getIcNS_19istreambuf_iteratorIcNS_11char_traitsIcEEEEE10__get_hourERiRS4_S4_RjRKNS_5ctypeIcEE
00000000002ed344 W _ZNKSt6__ndk18time_getIcNS_19istreambuf_iteratorIcNS_11char_traitsIcEEEEE10__get_yearERiRS4_S4_RjRKNS_5ctypeIcEE
00000000002ecd8c W _ZNKSt6__ndk18time_getIcNS_19istreambuf_iteratorIcNS_11char_traitsIcEEEEE11do_get_dateES4_S4_RNS_8ios_baseERjP2tm
00000000002ecd48 W _ZNKSt6__ndk18time_getIcNS_19istreambuf_iteratorIcNS_11char_traitsIcEEEEE11do_get_timeES4_S4_RNS_8ios_baseERjP2tm
00000000002ed228 W _ZNKSt6__ndk18time_getIcNS_19istreambuf_iteratorIcNS_11char_traitsIcEEEEE11do_get_yearES4_S4_RNS_8ios_baseERjP2tm
00000000002ede5c W _ZNKSt6__ndk18time_getIcNS_19istreambuf_iteratorIcNS_11char_traitsIcEEEEE11__get_am_pmERiRS4_S4_RjRKNS_5ctypeIcEE
00000000002edbb0 W _ZNKSt6__ndk18time_getIcNS_19istreambuf_iteratorIcNS_11char_traitsIcEEEEE11__get_monthERiRS4_S4_RjRKNS_5ctypeIcEE
00000000002ee004 W _ZNKSt6__ndk18time_getIcNS_19istreambuf_iteratorIcNS_11char_traitsIcEEEEE11__get_year4ERiRS4_S4_RjRKNS_5ctypeIcEE
00000000002edc14 W _ZNKSt6__ndk18time_getIcNS_19istreambuf_iteratorIcNS_11char_traitsIcEEEEE12__get_minuteERiRS4_S4_RjRKNS_5ctypeIcEE
00000000002edf44 W _ZNKSt6__ndk18time_getIcNS_19istreambuf_iteratorIcNS_11char_traitsIcEEEEE12__get_secondERiRS4_S4_RjRKNS_5ctypeIcEE
00000000002ecd3c W _ZNKSt6__ndk18time_getIcNS_19istreambuf_iteratorIcNS_11char_traitsIcEEEEE13do_date_orderEv
00000000002edaec W _ZNKSt6__ndk18time_getIcNS_19istreambuf_iteratorIcNS_11char_traitsIcEEEEE13__get_12_hourERiRS4_S4_RjRKNS_5ctypeIcEE
00000000002ee054 W _ZNKSt6__ndk18time_getIcNS_19istreambuf_iteratorIcNS_11char_traitsIcEEEEE13__get_percentERS4_S4_RjRKNS_5ctypeIcEE
00000000002edfa4 W _ZNKSt6__ndk18time_getIcNS_19istreambuf_iteratorIcNS_11char_traitsIcEEEEE13__get_weekdayERiRS4_S4_RjRKNS_5ctypeIcEE
00000000002ece18 W _ZNKSt6__ndk18time_getIcNS_19istreambuf_iteratorIcNS_11char_traitsIcEEEEE14do_get_weekdayES4_S4_RNS_8ios_baseERjP2tm
00000000002ed178 W _ZNKSt6__ndk18time_getIcNS_19istreambuf_iteratorIcNS_11char_traitsIcEEEEE15__get_monthnameERiRS4_S4_RjRKNS_5ctypeIcEE
00000000002ed02c W _ZNKSt6__ndk18time_getIcNS_19istreambuf_iteratorIcNS_11char_traitsIcEEEEE16do_get_monthnameES4_S4_RNS_8ios_baseERjP2tm
00000000002ecf70 W _ZNKSt6__ndk18time_getIcNS_19istreambuf_iteratorIcNS_11char_traitsIcEEEEE17__get_weekdaynameERiRS4_S4_RjRKNS_5ctypeIcEE
00000000002edc74 W _ZNKSt6__ndk18time_getIcNS_19istreambuf_iteratorIcNS_11char_traitsIcEEEEE17__get_white_spaceERS4_S4_RjRKNS_5ctypeIcEE
00000000002edb50 W _ZNKSt6__ndk18time_getIcNS_19istreambuf_iteratorIcNS_11char_traitsIcEEEEE18__get_day_year_numERiRS4_S4_RjRKNS_5ctypeIcEE
00000000002ec864 W _ZNKSt6__ndk18time_getIcNS_19istreambuf_iteratorIcNS_11char_traitsIcEEEEE3getES4_S4_RNS_8ios_baseERjP2tmPKcSC_
00000000002ed3ac W _ZNKSt6__ndk18time_getIcNS_19istreambuf_iteratorIcNS_11char_traitsIcEEEEE6do_getES4_S4_RNS_8ios_baseERjP2tmcc
00000000002eda28 W _ZNKSt6__ndk18time_getIcNS_19istreambuf_iteratorIcNS_11char_traitsIcEEEEE9__get_dayERiRS4_S4_RjRKNS_5ctypeIcEE
00000000002ef7ac W _ZNKSt6__ndk18time_getIwNS_19istreambuf_iteratorIwNS_11char_traitsIwEEEEE10__get_hourERiRS4_S4_RjRKNS_5ctypeIwEE
00000000002ef074 W _ZNKSt6__ndk18time_getIwNS_19istreambuf_iteratorIwNS_11char_traitsIwEEEEE10__get_yearERiRS4_S4_RjRKNS_5ctypeIwEE
00000000002eeab8 W _ZNKSt6__ndk18time_getIwNS_19istreambuf_iteratorIwNS_11char_traitsIwEEEEE11do_get_dateES4_S4_RNS_8ios_baseERjP2tm
00000000002eea78 W _ZNKSt6__ndk18time_getIwNS_19istreambuf_iteratorIwNS_11char_traitsIwEEEEE11do_get_timeES4_S4_RNS_8ios_baseERjP2tm
00000000002eef58 W _ZNKSt6__ndk18time_getIwNS_19istreambuf_iteratorIwNS_11char_traitsIwEEEEE11do_get_yearES4_S4_RNS_8ios_baseERjP2tm
00000000002efb84 W _ZNKSt6__ndk18time_getIwNS_19istreambuf_iteratorIwNS_11char_traitsIwEEEEE11__get_am_pmERiRS4_S4_RjRKNS_5ctypeIwEE
00000000002ef8d0 W _ZNKSt6__ndk18time_getIwNS_19istreambuf_iteratorIwNS_11char_traitsIwEEEEE11__get_monthERiRS4_S4_RjRKNS_5ctypeIwEE
00000000002efd2c W _ZNKSt6__ndk18time_getIwNS_19istreambuf_iteratorIwNS_11char_traitsIwEEEEE11__get_year4ERiRS4_S4_RjRKNS_5ctypeIwEE
00000000002ef934 W _ZNKSt6__ndk18time_getIwNS_19istreambuf_iteratorIwNS_11char_traitsIwEEEEE12__get_minuteERiRS4_S4_RjRKNS_5ctypeIwEE
00000000002efc6c W _ZNKSt6__ndk18time_getIwNS_19istreambuf_iteratorIwNS_11char_traitsIwEEEEE12__get_secondERiRS4_S4_RjRKNS_5ctypeIwEE
00000000002eea6c W _ZNKSt6__ndk18time_getIwNS_19istreambuf_iteratorIwNS_11char_traitsIwEEEEE13do_date_orderEv
00000000002ef80c W _ZNKSt6__ndk18time_getIwNS_19istreambuf_iteratorIwNS_11char_traitsIwEEEEE13__get_12_hourERiRS4_S4_RjRKNS_5ctypeIwEE
00000000002efd7c W _ZNKSt6__ndk18time_getIwNS_19istreambuf_iteratorIwNS_11char_traitsIwEEEEE13__get_percentERS4_S4_RjRKNS_5ctypeIwEE
00000000002efccc W _ZNKSt6__ndk18time_getIwNS_19istreambuf_iteratorIwNS_11char_traitsIwEEEEE13__get_weekdayERiRS4_S4_RjRKNS_5ctypeIwEE
00000000002eeb48 W _ZNKSt6__ndk18time_getIwNS_19istreambuf_iteratorIwNS_11char_traitsIwEEEEE14do_get_weekdayES4_S4_RNS_8ios_baseERjP2tm
00000000002eeea8 W _ZNKSt6__ndk18time_getIwNS_19istreambuf_iteratorIwNS_11char_traitsIwEEEEE15__get_monthnameERiRS4_S4_RjRKNS_5ctypeIwEE
00000000002eed5c W _ZNKSt6__ndk18time_getIwNS_19istreambuf_iteratorIwNS_11char_traitsIwEEEEE16do_get_monthnameES4_S4_RNS_8ios_baseERjP2tm
00000000002eeca0 W _ZNKSt6__ndk18time_getIwNS_19istreambuf_iteratorIwNS_11char_traitsIwEEEEE17__get_weekdaynameERiRS4_S4_RjRKNS_5ctypeIwEE
00000000002ef994 W _ZNKSt6__ndk18time_getIwNS_19istreambuf_iteratorIwNS_11char_traitsIwEEEEE17__get_white_spaceERS4_S4_RjRKNS_5ctypeIwEE
00000000002ef870 W _ZNKSt6__ndk18time_getIwNS_19istreambuf_iteratorIwNS_11char_traitsIwEEEEE18__get_day_year_numERiRS4_S4_RjRKNS_5ctypeIwEE
00000000002ee584 W _ZNKSt6__ndk18time_getIwNS_19istreambuf_iteratorIwNS_11char_traitsIwEEEEE3getES4_S4_RNS_8ios_baseERjP2tmPKwSC_
00000000002ef0dc W _ZNKSt6__ndk18time_getIwNS_19istreambuf_iteratorIwNS_11char_traitsIwEEEEE6do_getES4_S4_RNS_8ios_baseERjP2tmcc
00000000002ef748 W _ZNKSt6__ndk18time_getIwNS_19istreambuf_iteratorIwNS_11char_traitsIwEEEEE9__get_dayERiRS4_S4_RjRKNS_5ctypeIwEE
00000000002f02c8 W _ZNKSt6__ndk18time_putIcNS_19ostreambuf_iteratorIcNS_11char_traitsIcEEEEE3putES4_RNS_8ios_baseEcPK2tmPKcSC_
00000000002f0564 W _ZNKSt6__ndk18time_putIcNS_19ostreambuf_iteratorIcNS_11char_traitsIcEEEEE6do_putES4_RNS_8ios_baseEcPK2tmcc
00000000002f06a4 W _ZNKSt6__ndk18time_putIwNS_19ostreambuf_iteratorIwNS_11char_traitsIwEEEEE3putES4_RNS_8ios_baseEwPK2tmPKwSC_
00000000002f0950 W _ZNKSt6__ndk18time_putIwNS_19ostreambuf_iteratorIwNS_11char_traitsIwEEEEE6do_putES4_RNS_8ios_baseEwPK2tmcc
00000000002f1124 W _ZNKSt6__ndk19money_getIcNS_19istreambuf_iteratorIcNS_11char_traitsIcEEEEE6do_getES4_S4_bRNS_8ios_baseERjRe
00000000002f2668 W _ZNKSt6__ndk19money_getIcNS_19istreambuf_iteratorIcNS_11char_traitsIcEEEEE6do_getES4_S4_bRNS_8ios_baseERjRNS_12basic_stringIcS3_NS_9allocatorIcEEEE
00000000002f3128 W _ZNKSt6__ndk19money_getIwNS_19istreambuf_iteratorIwNS_11char_traitsIwEEEEE6do_getES4_S4_bRNS_8ios_baseERjRe
00000000002f47bc W _ZNKSt6__ndk19money_getIwNS_19istreambuf_iteratorIwNS_11char_traitsIwEEEEE6do_getES4_S4_bRNS_8ios_baseERjRNS_12basic_stringIwS3_NS_9allocatorIwEEEE
00000000002f50bc W _ZNKSt6__ndk19money_putIcNS_19ostreambuf_iteratorIcNS_11char_traitsIcEEEEE6do_putES4_bRNS_8ios_baseEce
00000000002f5e4c W _ZNKSt6__ndk19money_putIcNS_19ostreambuf_iteratorIcNS_11char_traitsIcEEEEE6do_putES4_bRNS_8ios_baseEcRKNS_12basic_stringIcS3_NS_9allocatorIcEEEE
00000000002f6200 W _ZNKSt6__ndk19money_putIwNS_19ostreambuf_iteratorIwNS_11char_traitsIwEEEEE6do_putES4_bRNS_8ios_baseEwe
00000000002f6dd0 W _ZNKSt6__ndk19money_putIwNS_19ostreambuf_iteratorIwNS_11char_traitsIwEEEEE6do_putES4_bRNS_8ios_baseEwRKNS_12basic_stringIwS3_NS_9allocatorIwEEEE
000000000018bc64 W _ZNSt6__ndk110__back_refIcED0Ev
0000000000289f04 W _ZNSt6__ndk110__back_refIwED0Ev
000000000010bea8 R _ZNSt6__ndk110ctype_base5alnumE
000000000010be80 R _ZNSt6__ndk110ctype_base5alphaE
000000000010bea0 R _ZNSt6__ndk110ctype_base5blankE
000000000010be68 R _ZNSt6__ndk110ctype_base5cntrlE
000000000010be88 R _ZNSt6__ndk110ctype_base5digitE
000000000010beb0 R _ZNSt6__ndk110ctype_base5graphE
000000000010be78 R _ZNSt6__ndk110ctype_base5lowerE
000000000010be60 R _ZNSt6__ndk110ctype_base5printE
000000000010be90 R _ZNSt6__ndk110ctype_base5punctE
000000000010be58 R _ZNSt6__ndk110ctype_base5spaceE
000000000010be70 R _ZNSt6__ndk110ctype_base5upperE
000000000010be98 R _ZNSt6__ndk110ctype_base6xdigitE
000000000019e6fc W _ZNSt6__ndk110__function6__funcIPFP11ggml_tensorP12ggml_contextS3_S3_ENS_9allocatorIS7_EES6_ED0Ev
0000000000333130 V _ZNSt6__ndk110moneypunctIcLb0EE2idE
000000000010be30 V _ZNSt6__ndk110moneypunctIcLb0EE4intlE
0000000000333140 V _ZNSt6__ndk110moneypunctIcLb1EE2idE
000000000010be31 V _ZNSt6__ndk110moneypunctIcLb1EE4intlE
0000000000333150 V _ZNSt6__ndk110moneypunctIwLb0EE2idE
000000000010be32 V _ZNSt6__ndk110moneypunctIwLb0EE4intlE
0000000000333160 V _ZNSt6__ndk110moneypunctIwLb1EE2idE
000000000010be33 V _ZNSt6__ndk110moneypunctIwLb1EE4intlE
0000000000308484 T _ZNSt6__ndk110__time_getC1EPKc
000000000030855c T _ZNSt6__ndk110__time_getC1ERKNS_12basic_stringIcNS_11char_traitsIcEENS_9allocatorIcEEEE
0000000000308484 T _ZNSt6__ndk110__time_getC2EPKc
000000000030855c T _ZNSt6__ndk110__time_getC2ERKNS_12basic_stringIcNS_11char_traitsIcEENS_9allocatorIcEEEE
0000000000308600 T _ZNSt6__ndk110__time_getD1Ev
0000000000308600 T _ZNSt6__ndk110__time_getD2Ev
000000000030c420 T _ZNSt6__ndk110__time_putC1EPKc
000000000030c4f8 T _ZNSt6__ndk110__time_putC1ERKNS_12basic_stringIcNS_11char_traitsIcEENS_9allocatorIcEEEE
000000000030c420 T _ZNSt6__ndk110__time_putC2EPKc
000000000030c4f8 T _ZNSt6__ndk110__time_putC2ERKNS_12basic_stringIcNS_11char_traitsIcEENS_9allocatorIcEEEE
000000000030c59c T _ZNSt6__ndk110__time_putD1Ev
000000000030c59c T _ZNSt6__ndk110__time_putD2Ev
000000000018fc30 W _ZNSt6__ndk111__alternateIcED0Ev
000000000028e8a4 W _ZNSt6__ndk111__alternateIwED0Ev
000000000018b448 W _ZNSt6__ndk111basic_regexIcNS_12regex_traitsIcEEE11__push_charEc
000000000018f694 W _ZNSt6__ndk111basic_regexIcNS_12regex_traitsIcEEE11__push_loopEmmPNS_16__owns_one_stateIcEEmmb
0000000000189c08 W _ZNSt6__ndk111basic_regexIcNS_12regex_traitsIcEEE12__parse_atomINS_11__wrap_iterIPKcEEEET_S9_S9_
00000000001cf1bc W _ZNSt6__ndk111basic_regexIcNS_12regex_traitsIcEEE12__parse_atomIPKcEET_S7_S7_
00000000001893d8 W _ZNSt6__ndk111basic_regexIcNS_12regex_traitsIcEEE12__parse_grepINS_11__wrap_iterIPKcEEEET_S9_S9_
00000000001ce9c0 W _ZNSt6__ndk111basic_regexIcNS_12regex_traitsIcEEE12__parse_grepIPKcEET_S7_S7_
00000000001cedd8 W _ZNSt6__ndk111basic_regexIcNS_12regex_traitsIcEEE12__parse_termIPKcEET_S7_S7_
0000000000189594 W _ZNSt6__ndk111basic_regexIcNS_12regex_traitsIcEEE13__parse_egrepINS_11__wrap_iterIPKcEEEET_S9_S9_
00000000001ceb7c W _ZNSt6__ndk111basic_regexIcNS_12regex_traitsIcEEE13__parse_egrepIPKcEET_S7_S7_
000000000018b5d8 W _ZNSt6__ndk111basic_regexIcNS_12regex_traitsIcEEE15__push_back_refEi
0000000000190410 W _ZNSt6__ndk111basic_regexIcNS_12regex_traitsIcEEE15__test_back_refEc
0000000000188e58 W _ZNSt6__ndk111basic_regexIcNS_12regex_traitsIcEEE16__parse_ecma_expINS_11__wrap_iterIPKcEEEET_S9_S9_
00000000001ce4f8 W _ZNSt6__ndk111basic_regexIcNS_12regex_traitsIcEEE16__parse_ecma_expIPKcEET_S7_S7_
000000000018a290 W _ZNSt6__ndk111basic_regexIcNS_12regex_traitsIcEEE16__push_lookaheadERKS3_bj
00000000001898c8 W _ZNSt6__ndk111basic_regexIcNS_12regex_traitsIcEEE17__parse_assertionINS_11__wrap_iterIPKcEEEET_S9_S9_
00000000001cee6c W _ZNSt6__ndk111basic_regexIcNS_12regex_traitsIcEEE17__parse_assertionIPKcEET_S7_S7_
000000000018de38 W _ZNSt6__ndk111basic_regexIcNS_12regex_traitsIcEEE18__parse_awk_escapeINS_11__wrap_iterIPKcEEEET_S9_S9_PNS_12basic_stringIcNS_11char_traitsIcEENS_9allocatorIcEEEE
00000000001d0d58 W _ZNSt6__ndk111basic_regexIcNS_12regex_traitsIcEEE18__parse_awk_escapeIPKcEET_S7_S7_PNS_12basic_stringIcNS_11char_traitsIcEENS_9allocatorIcEEEE
000000000018fd38 W _ZNSt6__ndk111basic_regexIcNS_12regex_traitsIcEEE18__parse_nondupl_REINS_11__wrap_iterIPKcEEEET_S9_S9_
00000000001d1454 W _ZNSt6__ndk111basic_regexIcNS_12regex_traitsIcEEE18__parse_nondupl_REIPKcEET_S7_S7_
00000000001ced38 W _ZNSt6__ndk111basic_regexIcNS_12regex_traitsIcEEE19__parse_alternativeIPKcEET_S7_S7_
000000000018a9a0 W _ZNSt6__ndk111basic_regexIcNS_12regex_traitsIcEEE19__parse_atom_escapeINS_11__wrap_iterIPKcEEEET_S9_S9_
00000000001cf7fc W _ZNSt6__ndk111basic_regexIcNS_12regex_traitsIcEEE19__parse_atom_escapeIPKcEET_S7_S7_
000000000018dcb8 W _ZNSt6__ndk111basic_regexIcNS_12regex_traitsIcEEE20__parse_class_escapeINS_11__wrap_iterIPKcEEEET_S9_S9_RNS_12basic_stringIcNS_11char_traitsIcEENS_9allocatorIcEEEEPNS_20__bracket_expressionIcS2_EE
00000000001d0bdc W _ZNSt6__ndk111basic_regexIcNS_12regex_traitsIcEEE20__parse_class_escapeIPKcEET_S7_S7_RNS_12basic_stringIcNS_11char_traitsIcEENS_9allocatorIcEEEEPNS_20__bracket_expressionIcS2_EE
00000000001890c4 W _ZNSt6__ndk111basic_regexIcNS_12regex_traitsIcEEE21__parse_basic_reg_expINS_11__wrap_iterIPKcEEEET_S9_S9_
00000000001ce6c8 W _ZNSt6__ndk111basic_regexIcNS_12regex_traitsIcEEE21__parse_basic_reg_expIPKcEET_S7_S7_
0000000000190470 W _ZNSt6__ndk111basic_regexIcNS_12regex_traitsIcEEE22__parse_ERE_expressionINS_11__wrap_iterIPKcEEEET_S9_S9_
00000000001d1a04 W _ZNSt6__ndk111basic_regexIcNS_12regex_traitsIcEEE22__parse_ERE_expressionIPKcEET_S7_S7_
000000000018ff5c W _ZNSt6__ndk111basic_regexIcNS_12regex_traitsIcEEE22__parse_RE_dupl_symbolINS_11__wrap_iterIPKcEEEET_S9_S9_PNS_16__owns_one_stateIcEEjj
00000000001d1668 W _ZNSt6__ndk111basic_regexIcNS_12regex_traitsIcEEE22__parse_RE_dupl_symbolIPKcEET_S7_S7_PNS_16__owns_one_stateIcEEjj
000000000018dad0 W _ZNSt6__ndk111basic_regexIcNS_12regex_traitsIcEEE23__parse_character_classINS_11__wrap_iterIPKcEEEET_S9_S9_PNS_20__bracket_expressionIcS2_EE
0000000000189e94 W _ZNSt6__ndk111basic_regexIcNS_12regex_traitsIcEEE23__parse_ERE_dupl_symbolINS_11__wrap_iterIPKcEEEET_S9_S9_PNS_16__owns_one_stateIcEEjj
00000000001cf418 W _ZNSt6__ndk111basic_regexIcNS_12regex_traitsIcEEE23__parse_ERE_dupl_symbolIPKcEET_S7_S7_PNS_16__owns_one_stateIcEEjj
000000000018d314 W _ZNSt6__ndk111basic_regexIcNS_12regex_traitsIcEEE23__parse_expression_termINS_11__wrap_iterIPKcEEEET_S9_S9_PNS_20__bracket_expressionIcS2_EE
00000000001d01e4 W _ZNSt6__ndk111basic_regexIcNS_12regex_traitsIcEEE23__parse_expression_termIPKcEET_S7_S7_PNS_20__bracket_expressionIcS2_EE
00000000001907b4 W _ZNSt6__ndk111basic_regexIcNS_12regex_traitsIcEEE23__parse_QUOTED_CHAR_EREINS_11__wrap_iterIPKcEEEET_S9_S9_
00000000001d1d48 W _ZNSt6__ndk111basic_regexIcNS_12regex_traitsIcEEE23__parse_QUOTED_CHAR_EREIPKcEET_S7_S7_
000000000018b03c W _ZNSt6__ndk111basic_regexIcNS_12regex_traitsIcEEE24__parse_character_escapeINS_11__wrap_iterIPKcEEEET_S9_S9_PNS_12basic_stringIcNS_11char_traitsIcEENS_9allocatorIcEEEE
00000000001cfdcc W _ZNSt6__ndk111basic_regexIcNS_12regex_traitsIcEEE24__parse_character_escapeIPKcEET_S7_S7_PNS_12basic_stringIcNS_11char_traitsIcEENS_9allocatorIcEEEE
000000000018db84 W _ZNSt6__ndk111basic_regexIcNS_12regex_traitsIcEEE24__parse_collating_symbolINS_11__wrap_iterIPKcEEEET_S9_S9_RNS_12basic_stringIcNS_11char_traitsIcEENS_9allocatorIcEEEE
00000000001d0abc W _ZNSt6__ndk111basic_regexIcNS_12regex_traitsIcEEE24__parse_collating_symbolIPKcEET_S7_S7_RNS_12basic_stringIcNS_11char_traitsIcEENS_9allocatorIcEEEE
0000000000189268 W _ZNSt6__ndk111basic_regexIcNS_12regex_traitsIcEEE24__parse_extended_reg_expINS_11__wrap_iterIPKcEEEET_S9_S9_
00000000001ce858 W _ZNSt6__ndk111basic_regexIcNS_12regex_traitsIcEEE24__parse_extended_reg_expIPKcEET_S7_S7_
000000000018d7c4 W _ZNSt6__ndk111basic_regexIcNS_12regex_traitsIcEEE25__parse_equivalence_classINS_11__wrap_iterIPKcEEEET_S9_S9_PNS_20__bracket_expressionIcS2_EE
00000000001d07d0 W _ZNSt6__ndk111basic_regexIcNS_12regex_traitsIcEEE25__parse_equivalence_classIPKcEET_S7_S7_PNS_20__bracket_expressionIcS2_EE
000000000018acc0 W _ZNSt6__ndk111basic_regexIcNS_12regex_traitsIcEEE25__parse_pattern_characterINS_11__wrap_iterIPKcEEEET_S9_S9_
00000000001cfae8 W _ZNSt6__ndk111basic_regexIcNS_12regex_traitsIcEEE25__parse_pattern_characterIPKcEET_S7_S7_
000000000018ab10 W _ZNSt6__ndk111basic_regexIcNS_12regex_traitsIcEEE26__parse_bracket_expressionINS_11__wrap_iterIPKcEEEET_S9_S9_
00000000001cf984 W _ZNSt6__ndk111basic_regexIcNS_12regex_traitsIcEEE26__parse_bracket_expressionIPKcEET_S7_S7_
000000000018add0 W _ZNSt6__ndk111basic_regexIcNS_12regex_traitsIcEEE30__parse_character_class_escapeINS_11__wrap_iterIPKcEEEET_S9_S9_
00000000001cfb60 W _ZNSt6__ndk111basic_regexIcNS_12regex_traitsIcEEE30__parse_character_class_escapeIPKcEET_S7_S7_
00000000001901e4 W _ZNSt6__ndk111basic_regexIcNS_12regex_traitsIcEEE32__parse_one_char_or_coll_elem_REINS_11__wrap_iterIPKcEEEET_S9_S9_
00000000001d18dc W _ZNSt6__ndk111basic_regexIcNS_12regex_traitsIcEEE32__parse_one_char_or_coll_elem_REIPKcEET_S7_S7_
0000000000190668 W _ZNSt6__ndk111basic_regexIcNS_12regex_traitsIcEEE33__parse_one_char_or_coll_elem_EREINS_11__wrap_iterIPKcEEEET_S9_S9_
00000000001d1bfc W _ZNSt6__ndk111basic_regexIcNS_12regex_traitsIcEEE33__parse_one_char_or_coll_elem_EREIPKcEET_S7_S7_
0000000000188c24 W _ZNSt6__ndk111basic_regexIcNS_12regex_traitsIcEEE7__parseINS_11__wrap_iterIPKcEEEET_S9_S9_
00000000001ce1ac W _ZNSt6__ndk111basic_regexIcNS_12regex_traitsIcEEE7__parseIPKcEET_S7_S7_
0000000000180b18 W _ZNSt6__ndk111basic_regexIcNS_12regex_traitsIcEEEC2B8ne200000INS_11char_traitsIcEENS_9allocatorIcEEEERKNS_12basic_stringIcT_T0_EENS_15regex_constants18syntax_option_typeE
0000000000180be8 W _ZNSt6__ndk111basic_regexIcNS_12regex_traitsIcEEED2Ev
0000000000289738 W _ZNSt6__ndk111basic_regexIwNS_12regex_traitsIwEEE11__push_charEw
000000000028e3a0 W _ZNSt6__ndk111basic_regexIwNS_12regex_traitsIwEEE11__push_loopEmmPNS_16__owns_one_stateIwEEmmb
0000000000286ee0 W _ZNSt6__ndk111basic_regexIwNS_12regex_traitsIwEEE12__parse_atomINS_11__wrap_iterIPKwEEEET_S9_S9_
000000000028668c W _ZNSt6__ndk111basic_regexIwNS_12regex_traitsIwEEE12__parse_grepINS_11__wrap_iterIPKwEEEET_S9_S9_
0000000000286880 W _ZNSt6__ndk111basic_regexIwNS_12regex_traitsIwEEE13__parse_egrepINS_11__wrap_iterIPKwEEEET_S9_S9_
000000000028987c W _ZNSt6__ndk111basic_regexIwNS_12regex_traitsIwEEE15__push_back_refEi
000000000028f130 W _ZNSt6__ndk111basic_regexIwNS_12regex_traitsIwEEE15__test_back_refEw
000000000028610c W _ZNSt6__ndk111basic_regexIwNS_12regex_traitsIwEEE16__parse_ecma_expINS_11__wrap_iterIPKwEEEET_S9_S9_
0000000000287658 W _ZNSt6__ndk111basic_regexIwNS_12regex_traitsIwEEE16__push_lookaheadERKS3_bj
0000000000286ba0 W _ZNSt6__ndk111basic_regexIwNS_12regex_traitsIwEEE17__parse_assertionINS_11__wrap_iterIPKwEEEET_S9_S9_
000000000028c460 W _ZNSt6__ndk111basic_regexIwNS_12regex_traitsIwEEE18__parse_awk_escapeINS_11__wrap_iterIPKwEEEET_S9_S9_PNS_12basic_stringIwNS_11char_traitsIwEENS_9allocatorIwEEEE
000000000028e960 W _ZNSt6__ndk111basic_regexIwNS_12regex_traitsIwEEE18__parse_nondupl_REINS_11__wrap_iterIPKwEEEET_S9_S9_
0000000000288d14 W _ZNSt6__ndk111basic_regexIwNS_12regex_traitsIwEEE19__parse_atom_escapeINS_11__wrap_iterIPKwEEEET_S9_S9_
000000000028c2e0 W _ZNSt6__ndk111basic_regexIwNS_12regex_traitsIwEEE20__parse_class_escapeINS_11__wrap_iterIPKwEEEET_S9_S9_RNS_12basic_stringIwNS_11char_traitsIwEENS_9allocatorIwEEEEPNS_20__bracket_expressionIwS2_EE
0000000000286378 W _ZNSt6__ndk111basic_regexIwNS_12regex_traitsIwEEE21__parse_basic_reg_expINS_11__wrap_iterIPKwEEEET_S9_S9_
000000000028f1bc W _ZNSt6__ndk111basic_regexIwNS_12regex_traitsIwEEE22__parse_ERE_expressionINS_11__wrap_iterIPKwEEEET_S9_S9_
000000000028ebc4 W _ZNSt6__ndk111basic_regexIwNS_12regex_traitsIwEEE22__parse_RE_dupl_symbolINS_11__wrap_iterIPKwEEEET_S9_S9_PNS_16__owns_one_stateIwEEjj
000000000028c0f4 W _ZNSt6__ndk111basic_regexIwNS_12regex_traitsIwEEE23__parse_character_classINS_11__wrap_iterIPKwEEEET_S9_S9_PNS_20__bracket_expressionIwS2_EE
000000000028716c W _ZNSt6__ndk111basic_regexIwNS_12regex_traitsIwEEE23__parse_ERE_dupl_symbolINS_11__wrap_iterIPKwEEEET_S9_S9_PNS_16__owns_one_stateIwEEjj
000000000028b8f8 W _ZNSt6__ndk111basic_regexIwNS_12regex_traitsIwEEE23__parse_expression_termINS_11__wrap_iterIPKwEEEET_S9_S9_PNS_20__bracket_expressionIwS2_EE
000000000028f500 W _ZNSt6__ndk111basic_regexIwNS_12regex_traitsIwEEE23__parse_QUOTED_CHAR_EREINS_11__wrap_iterIPKwEEEET_S9_S9_
0000000000289308 W _ZNSt6__ndk111basic_regexIwNS_12regex_traitsIwEEE24__parse_character_escapeINS_11__wrap_iterIPKwEEEET_S9_S9_PNS_12basic_stringIwNS_11char_traitsIwEENS_9allocatorIwEEEE
000000000028c1a8 W _ZNSt6__ndk111basic_regexIwNS_12regex_traitsIwEEE24__parse_collating_symbolINS_11__wrap_iterIPKwEEEET_S9_S9_RNS_12basic_stringIwNS_11char_traitsIwEENS_9allocatorIwEEEE
000000000028651c W _ZNSt6__ndk111basic_regexIwNS_12regex_traitsIwEEE24__parse_extended_reg_expINS_11__wrap_iterIPKwEEEET_S9_S9_
000000000028bdd8 W _ZNSt6__ndk111basic_regexIwNS_12regex_traitsIwEEE25__parse_equivalence_classINS_11__wrap_iterIPKwEEEET_S9_S9_PNS_20__bracket_expressionIwS2_EE
0000000000288fd8 W _ZNSt6__ndk111basic_regexIwNS_12regex_traitsIwEEE25__parse_pattern_characterINS_11__wrap_iterIPKwEEEET_S9_S9_
0000000000288e74 W _ZNSt6__ndk111basic_regexIwNS_12regex_traitsIwEEE26__parse_bracket_expressionINS_11__wrap_iterIPKwEEEET_S9_S9_
000000000028909c W _ZNSt6__ndk111basic_regexIwNS_12regex_traitsIwEEE30__parse_character_class_escapeINS_11__wrap_iterIPKwEEEET_S9_S9_
000000000028ef04 W _ZNSt6__ndk111basic_regexIwNS_12regex_traitsIwEEE32__parse_one_char_or_coll_elem_REINS_11__wrap_iterIPKwEEEET_S9_S9_
000000000028f3b4 W _ZNSt6__ndk111basic_regexIwNS_12regex_traitsIwEEE33__parse_one_char_or_coll_elem_EREINS_11__wrap_iterIPKwEEEET_S9_S9_
0000000000285f24 W _ZNSt6__ndk111basic_regexIwNS_12regex_traitsIwEEE7__parseINS_11__wrap_iterIPKwEEEET_S9_S9_
0000000000285b64 W _ZNSt6__ndk111basic_regexIwNS_12regex_traitsIwEEEC2B8ne200000INS_11char_traitsIwEENS_9allocatorIwEEEERKNS_12basic_stringIwT_T0_EENS_15regex_constants18syntax_option_typeE
0000000000285e74 W _ZNSt6__ndk111basic_regexIwNS_12regex_traitsIwEEED2Ev
00000000002ce4c4 T _ZNSt6__ndk111__call_onceERVmPvPFvS2_E
000000000018979c W _ZNSt6__ndk111__end_stateIcED0Ev
0000000000286a74 W _ZNSt6__ndk111__end_stateIwED0Ev
00000000002767b0 W _ZNSt6__ndk111__introsortINS_17_ClassicAlgPolicyERZN20llm_tokenizer_plamo25buildERK11llama_vocabEUlRKNS_12basic_stringIcNS_11char_traitsIcEENS_9allocatorIcEEEESD_E_PSB_Lb0EEEvT1_SH_T0_NS_15iterator_traitsISH_E15difference_typeEb
000000000018a748 W _ZNSt6__ndk111__lookaheadIcNS_12regex_traitsIcEEED0Ev
000000000018a6b8 W _ZNSt6__ndk111__lookaheadIcNS_12regex_traitsIcEEED2Ev
0000000000287adc W _ZNSt6__ndk111__lookaheadIwNS_12regex_traitsIwEEED0Ev
0000000000287a4c W _ZNSt6__ndk111__lookaheadIwNS_12regex_traitsIwEEED2Ev
0000000000190384 W _ZNSt6__ndk111__match_anyIcED0Ev
000000000028f0a4 W _ZNSt6__ndk111__match_anyIwED0Ev
00000000002f2c1c W _ZNSt6__ndk111__money_getIcE13__gather_infoEbRKNS_6localeERNS_10money_base7patternERcS8_RNS_12basic_stringIcNS_11char_traitsIcEENS_9allocatorIcEEEESF_SF_SF_Ri
00000000002f4d84 W _ZNSt6__ndk111__money_getIwE13__gather_infoEbRKNS_6localeERNS_10money_base7patternERwS8_RNS_12basic_stringIcNS_11char_traitsIcEENS_9allocatorIcEEEERNS9_IwNSA_IwEENSC_IwEEEESJ_SJ_Ri
00000000002f5664 W _ZNSt6__ndk111__money_putIcE13__gather_infoEbbRKNS_6localeERNS_10money_base7patternERcS8_RNS_12basic_stringIcNS_11char_traitsIcEENS_9allocatorIcEEEESF_SF_Ri
00000000002f5890 W _ZNSt6__ndk111__money_putIcE8__formatEPcRS2_S3_jPKcS5_RKNS_5ctypeIcEEbRKNS_10money_base7patternEccRKNS_12basic_stringIcNS_11char_traitsIcEENS_9allocatorIcEEEESL_SL_i
00000000002f66f8 W _ZNSt6__ndk111__money_putIwE13__gather_infoEbbRKNS_6localeERNS_10money_base7patternERwS8_RNS_12basic_stringIcNS_11char_traitsIcEENS_9allocatorIcEEEERNS9_IwNSA_IwEENSC_IwEEEESJ_Ri
00000000002f692c W _ZNSt6__ndk111__money_putIwE8__formatEPwRS2_S3_jPKwS5_RKNS_5ctypeIwEEbRKNS_10money_base7patternEwwRKNS_12basic_stringIcNS_11char_traitsIcEENS_9allocatorIcEEEERKNSE_IwNSF_IwEENSH_IwEEEESQ_i
0000000000310f30 T _ZNSt6__ndk111regex_errorC1ENS_15regex_constants10error_typeE
0000000000310f30 T _ZNSt6__ndk111regex_errorC2ENS_15regex_constants10error_typeE
0000000000310fa4 T _ZNSt6__ndk111regex_errorD0Ev
0000000000310f9c T _ZNSt6__ndk111regex_errorD1Ev
0000000000310f9c T _ZNSt6__ndk111regex_errorD2Ev
0000000000300f1c T _ZNSt6__ndk112ctype_bynameIcEC1EPKcm
0000000000301014 T _ZNSt6__ndk112ctype_bynameIcEC1ERKNS_12basic_stringIcNS_11char_traitsIcEENS_9allocatorIcEEEEm
0000000000300f1c T _ZNSt6__ndk112ctype_bynameIcEC2EPKcm
0000000000301014 T _ZNSt6__ndk112ctype_bynameIcEC2ERKNS_12basic_stringIcNS_11char_traitsIcEENS_9allocatorIcEEEEm
00000000003010f0 T _ZNSt6__ndk112ctype_bynameIcED0Ev
000000000030b81c T _ZNSt6__ndk112ctype_bynameIcED1Ev
000000000030b81c T _ZNSt6__ndk112ctype_bynameIcED2Ev
00000000003013b0 T _ZNSt6__ndk112ctype_bynameIwEC1EPKcm
0000000000301498 T _ZNSt6__ndk112ctype_bynameIwEC1ERKNS_12basic_stringIcNS_11char_traitsIcEENS_9allocatorIcEEEEm
00000000003013b0 T _ZNSt6__ndk112ctype_bynameIwEC2EPKcm
0000000000301498 T _ZNSt6__ndk112ctype_bynameIwEC2ERKNS_12basic_stringIcNS_11char_traitsIcEENS_9allocatorIcEEEEm
0000000000301564 T _ZNSt6__ndk112ctype_bynameIwED0Ev
000000000030bc98 T _ZNSt6__ndk112ctype_bynameIwED1Ev
000000000030bc98 T _ZNSt6__ndk112ctype_bynameIwED2Ev
00000000002f1460 T _ZNSt6__ndk112__do_nothingEPv
000000000019de10 W _ZNSt6__ndk112__hash_tableIiNS_4hashIiEENS_8equal_toIiEENS_9allocatorIiEEE11__do_rehashILb1EEEvm
000000000019dae8 W _ZNSt6__ndk112__hash_tableIiNS_4hashIiEENS_8equal_toIiEENS_9allocatorIiEEE25__emplace_unique_key_argsIiJRKiEEENS_4pairINS_15__hash_iteratorIPNS_11__hash_nodeIiPvEEEEbEERKT_DpOT0_
0000000000279490 W _ZNSt6__ndk112__hash_tableIjNS_4hashIjEENS_8equal_toIjEENS_9allocatorIjEEE11__do_rehashILb1EEEvm
0000000000279188 W _ZNSt6__ndk112__hash_tableIjNS_4hashIjEENS_8equal_toIjEENS_9allocatorIjEEE25__emplace_unique_key_argsIjJRKjEEENS_4pairINS_15__hash_iteratorIPNS_11__hash_nodeIjPvEEEEbEERKT_DpOT0_
0000000000283720 W _ZNSt6__ndk112__hash_tableINS_17__hash_value_typeIhNS_12basic_stringIcNS_11char_traitsIcEENS_9allocatorIcEEEEEENS_22__unordered_map_hasherIhS8_NS_4hashIhEENS_8equal_toIhEELb1EEENS_21__unordered_map_equalIhS8_SD_SB_Lb1EEENS5_IS8_EEE11__do_rehashILb1EEEvm
0000000000283364 W _ZNSt6__ndk112__hash_tableINS_17__hash_value_typeIhNS_12basic_stringIcNS_11char_traitsIcEENS_9allocatorIcEEEEEENS_22__unordered_map_hasherIhS8_NS_4hashIhEENS_8equal_toIhEELb1EEENS_21__unordered_map_equalIhS8_SD_SB_Lb1EEENS5_IS8_EEE25__emplace_unique_key_argsIhJRKNS_21piecewise_construct_tENS_5tupleIJOhEEENSN_IJEEEEEENS_4pairINS_15__hash_iteratorIPNS_11__hash_nodeIS8_PvEEEEbEERKT_DpOT0_
000000000025cb78 W _ZNSt6__ndk112__hash_tableINS_17__hash_value_typeIiiEENS_22__unordered_map_hasherIiS2_NS_4hashIiEENS_8equal_toIiEELb1EEENS_21__unordered_map_equalIiS2_S7_S5_Lb1EEENS_9allocatorIS2_EEE11__do_rehashILb0EEEvm
00000000001b41e0 W _ZNSt6__ndk112__hash_tableINS_17__hash_value_typeIiiEENS_22__unordered_map_hasherIiS2_NS_4hashIiEENS_8equal_toIiEELb1EEENS_21__unordered_map_equalIiS2_S7_S5_Lb1EEENS_9allocatorIS2_EEE11__do_rehashILb1EEEvm
000000000025c67c W _ZNSt6__ndk112__hash_tableINS_17__hash_value_typeIiiEENS_22__unordered_map_hasherIiS2_NS_4hashIiEENS_8equal_toIiEELb1EEENS_21__unordered_map_equalIiS2_S7_S5_Lb1EEENS_9allocatorIS2_EEE14__assign_multiINS_21__hash_const_iteratorIPNS_11__hash_nodeIS2_PvEEEEEEvT_SL_
000000000025a884 W _ZNSt6__ndk112__hash_tableINS_17__hash_value_typeIiiEENS_22__unordered_map_hasherIiS2_NS_4hashIiEENS_8equal_toIiEELb1EEENS_21__unordered_map_equalIiS2_S7_S5_Lb1EEENS_9allocatorIS2_EEE14__erase_uniqueIiEEmRKT_
00000000001b3eb4 W _ZNSt6__ndk112__hash_tableINS_17__hash_value_typeIiiEENS_22__unordered_map_hasherIiS2_NS_4hashIiEENS_8equal_toIiEELb1EEENS_21__unordered_map_equalIiS2_S7_S5_Lb1EEENS_9allocatorIS2_EEE25__emplace_unique_key_argsIiJRKNS_21piecewise_construct_tENS_5tupleIJOiEEENSI_IJEEEEEENS_4pairINS_15__hash_iteratorIPNS_11__hash_nodeIS2_PvEEEEbEERKT_DpOT0_
00000000001b479c W _ZNSt6__ndk112__hash_tableINS_17__hash_value_typeIiiEENS_22__unordered_map_hasherIiS2_NS_4hashIiEENS_8equal_toIiEELb1EEENS_21__unordered_map_equalIiS2_S7_S5_Lb1EEENS_9allocatorIS2_EEE25__emplace_unique_key_argsIiJRKNS_21piecewise_construct_tENS_5tupleIJRKiEEENSI_IJEEEEEENS_4pairINS_15__hash_iteratorIPNS_11__hash_nodeIS2_PvEEEEbEERKT_DpOT0_
00000000001b6114 W _ZNSt6__ndk112__hash_tableINS_17__hash_value_typeIijEENS_22__unordered_map_hasherIiS2_NS_4hashIiEENS_8equal_toIiEELb1EEENS_21__unordered_map_equalIiS2_S7_S5_Lb1EEENS_9allocatorIS2_EEE11__do_rehashILb1EEEvm
00000000001b5de8 W _ZNSt6__ndk112__hash_tableINS_17__hash_value_typeIijEENS_22__unordered_map_hasherIiS2_NS_4hashIiEENS_8equal_toIiEELb1EEENS_21__unordered_map_equalIiS2_S7_S5_Lb1EEENS_9allocatorIS2_EEE25__emplace_unique_key_argsIiJRKNS_21piecewise_construct_tENS_5tupleIJRKiEEENSI_IJEEEEEENS_4pairINS_15__hash_iteratorIPNS_11__hash_nodeIS2_PvEEEEbEERKT_DpOT0_
000000000025b280 W _ZNSt6__ndk112__hash_tableINS_17__hash_value_typeIiNS_6vectorIiNS_9allocatorIiEEEEEENS_22__unordered_map_hasherIiS6_NS_4hashIiEENS_8equal_toIiEELb1EEENS_21__unordered_map_equalIiS6_SB_S9_Lb1EEENS3_IS6_EEE11__do_rehashILb0EEEvm
000000000025c3bc W _ZNSt6__ndk112__hash_tableINS_17__hash_value_typeIiNS_6vectorIiNS_9allocatorIiEEEEEENS_22__unordered_map_hasherIiS6_NS_4hashIiEENS_8equal_toIiEELb1EEENS_21__unordered_map_equalIiS6_SB_S9_Lb1EEENS3_IS6_EEE14__assign_multiINS_21__hash_const_iteratorIPNS_11__hash_nodeIS6_PvEEEEEEvT_SO_
000000000025c5a4 W _ZNSt6__ndk112__hash_tableINS_17__hash_value_typeIiNS_6vectorIiNS_9allocatorIiEEEEEENS_22__unordered_map_hasherIiS6_NS_4hashIiEENS_8equal_toIiEELb1EEENS_21__unordered_map_equalIiS6_SB_S9_Lb1EEENS3_IS6_EEE16__construct_nodeIJRKNS_4pairIKiS5_EEEEENS_10unique_ptrINS_11__hash_nodeIS6_PvEENS_22__hash_node_destructorINS3_ISQ_EEEEEEDpOT_
00000000001b5c0c W _ZNSt6__ndk112__hash_tableINS_17__hash_value_typeIiNS_6vectorIjNS_9allocatorIjEEEEEENS_22__unordered_map_hasherIiS6_NS_4hashIiEENS_8equal_toIiEELb1EEENS_21__unordered_map_equalIiS6_SB_S9_Lb1EEENS3_IS6_EEE11__do_rehashILb1EEEvm
00000000001b5830 W _ZNSt6__ndk112__hash_tableINS_17__hash_value_typeIiNS_6vectorIjNS_9allocatorIjEEEEEENS_22__unordered_map_hasherIiS6_NS_4hashIiEENS_8equal_toIiEELb1EEENS_21__unordered_map_equalIiS6_SB_S9_Lb1EEENS3_IS6_EEE25__emplace_unique_key_argsIiJRKNS_21piecewise_construct_tENS_5tupleIJRKiEEENSL_IJEEEEEENS_4pairINS_15__hash_iteratorIPNS_11__hash_nodeIS6_PvEEEEbEERKT_DpOT0_
0000000000242a98 W _ZNSt6__ndk112__hash_tableINS_17__hash_value_typeIjP19ggml_backend_bufferEENS_22__unordered_map_hasherIjS4_NS_4hashIjEENS_8equal_toIjEELb1EEENS_21__unordered_map_equalIjS4_S9_S7_Lb1EEENS_9allocatorIS4_EEE11__do_rehashILb1EEEvm
0000000000242c74 W _ZNSt6__ndk112__hash_tableINS_17__hash_value_typeIjP19ggml_backend_bufferEENS_22__unordered_map_hasherIjS4_NS_4hashIjEENS_8equal_toIjEELb1EEENS_21__unordered_map_equalIjS4_S9_S7_Lb1EEENS_9allocatorIS4_EEE25__emplace_unique_key_argsIjJRjRS3_EEENS_4pairINS_15__hash_iteratorIPNS_11__hash_nodeIS4_PvEEEEbEERKT_DpOT0_
0000000000243260 W _ZNSt6__ndk112__hash_tableINS_17__hash_value_typeIjP19ggml_backend_bufferEENS_22__unordered_map_hasherIjS4_NS_4hashIjEENS_8equal_toIjEELb1EEENS_21__unordered_map_equalIjS4_S9_S7_Lb1EEENS_9allocatorIS4_EEE25__emplace_unique_key_argsIjJRKNS_4pairIKjS3_EEEEENSH_INS_15__hash_iteratorIPNS_11__hash_nodeIS4_PvEEEEbEERKT_DpOT0_
0000000000278648 W _ZNSt6__ndk112__hash_tableINS_17__hash_value_typeIliEENS_22__unordered_map_hasherIlS2_NS_4hashIlEENS_8equal_toIlEELb1EEENS_21__unordered_map_equalIlS2_S7_S5_Lb1EEENS_9allocatorIS2_EEE11__do_rehashILb1EEEvm
0000000000278314 W _ZNSt6__ndk112__hash_tableINS_17__hash_value_typeIliEENS_22__unordered_map_hasherIlS2_NS_4hashIlEENS_8equal_toIlEELb1EEENS_21__unordered_map_equalIlS2_S7_S5_Lb1EEENS_9allocatorIS2_EEE25__emplace_unique_key_argsIlJRKNS_21piecewise_construct_tENS_5tupleIJRKlEEENSI_IJEEEEEENS_4pairINS_15__hash_iteratorIPNS_11__hash_nodeIS2_PvEEEEbEERKT_DpOT0_
00000000001b4eb0 W _ZNSt6__ndk112__hash_tableINS_17__hash_value_typeIlNS_6vectorIfNS_9allocatorIfEEEEEENS_22__unordered_map_hasherIlS6_NS_4hashIlEENS_8equal_toIlEELb1EEENS_21__unordered_map_equalIlS6_SB_S9_Lb1EEENS3_IS6_EEE11__do_rehashILb1EEEvm
00000000001b4adc W _ZNSt6__ndk112__hash_tableINS_17__hash_value_typeIlNS_6vectorIfNS_9allocatorIfEEEEEENS_22__unordered_map_hasherIlS6_NS_4hashIlEENS_8equal_toIlEELb1EEENS_21__unordered_map_equalIlS6_SB_S9_Lb1EEENS3_IS6_EEE25__emplace_unique_key_argsIlJRKNS_21piecewise_construct_tENS_5tupleIJRKlEEENSL_IJEEEEEENS_4pairINS_15__hash_iteratorIPNS_11__hash_nodeIS6_PvEEEEbEERKT_DpOT0_
00000000001d4684 W _ZNSt6__ndk112__hash_tableINS_17__hash_value_typeINS_12basic_stringIcNS_11char_traitsIcEENS_9allocatorIcEEEE23llama_model_kv_overrideEENS_22__unordered_map_hasherIS7_S9_NS_4hashIS7_EENS_8equal_toIS7_EELb1EEENS_21__unordered_map_equalIS7_S9_SE_SC_Lb1EEENS5_IS9_EEE11__do_rehashILb1EEEvm
00000000001d41b0 W _ZNSt6__ndk112__hash_tableINS_17__hash_value_typeINS_12basic_stringIcNS_11char_traitsIcEENS_9allocatorIcEEEE23llama_model_kv_overrideEENS_22__unordered_map_hasherIS7_S9_NS_4hashIS7_EENS_8equal_toIS7_EELb1EEENS_21__unordered_map_equalIS7_S9_SE_SC_Lb1EEENS5_IS9_EEE25__emplace_unique_key_argsIS7_JNS_4pairIKS7_S8_EEEEENSL_INS_15__hash_iteratorIPNS_11__hash_nodeIS9_PvEEEEbEERKT_DpOT0_
00000000001d2410 W _ZNSt6__ndk112__hash_tableINS_17__hash_value_typeINS_12basic_stringIcNS_11char_traitsIcEENS_9allocatorIcEEEE23llama_model_kv_overrideEENS_22__unordered_map_hasherIS7_S9_NS_4hashIS7_EENS_8equal_toIS7_EELb1EEENS_21__unordered_map_equalIS7_S9_SE_SC_Lb1EEENS5_IS9_EEE4findIS7_EENS_15__hash_iteratorIPNS_11__hash_nodeIS9_PvEEEERKT_
0000000000150b1c W _ZNSt6__ndk112__hash_tableINS_17__hash_value_typeINS_12basic_stringIcNS_11char_traitsIcEENS_9allocatorIcEEEE25llama_adapter_lora_weightEENS_22__unordered_map_hasherIS7_S9_NS_4hashIS7_EENS_8equal_toIS7_EELb1EEENS_21__unordered_map_equalIS7_S9_SE_SC_Lb1EEENS5_IS9_EEE11__do_rehashILb1EEEvm
0000000000150650 W _ZNSt6__ndk112__hash_tableINS_17__hash_value_typeINS_12basic_stringIcNS_11char_traitsIcEENS_9allocatorIcEEEE25llama_adapter_lora_weightEENS_22__unordered_map_hasherIS7_S9_NS_4hashIS7_EENS_8equal_toIS7_EELb1EEENS_21__unordered_map_equalIS7_S9_SE_SC_Lb1EEENS5_IS9_EEE25__emplace_unique_key_argsIS7_JRKNS_21piecewise_construct_tENS_5tupleIJRKS7_EEENSO_IJEEEEEENS_4pairINS_15__hash_iteratorIPNS_11__hash_nodeIS9_PvEEEEbEERKT_DpOT0_
00000000001513bc W _ZNSt6__ndk112__hash_tableINS_17__hash_value_typeINS_12basic_stringIcNS_11char_traitsIcEENS_9allocatorIcEEEE25llama_adapter_lora_weightEENS_22__unordered_map_hasherIS7_S9_NS_4hashIS7_EENS_8equal_toIS7_EELb1EEENS_21__unordered_map_equalIS7_S9_SE_SC_Lb1EEENS5_IS9_EEE4findIS7_EENS_15__hash_iteratorIPNS_11__hash_nodeIS9_PvEEEERKT_
00000000002763f4 W _ZNSt6__ndk112__hash_tableINS_17__hash_value_typeINS_12basic_stringIcNS_11char_traitsIcEENS_9allocatorIcEEEEfEENS_22__unordered_map_hasherIS7_S8_NS_4hashIS7_EENS_8equal_toIS7_EELb1EEENS_21__unordered_map_equalIS7_S8_SD_SB_Lb1EEENS5_IS8_EEE11__do_rehashILb1EEEvm
0000000000275f28 W _ZNSt6__ndk112__hash_tableINS_17__hash_value_typeINS_12basic_stringIcNS_11char_traitsIcEENS_9allocatorIcEEEEfEENS_22__unordered_map_hasherIS7_S8_NS_4hashIS7_EENS_8equal_toIS7_EELb1EEENS_21__unordered_map_equalIS7_S8_SD_SB_Lb1EEENS5_IS8_EEE25__emplace_unique_key_argsIS7_JRKNS_21piecewise_construct_tENS_5tupleIJRKS7_EEENSN_IJEEEEEENS_4pairINS_15__hash_iteratorIPNS_11__hash_nodeIS8_PvEEEEbEERKT_DpOT0_
00000000002765d0 W _ZNSt6__ndk112__hash_tableINS_17__hash_value_typeINS_12basic_stringIcNS_11char_traitsIcEENS_9allocatorIcEEEEfEENS_22__unordered_map_hasherIS7_S8_NS_4hashIS7_EENS_8equal_toIS7_EELb1EEENS_21__unordered_map_equalIS7_S8_SD_SB_Lb1EEENS5_IS8_EEE4findIS7_EENS_15__hash_iteratorIPNS_11__hash_nodeIS8_PvEEEERKT_
0000000000283d8c W _ZNSt6__ndk112__hash_tableINS_17__hash_value_typeINS_12basic_stringIcNS_11char_traitsIcEENS_9allocatorIcEEEEhEENS_22__unordered_map_hasherIS7_S8_NS_4hashIS7_EENS_8equal_toIS7_EELb1EEENS_21__unordered_map_equalIS7_S8_SD_SB_Lb1EEENS5_IS8_EEE11__do_rehashILb1EEEvm
00000000002838fc W _ZNSt6__ndk112__hash_tableINS_17__hash_value_typeINS_12basic_stringIcNS_11char_traitsIcEENS_9allocatorIcEEEEhEENS_22__unordered_map_hasherIS7_S8_NS_4hashIS7_EENS_8equal_toIS7_EELb1EEENS_21__unordered_map_equalIS7_S8_SD_SB_Lb1EEENS5_IS8_EEE25__emplace_unique_key_argsIS7_JRKNS_21piecewise_construct_tENS_5tupleIJOS7_EEENSN_IJEEEEEENS_4pairINS_15__hash_iteratorIPNS_11__hash_nodeIS8_PvEEEEbEERKT_DpOT0_
0000000000283f68 W _ZNSt6__ndk112__hash_tableINS_17__hash_value_typeINS_12basic_stringIcNS_11char_traitsIcEENS_9allocatorIcEEEEhEENS_22__unordered_map_hasherIS7_S8_NS_4hashIS7_EENS_8equal_toIS7_EELb1EEENS_21__unordered_map_equalIS7_S8_SD_SB_Lb1EEENS5_IS8_EEE4findIS7_EENS_15__hash_iteratorIPNS_11__hash_nodeIS8_PvEEEERKT_
00000000002709e4 W _ZNSt6__ndk112__hash_tableINS_17__hash_value_typeINS_12basic_stringIcNS_11char_traitsIcEENS_9allocatorIcEEEEiEENS_22__unordered_map_hasherIS7_S8_NS_4hashIS7_EENS_8equal_toIS7_EELb1EEENS_21__unordered_map_equalIS7_S8_SD_SB_Lb1EEENS5_IS8_EEE11__do_rehashILb1EEEvm
0000000000270518 W _ZNSt6__ndk112__hash_tableINS_17__hash_value_typeINS_12basic_stringIcNS_11char_traitsIcEENS_9allocatorIcEEEEiEENS_22__unordered_map_hasherIS7_S8_NS_4hashIS7_EENS_8equal_toIS7_EELb1EEENS_21__unordered_map_equalIS7_S8_SD_SB_Lb1EEENS5_IS8_EEE25__emplace_unique_key_argsIS7_JRKNS_21piecewise_construct_tENS_5tupleIJRKS7_EEENSN_IJEEEEEENS_4pairINS_15__hash_iteratorIPNS_11__hash_nodeIS8_PvEEEEbEERKT_DpOT0_
0000000000270bc0 W _ZNSt6__ndk112__hash_tableINS_17__hash_value_typeINS_12basic_stringIcNS_11char_traitsIcEENS_9allocatorIcEEEEiEENS_22__unordered_map_hasherIS7_S8_NS_4hashIS7_EENS_8equal_toIS7_EELb1EEENS_21__unordered_map_equalIS7_S8_SD_SB_Lb1EEENS5_IS8_EEE4findIS7_EENS_15__hash_iteratorIPNS_11__hash_nodeIS8_PvEEEERKT_
00000000001755dc W _ZNSt6__ndk112__hash_tableINS_17__hash_value_typeINS_12basic_stringIcNS_11char_traitsIcEENS_9allocatorIcEEEEmEENS_22__unordered_map_hasherIS7_S8_NS_4hashIS7_EENS_8equal_toIS7_EELb1EEENS_21__unordered_map_equalIS7_S8_SD_SB_Lb1EEENS5_IS8_EEE11__do_rehashILb1EEEvm
0000000000175110 W _ZNSt6__ndk112__hash_tableINS_17__hash_value_typeINS_12basic_stringIcNS_11char_traitsIcEENS_9allocatorIcEEEEmEENS_22__unordered_map_hasherIS7_S8_NS_4hashIS7_EENS_8equal_toIS7_EELb1EEENS_21__unordered_map_equalIS7_S8_SD_SB_Lb1EEENS5_IS8_EEE25__emplace_unique_key_argsIS7_JRKNS_21piecewise_construct_tENS_5tupleIJRKS7_EEENSN_IJEEEEEENS_4pairINS_15__hash_iteratorIPNS_11__hash_nodeIS8_PvEEEEbEERKT_DpOT0_
00000000001739f0 W _ZNSt6__ndk112__hash_tableINS_17__hash_value_typeINS_12basic_stringIcNS_11char_traitsIcEENS_9allocatorIcEEEEmEENS_22__unordered_map_hasherIS7_S8_NS_4hashIS7_EENS_8equal_toIS7_EELb1EEENS_21__unordered_map_equalIS7_S8_SD_SB_Lb1EEENS5_IS8_EEE4findIS7_EENS_15__hash_iteratorIPNS_11__hash_nodeIS8_PvEEEERKT_
0000000000175c48 W _ZNSt6__ndk112__hash_tableINS_17__hash_value_typeINS_12basic_stringIcNS_11char_traitsIcEENS_9allocatorIcEEEENS_4pairIiiEEEENS_22__unordered_map_hasherIS7_SA_NS_4hashIS7_EENS_8equal_toIS7_EELb1EEENS_21__unordered_map_equalIS7_SA_SF_SD_Lb1EEENS5_ISA_EEE11__do_rehashILb1EEEvm
00000000001757b8 W _ZNSt6__ndk112__hash_tableINS_17__hash_value_typeINS_12basic_stringIcNS_11char_traitsIcEENS_9allocatorIcEEEENS_4pairIiiEEEENS_22__unordered_map_hasherIS7_SA_NS_4hashIS7_EENS_8equal_toIS7_EELb1EEENS_21__unordered_map_equalIS7_SA_SF_SD_Lb1EEENS5_ISA_EEE25__emplace_unique_key_argsIS7_JRKNS_21piecewise_construct_tENS_5tupleIJOS7_EEENSP_IJEEEEEENS8_INS_15__hash_iteratorIPNS_11__hash_nodeISA_PvEEEEbEERKT_DpOT0_
0000000000173db0 W _ZNSt6__ndk112__hash_tableINS_17__hash_value_typeINS_12basic_stringIcNS_11char_traitsIcEENS_9allocatorIcEEEENS_4pairIiiEEEENS_22__unordered_map_hasherIS7_SA_NS_4hashIS7_EENS_8equal_toIS7_EELb1EEENS_21__unordered_map_equalIS7_SA_SF_SD_Lb1EEENS5_ISA_EEE4findIS7_EENS_15__hash_iteratorIPNS_11__hash_nodeISA_PvEEEERKT_
000000000024b3fc W _ZNSt6__ndk112__hash_tableINS_17__hash_value_typeINS_12basic_stringIcNS_11char_traitsIcEENS_9allocatorIcEEEENS_6vectorIfNS5_IfEEEEEENS_22__unordered_map_hasherIS7_SB_NS_4hashIS7_EENS_8equal_toIS7_EELb1EEENS_21__unordered_map_equalIS7_SB_SG_SE_Lb1EEENS5_ISB_EEE11__do_rehashILb1EEEvm
000000000024ae0c W _ZNSt6__ndk112__hash_tableINS_17__hash_value_typeINS_12basic_stringIcNS_11char_traitsIcEENS_9allocatorIcEEEENS_6vectorIfNS5_IfEEEEEENS_22__unordered_map_hasherIS7_SB_NS_4hashIS7_EENS_8equal_toIS7_EELb1EEENS_21__unordered_map_equalIS7_SB_SG_SE_Lb1EEENS5_ISB_EEE16__construct_nodeIJRKPKcSA_EEENS_10unique_ptrINS_11__hash_nodeISB_PvEENS_22__hash_node_destructorINS5_ISU_EEEEEEDpOT_
000000000024ad1c W _ZNSt6__ndk112__hash_tableINS_17__hash_value_typeINS_12basic_stringIcNS_11char_traitsIcEENS_9allocatorIcEEEENS_6vectorIfNS5_IfEEEEEENS_22__unordered_map_hasherIS7_SB_NS_4hashIS7_EENS_8equal_toIS7_EELb1EEENS_21__unordered_map_equalIS7_SB_SG_SE_Lb1EEENS5_ISB_EEE21__emplace_unique_implIJRKPKcSA_EEENS_4pairINS_15__hash_iteratorIPNS_11__hash_nodeISB_PvEEEEbEEDpOT_
000000000014ff14 W _ZNSt6__ndk112__hash_tableINS_17__hash_value_typeINS_12basic_stringIcNS_11char_traitsIcEENS_9allocatorIcEEEES7_EENS_22__unordered_map_hasherIS7_S8_NS_4hashIS7_EENS_8equal_toIS7_EELb1EEENS_21__unordered_map_equalIS7_S8_SD_SB_Lb1EEENS5_IS8_EEE11__do_rehashILb1EEEvm
000000000014f3f0 W _ZNSt6__ndk112__hash_tableINS_17__hash_value_typeINS_12basic_stringIcNS_11char_traitsIcEENS_9allocatorIcEEEES7_EENS_22__unordered_map_hasherIS7_S8_NS_4hashIS7_EENS_8equal_toIS7_EELb1EEENS_21__unordered_map_equalIS7_S8_SD_SB_Lb1EEENS5_IS8_EEE21__emplace_unique_implIJRPKcRKS7_EEENS_4pairINS_15__hash_iteratorIPNS_11__hash_nodeIS8_PvEEEEbEEDpOT_
00000000002714ac W _ZNSt6__ndk112__hash_tableINS_17__hash_value_typeINS_4pairINS_12basic_stringIcNS_11char_traitsIcEENS_9allocatorIcEEEES8_EEiEENS_22__unordered_map_hasherIS9_SA_N11llama_vocab4impl9pair_hashENS_8equal_toIS9_EELb1EEENS_21__unordered_map_equalIS9_SA_SG_SE_Lb1EEENS6_ISA_EEE11__do_rehashILb1EEEvm
0000000000270f44 W _ZNSt6__ndk112__hash_tableINS_17__hash_value_typeINS_4pairINS_12basic_stringIcNS_11char_traitsIcEENS_9allocatorIcEEEES8_EEiEENS_22__unordered_map_hasherIS9_SA_N11llama_vocab4impl9pair_hashENS_8equal_toIS9_EELb1EEENS_21__unordered_map_equalIS9_SA_SG_SE_Lb1EEENS6_ISA_EEE25__emplace_unique_key_argsIS9_JS9_RiEEENS2_INS_15__hash_iteratorIPNS_11__hash_nodeISA_PvEEEEbEERKT_DpOT0_
0000000000278e34 W _ZNSt6__ndk112__hash_tableINS_17__hash_value_typeINS_4pairINS_12basic_stringIcNS_11char_traitsIcEENS_9allocatorIcEEEES8_EEiEENS_22__unordered_map_hasherIS9_SA_N11llama_vocab4impl9pair_hashENS_8equal_toIS9_EELb1EEENS_21__unordered_map_equalIS9_SA_SG_SE_Lb1EEENS6_ISA_EEE4findIS9_EENS_15__hash_iteratorIPNS_11__hash_nodeISA_PvEEEERKT_
000000000015882c W _ZNSt6__ndk112__hash_tableINS_17__hash_value_typeINS_6bitsetILm256EEENS_6vectorIiNS_9allocatorIiEEEEEENS_22__unordered_map_hasherIS3_S8_NS_4hashIS3_EENS_8equal_toIS3_EELb1EEENS_21__unordered_map_equalIS3_S8_SD_SB_Lb1EEENS5_IS8_EEE11__do_rehashILb1EEEvm
00000000001583f8 W _ZNSt6__ndk112__hash_tableINS_17__hash_value_typeINS_6bitsetILm256EEENS_6vectorIiNS_9allocatorIiEEEEEENS_22__unordered_map_hasherIS3_S8_NS_4hashIS3_EENS_8equal_toIS3_EELb1EEENS_21__unordered_map_equalIS3_S8_SD_SB_Lb1EEENS5_IS8_EEE25__emplace_unique_key_argsIS3_JRKNS_21piecewise_construct_tENS_5tupleIJRKS3_EEENSN_IJEEEEEENS_4pairINS_15__hash_iteratorIPNS_11__hash_nodeIS8_PvEEEEbEERKT_DpOT0_
0000000000177798 W _ZNSt6__ndk112__hash_tableINS_17__hash_value_typeIP18llama_adapter_lorafEENS_22__unordered_map_hasherIS3_S4_NS_4hashIS3_EENS_8equal_toIS3_EELb1EEENS_21__unordered_map_equalIS3_S4_S9_S7_Lb1EEENS_9allocatorIS4_EEE11__do_rehashILb1EEEvm
0000000000177438 W _ZNSt6__ndk112__hash_tableINS_17__hash_value_typeIP18llama_adapter_lorafEENS_22__unordered_map_hasherIS3_S4_NS_4hashIS3_EENS_8equal_toIS3_EELb1EEENS_21__unordered_map_equalIS3_S4_S9_S7_Lb1EEENS_9allocatorIS4_EEE25__emplace_unique_key_argsIS3_JNS_4pairIKS3_fEEEEENSH_INS_15__hash_iteratorIPNS_11__hash_nodeIS4_PvEEEEbEERKT_DpOT0_
0000000000177974 W _ZNSt6__ndk112__hash_tableINS_17__hash_value_typeIP18llama_adapter_lorafEENS_22__unordered_map_hasherIS3_S4_NS_4hashIS3_EENS_8equal_toIS3_EELb1EEENS_21__unordered_map_equalIS3_S4_S9_S7_Lb1EEENS_9allocatorIS4_EEE4findIS3_EENS_15__hash_iteratorIPNS_11__hash_nodeIS4_PvEEEERKT_
0000000000151080 W _ZNSt6__ndk112__hash_tableIP18llama_adapter_loraNS_4hashIS2_EENS_8equal_toIS2_EENS_9allocatorIS2_EEE11__do_rehashILb1EEEvm
0000000000150d20 W _ZNSt6__ndk112__hash_tableIP18llama_adapter_loraNS_4hashIS2_EENS_8equal_toIS2_EENS_9allocatorIS2_EEE25__emplace_unique_key_argsIS2_JS2_EEENS_4pairINS_15__hash_iteratorIPNS_11__hash_nodeIS2_PvEEEEbEERKT_DpOT0_
000000000015177c W _ZNSt6__ndk112__hash_tableIP18llama_adapter_loraNS_4hashIS2_EENS_8equal_toIS2_EENS_9allocatorIS2_EEE4findIS2_EENS_15__hash_iteratorIPNS_11__hash_nodeIS2_PvEEEERKT_
000000000018b8d8 W _ZNSt6__ndk112__match_charIcED0Ev
0000000000289b7c W _ZNSt6__ndk112__match_charIwED0Ev
00000000002ce778 T _ZNSt6__ndk112__next_primeEm
00000000002d07bc T _ZNSt6__ndk112system_errorC1EiRKNS_14error_categoryE
00000000002d062c T _ZNSt6__ndk112system_errorC1EiRKNS_14error_categoryEPKc
00000000002d0500 T _ZNSt6__ndk112system_errorC1EiRKNS_14error_categoryERKNS_12basic_stringIcNS_11char_traitsIcEENS_9allocatorIcEEEE
00000000002d0440 T _ZNSt6__ndk112system_errorC1ENS_10error_codeE
00000000002d02c4 T _ZNSt6__ndk112system_errorC1ENS_10error_codeEPKc
00000000002d00c8 T _ZNSt6__ndk112system_errorC1ENS_10error_codeERKNS_12basic_stringIcNS_11char_traitsIcEENS_9allocatorIcEEEE
00000000002d07bc T _ZNSt6__ndk112system_errorC2EiRKNS_14error_categoryE
00000000002d062c T _ZNSt6__ndk112system_errorC2EiRKNS_14error_categoryEPKc
00000000002d0500 T _ZNSt6__ndk112system_errorC2EiRKNS_14error_categoryERKNS_12basic_stringIcNS_11char_traitsIcEENS_9allocatorIcEEEE
00000000002d0440 T _ZNSt6__ndk112system_errorC2ENS_10error_codeE
00000000002d02c4 T _ZNSt6__ndk112system_errorC2ENS_10error_codeEPKc
00000000002d00c8 T _ZNSt6__ndk112system_errorC2ENS_10error_codeERKNS_12basic_stringIcNS_11char_traitsIcEENS_9allocatorIcEEEE
00000000002d0888 T _ZNSt6__ndk112system_errorD0Ev
00000000002d0880 T _ZNSt6__ndk112system_errorD1Ev
00000000002d0880 T _ZNSt6__ndk112system_errorD2Ev
00000000002dcab4 W _ZNSt6__ndk113basic_filebufIcNS_11char_traitsIcEEE11__read_modeEv
00000000002dcd9c W _ZNSt6__ndk113basic_filebufIcNS_11char_traitsIcEEE12__write_modeEv
00000000002dbde8 W _ZNSt6__ndk113basic_filebufIcNS_11char_traitsIcEEE4openEPKcj
00000000002dc438 W _ZNSt6__ndk113basic_filebufIcNS_11char_traitsIcEEE4swapERS3_
00000000002dd0a0 W _ZNSt6__ndk113basic_filebufIcNS_11char_traitsIcEEE4syncEv
00000000002dc37c W _ZNSt6__ndk113basic_filebufIcNS_11char_traitsIcEEE5closeEv
00000000002dd268 W _ZNSt6__ndk113basic_filebufIcNS_11char_traitsIcEEE5imbueERKNS_6localeE
00000000002dce0c W _ZNSt6__ndk113basic_filebufIcNS_11char_traitsIcEEE6setbufEPcl
00000000002dcf5c W _ZNSt6__ndk113basic_filebufIcNS_11char_traitsIcEEE7seekoffExNS_8ios_base7seekdirEj
00000000002dd028 W _ZNSt6__ndk113basic_filebufIcNS_11char_traitsIcEEE7seekposENS_4fposI9mbstate_tEEj
00000000002dcba8 W _ZNSt6__ndk113basic_filebufIcNS_11char_traitsIcEEE8overflowEi
00000000002dcb44 W _ZNSt6__ndk113basic_filebufIcNS_11char_traitsIcEEE9pbackfailEi
00000000002dc868 W _ZNSt6__ndk113basic_filebufIcNS_11char_traitsIcEEE9underflowEv
00000000002dc10c W _ZNSt6__ndk113basic_filebufIcNS_11char_traitsIcEEEC1EOS3_
00000000002dbfd8 W _ZNSt6__ndk113basic_filebufIcNS_11char_traitsIcEEEC1Ev
00000000002dc10c W _ZNSt6__ndk113basic_filebufIcNS_11char_traitsIcEEEC2EOS3_
00000000002dbfd8 W _ZNSt6__ndk113basic_filebufIcNS_11char_traitsIcEEEC2Ev
00000000002dc408 W _ZNSt6__ndk113basic_filebufIcNS_11char_traitsIcEEED0Ev
00000000002dc2a0 W _ZNSt6__ndk113basic_filebufIcNS_11char_traitsIcEEED1Ev
00000000002dc2a0 W _ZNSt6__ndk113basic_filebufIcNS_11char_traitsIcEEED2Ev
00000000002d2b04 W _ZNSt6__ndk113basic_istreamIcNS_11char_traitsIcEEE3getEPcl
00000000002d2ba8 W _ZNSt6__ndk113basic_istreamIcNS_11char_traitsIcEEE3getEPclc
00000000002d2ac8 W _ZNSt6__ndk113basic_istreamIcNS_11char_traitsIcEEE3getERc
00000000002d2d80 W _ZNSt6__ndk113basic_istreamIcNS_11char_traitsIcEEE3getERNS_15basic_streambufIcS2_EE
00000000002d2e14 W _ZNSt6__ndk113basic_istreamIcNS_11char_traitsIcEEE3getERNS_15basic_streambufIcS2_EEc
00000000002d29ac W _ZNSt6__ndk113basic_istreamIcNS_11char_traitsIcEEE3getEv
00000000002d3434 W _ZNSt6__ndk113basic_istreamIcNS_11char_traitsIcEEE4peekEv
00000000002d3538 W _ZNSt6__ndk113basic_istreamIcNS_11char_traitsIcEEE4readEPcl
00000000002d13bc W _ZNSt6__ndk113basic_istreamIcNS_11char_traitsIcEEE4swapERS3_
00000000002d39ec W _ZNSt6__ndk113basic_istreamIcNS_11char_traitsIcEEE4syncEv
00000000002d3be0 W _ZNSt6__ndk113basic_istreamIcNS_11char_traitsIcEEE5seekgENS_4fposI9mbstate_tEE
00000000002d3cf4 W _ZNSt6__ndk113basic_istreamIcNS_11char_traitsIcEEE5seekgExNS_8ios_base7seekdirE
00000000002d3ae0 W _ZNSt6__ndk113basic_istreamIcNS_11char_traitsIcEEE5tellgEv
00000000002d38c0 W _ZNSt6__ndk113basic_istreamIcNS_11char_traitsIcEEE5ungetEv
00000000002d3274 W _ZNSt6__ndk113basic_istreamIcNS_11char_traitsIcEEE6ignoreEli
00000000002d1428 W _ZNSt6__ndk113basic_istreamIcNS_11char_traitsIcEEE6sentryC1ERS3_b
00000000002d1428 W _ZNSt6__ndk113basic_istreamIcNS_11char_traitsIcEEE6sentryC2ERS3_b
00000000002d2f88 W _ZNSt6__ndk113basic_istreamIcNS_11char_traitsIcEEE7getlineEPcl
00000000002d302c W _ZNSt6__ndk113basic_istreamIcNS_11char_traitsIcEEE7getlineEPclc
00000000002d3788 W _ZNSt6__ndk113basic_istreamIcNS_11char_traitsIcEEE7putbackEc
00000000002d3634 W _ZNSt6__ndk113basic_istreamIcNS_11char_traitsIcEEE8readsomeEPcl
00000000002d12b4 W _ZNSt6__ndk113basic_istreamIcNS_11char_traitsIcEEEC1EPNS_15basic_streambufIcS2_EE
00000000002d1258 W _ZNSt6__ndk113basic_istreamIcNS_11char_traitsIcEEEC2EPNS_15basic_streambufIcS2_EE
00000000002d134c W _ZNSt6__ndk113basic_istreamIcNS_11char_traitsIcEEED0Ev
00000000002d1328 W _ZNSt6__ndk113basic_istreamIcNS_11char_traitsIcEEED1Ev
00000000002d1320 W _ZNSt6__ndk113basic_istreamIcNS_11char_traitsIcEEED2Ev
00000000002d172c W _ZNSt6__ndk113basic_istreamIcNS_11char_traitsIcEEErsEPFRNS_8ios_baseES5_E
00000000002d16f4 W _ZNSt6__ndk113basic_istreamIcNS_11char_traitsIcEEErsEPFRNS_9basic_iosIcS2_EES6_E
00000000002d16e8 W _ZNSt6__ndk113basic_istreamIcNS_11char_traitsIcEEErsEPFRS3_S4_E
00000000002d1764 W _ZNSt6__ndk113basic_istreamIcNS_11char_traitsIcEEErsEPNS_15basic_streambufIcS2_EE
00000000002d191c W _ZNSt6__ndk113basic_istreamIcNS_11char_traitsIcEEErsERb
00000000002d25f8 W _ZNSt6__ndk113basic_istreamIcNS_11char_traitsIcEEErsERd
00000000002d2734 W _ZNSt6__ndk113basic_istreamIcNS_11char_traitsIcEEErsERe
00000000002d24bc W _ZNSt6__ndk113basic_istreamIcNS_11char_traitsIcEEErsERf
00000000002d1d10 W _ZNSt6__ndk113basic_istreamIcNS_11char_traitsIcEEErsERi
00000000002d1e90 W _ZNSt6__ndk113basic_istreamIcNS_11char_traitsIcEEErsERj
00000000002d1fcc W _ZNSt6__ndk113basic_istreamIcNS_11char_traitsIcEEErsERl
00000000002d2108 W _ZNSt6__ndk113basic_istreamIcNS_11char_traitsIcEEErsERm
00000000002d2870 W _ZNSt6__ndk113basic_istreamIcNS_11char_traitsIcEEErsERPv
00000000002d1a58 W _ZNSt6__ndk113basic_istreamIcNS_11char_traitsIcEEErsERs
00000000002d1bd4 W _ZNSt6__ndk113basic_istreamIcNS_11char_traitsIcEEErsERt
00000000002d2244 W _ZNSt6__ndk113basic_istreamIcNS_11char_traitsIcEEErsERx
00000000002d2380 W _ZNSt6__ndk113basic_istreamIcNS_11char_traitsIcEEErsERy
00000000002d7ebc W _ZNSt6__ndk113basic_istreamIwNS_11char_traitsIwEEE3getEPwl
00000000002d7f60 W _ZNSt6__ndk113basic_istreamIwNS_11char_traitsIwEEE3getEPwlw
00000000002d8134 W _ZNSt6__ndk113basic_istreamIwNS_11char_traitsIwEEE3getERNS_15basic_streambufIwS2_EE
00000000002d81c8 W _ZNSt6__ndk113basic_istreamIwNS_11char_traitsIwEEE3getERNS_15basic_streambufIwS2_EEw
00000000002d7e80 W _ZNSt6__ndk113basic_istreamIwNS_11char_traitsIwEEE3getERw
00000000002d7d64 W _ZNSt6__ndk113basic_istreamIwNS_11char_traitsIwEEE3getEv
00000000002d87cc W _ZNSt6__ndk113basic_istreamIwNS_11char_traitsIwEEE4peekEv
00000000002d88d0 W _ZNSt6__ndk113basic_istreamIwNS_11char_traitsIwEEE4readEPwl
00000000002d6760 W _ZNSt6__ndk113basic_istreamIwNS_11char_traitsIwEEE4swapERS3_
00000000002d8da0 W _ZNSt6__ndk113basic_istreamIwNS_11char_traitsIwEEE4syncEv
00000000002d8f94 W _ZNSt6__ndk113basic_istreamIwNS_11char_traitsIwEEE5seekgENS_4fposI9mbstate_tEE
00000000002d90a8 W _ZNSt6__ndk113basic_istreamIwNS_11char_traitsIwEEE5seekgExNS_8ios_base7seekdirE
00000000002d8e94 W _ZNSt6__ndk113basic_istreamIwNS_11char_traitsIwEEE5tellgEv
00000000002d8c68 W _ZNSt6__ndk113basic_istreamIwNS_11char_traitsIwEEE5ungetEv
00000000002d8614 W _ZNSt6__ndk113basic_istreamIwNS_11char_traitsIwEEE6ignoreElj
00000000002d67cc W _ZNSt6__ndk113basic_istreamIwNS_11char_traitsIwEEE6sentryC1ERS3_b
00000000002d67cc W _ZNSt6__ndk113basic_istreamIwNS_11char_traitsIwEEE6sentryC2ERS3_b
00000000002d8330 W _ZNSt6__ndk113basic_istreamIwNS_11char_traitsIwEEE7getlineEPwl
00000000002d83d4 W _ZNSt6__ndk113basic_istreamIwNS_11char_traitsIwEEE7getlineEPwlw
00000000002d8b24 W _ZNSt6__ndk113basic_istreamIwNS_11char_traitsIwEEE7putbackEw
00000000002d89cc W _ZNSt6__ndk113basic_istreamIwNS_11char_traitsIwEEE8readsomeEPwl
00000000002d6658 W _ZNSt6__ndk113basic_istreamIwNS_11char_traitsIwEEEC1EPNS_15basic_streambufIwS2_EE
00000000002d65fc W _ZNSt6__ndk113basic_istreamIwNS_11char_traitsIwEEEC2EPNS_15basic_streambufIwS2_EE
00000000002d66f0 W _ZNSt6__ndk113basic_istreamIwNS_11char_traitsIwEEED0Ev
00000000002d66cc W _ZNSt6__ndk113basic_istreamIwNS_11char_traitsIwEEED1Ev
00000000002d66c4 W _ZNSt6__ndk113basic_istreamIwNS_11char_traitsIwEEED2Ev
00000000002d6ae8 W _ZNSt6__ndk113basic_istreamIwNS_11char_traitsIwEEErsEPFRNS_8ios_baseES5_E
00000000002d6ab0 W _ZNSt6__ndk113basic_istreamIwNS_11char_traitsIwEEErsEPFRNS_9basic_iosIwS2_EES6_E
00000000002d6aa4 W _ZNSt6__ndk113basic_istreamIwNS_11char_traitsIwEEErsEPFRS3_S4_E
00000000002d6b20 W _ZNSt6__ndk113basic_istreamIwNS_11char_traitsIwEEErsEPNS_15basic_streambufIwS2_EE
00000000002d6cd4 W _ZNSt6__ndk113basic_istreamIwNS_11char_traitsIwEEErsERb
00000000002d79b0 W _ZNSt6__ndk113basic_istreamIwNS_11char_traitsIwEEErsERd
00000000002d7aec W _ZNSt6__ndk113basic_istreamIwNS_11char_traitsIwEEErsERe
00000000002d7874 W _ZNSt6__ndk113basic_istreamIwNS_11char_traitsIwEEErsERf
00000000002d70c8 W _ZNSt6__ndk113basic_istreamIwNS_11char_traitsIwEEErsERi
00000000002d7248 W _ZNSt6__ndk113basic_istreamIwNS_11char_traitsIwEEErsERj
00000000002d7384 W _ZNSt6__ndk113basic_istreamIwNS_11char_traitsIwEEErsERl
00000000002d74c0 W _ZNSt6__ndk113basic_istreamIwNS_11char_traitsIwEEErsERm
00000000002d7c28 W _ZNSt6__ndk113basic_istreamIwNS_11char_traitsIwEEErsERPv
00000000002d6e10 W _ZNSt6__ndk113basic_istreamIwNS_11char_traitsIwEEErsERs
00000000002d6f8c W _ZNSt6__ndk113basic_istreamIwNS_11char_traitsIwEEErsERt
00000000002d75fc W _ZNSt6__ndk113basic_istreamIwNS_11char_traitsIwEEErsERx
00000000002d7738 W _ZNSt6__ndk113basic_istreamIwNS_11char_traitsIwEEErsERy
00000000002d5804 W _ZNSt6__ndk113basic_ostreamIcNS_11char_traitsIcEEE3putEc
00000000002d3f68 W _ZNSt6__ndk113basic_ostreamIcNS_11char_traitsIcEEE4swapERS3_
00000000002d1600 W _ZNSt6__ndk113basic_ostreamIcNS_11char_traitsIcEEE5flushEv
00000000002d5a4c W _ZNSt6__ndk113basic_ostreamIcNS_11char_traitsIcEEE5seekpENS_4fposI9mbstate_tEE
00000000002d5b10 W _ZNSt6__ndk113basic_ostreamIcNS_11char_traitsIcEEE5seekpExNS_8ios_base7seekdirE
00000000002d59ec W _ZNSt6__ndk113basic_ostreamIcNS_11char_traitsIcEEE5tellpEv
00000000002d5900 W _ZNSt6__ndk113basic_ostreamIcNS_11char_traitsIcEEE5writeEPKcl
00000000002d3fcc W _ZNSt6__ndk113basic_ostreamIcNS_11char_traitsIcEEE6sentryC1ERS3_
00000000002d3fcc W _ZNSt6__ndk113basic_ostreamIcNS_11char_traitsIcEEE6sentryC2ERS3_
00000000002d4030 W _ZNSt6__ndk113basic_ostreamIcNS_11char_traitsIcEEE6sentryD1Ev
00000000002d4030 W _ZNSt6__ndk113basic_ostreamIcNS_11char_traitsIcEEE6sentryD2Ev
00000000002d3e60 W _ZNSt6__ndk113basic_ostreamIcNS_11char_traitsIcEEEC1EPNS_15basic_streambufIcS2_EE
00000000002d3e08 W _ZNSt6__ndk113basic_ostreamIcNS_11char_traitsIcEEEC2EPNS_15basic_streambufIcS2_EE
00000000002d3ef8 W _ZNSt6__ndk113basic_ostreamIcNS_11char_traitsIcEEED0Ev
00000000002d3ed4 W _ZNSt6__ndk113basic_ostreamIcNS_11char_traitsIcEEED1Ev
00000000002d3ecc W _ZNSt6__ndk113basic_ostreamIcNS_11char_traitsIcEEED2Ev
00000000002d4154 W _ZNSt6__ndk113basic_ostreamIcNS_11char_traitsIcEEElsEb
00000000002d5174 W _ZNSt6__ndk113basic_ostreamIcNS_11char_traitsIcEEElsEd
00000000002d5310 W _ZNSt6__ndk113basic_ostreamIcNS_11char_traitsIcEEElsEe
00000000002d4fd8 W _ZNSt6__ndk113basic_ostreamIcNS_11char_traitsIcEEElsEf
00000000002d4638 W _ZNSt6__ndk113basic_ostreamIcNS_11char_traitsIcEEElsEi
00000000002d47f4 W _ZNSt6__ndk113basic_ostreamIcNS_11char_traitsIcEEElsEj
00000000002d4988 W _ZNSt6__ndk113basic_ostreamIcNS_11char_traitsIcEEElsEl
00000000002d4b1c W _ZNSt6__ndk113basic_ostreamIcNS_11char_traitsIcEEElsEm
00000000002d411c W _ZNSt6__ndk113basic_ostreamIcNS_11char_traitsIcEEElsEPFRNS_8ios_baseES5_E
00000000002d40e4 W _ZNSt6__ndk113basic_ostreamIcNS_11char_traitsIcEEElsEPFRNS_9basic_iosIcS2_EES6_E
00000000002d40d8 W _ZNSt6__ndk113basic_ostreamIcNS_11char_traitsIcEEElsEPFRS3_S4_E
00000000002d54a4 W _ZNSt6__ndk113basic_ostreamIcNS_11char_traitsIcEEElsEPKv
00000000002d5638 W _ZNSt6__ndk113basic_ostreamIcNS_11char_traitsIcEEElsEPNS_15basic_streambufIcS2_EE
00000000002d42e8 W _ZNSt6__ndk113basic_ostreamIcNS_11char_traitsIcEEElsEs
00000000002d44a4 W _ZNSt6__ndk113basic_ostreamIcNS_11char_traitsIcEEElsEt
00000000002d4cb0 W _ZNSt6__ndk113basic_ostreamIcNS_11char_traitsIcEEElsEx
00000000002d4e44 W _ZNSt6__ndk113basic_ostreamIcNS_11char_traitsIcEEElsEy
00000000002dabbc W _ZNSt6__ndk113basic_ostreamIwNS_11char_traitsIwEEE3putEw
00000000002d931c W _ZNSt6__ndk113basic_ostreamIwNS_11char_traitsIwEEE4swapERS3_
00000000002d69bc W _ZNSt6__ndk113basic_ostreamIwNS_11char_traitsIwEEE5flushEv
00000000002dae0c W _ZNSt6__ndk113basic_ostreamIwNS_11char_traitsIwEEE5seekpENS_4fposI9mbstate_tEE
00000000002daed0 W _ZNSt6__ndk113basic_ostreamIwNS_11char_traitsIwEEE5seekpExNS_8ios_base7seekdirE
00000000002dadac W _ZNSt6__ndk113basic_ostreamIwNS_11char_traitsIwEEE5tellpEv
00000000002dacc0 W _ZNSt6__ndk113basic_ostreamIwNS_11char_traitsIwEEE5writeEPKwl
00000000002d9380 W _ZNSt6__ndk113basic_ostreamIwNS_11char_traitsIwEEE6sentryC1ERS3_
00000000002d9380 W _ZNSt6__ndk113basic_ostreamIwNS_11char_traitsIwEEE6sentryC2ERS3_
00000000002d93e4 W _ZNSt6__ndk113basic_ostreamIwNS_11char_traitsIwEEE6sentryD1Ev
00000000002d93e4 W _ZNSt6__ndk113basic_ostreamIwNS_11char_traitsIwEEE6sentryD2Ev
00000000002d9214 W _ZNSt6__ndk113basic_ostreamIwNS_11char_traitsIwEEEC1EPNS_15basic_streambufIwS2_EE
00000000002d91bc W _ZNSt6__ndk113basic_ostreamIwNS_11char_traitsIwEEEC2EPNS_15basic_streambufIwS2_EE
00000000002d92ac W _ZNSt6__ndk113basic_ostreamIwNS_11char_traitsIwEEED0Ev
00000000002d9288 W _ZNSt6__ndk113basic_ostreamIwNS_11char_traitsIwEEED1Ev
00000000002d9280 W _ZNSt6__ndk113basic_ostreamIwNS_11char_traitsIwEEED2Ev
00000000002d9508 W _ZNSt6__ndk113basic_ostreamIwNS_11char_traitsIwEEElsEb
00000000002da528 W _ZNSt6__ndk113basic_ostreamIwNS_11char_traitsIwEEElsEd
00000000002da6c4 W _ZNSt6__ndk113basic_ostreamIwNS_11char_traitsIwEEElsEe
00000000002da38c W _ZNSt6__ndk113basic_ostreamIwNS_11char_traitsIwEEElsEf
00000000002d99ec W _ZNSt6__ndk113basic_ostreamIwNS_11char_traitsIwEEElsEi
00000000002d9ba8 W _ZNSt6__ndk113basic_ostreamIwNS_11char_traitsIwEEElsEj
00000000002d9d3c W _ZNSt6__ndk113basic_ostreamIwNS_11char_traitsIwEEElsEl
00000000002d9ed0 W _ZNSt6__ndk113basic_ostreamIwNS_11char_traitsIwEEElsEm
00000000002d94d0 W _ZNSt6__ndk113basic_ostreamIwNS_11char_traitsIwEEElsEPFRNS_8ios_baseES5_E
00000000002d9498 W _ZNSt6__ndk113basic_ostreamIwNS_11char_traitsIwEEElsEPFRNS_9basic_iosIwS2_EES6_E
00000000002d948c W _ZNSt6__ndk113basic_ostreamIwNS_11char_traitsIwEEElsEPFRS3_S4_E
00000000002da858 W _ZNSt6__ndk113basic_ostreamIwNS_11char_traitsIwEEElsEPKv
00000000002da9ec W _ZNSt6__ndk113basic_ostreamIwNS_11char_traitsIwEEElsEPNS_15basic_streambufIwS2_EE
00000000002d969c W _ZNSt6__ndk113basic_ostreamIwNS_11char_traitsIwEEElsEs
00000000002d9858 W _ZNSt6__ndk113basic_ostreamIwNS_11char_traitsIwEEElsEt
00000000002da064 W _ZNSt6__ndk113basic_ostreamIwNS_11char_traitsIwEEElsEx
00000000002da1f8 W _ZNSt6__ndk113basic_ostreamIwNS_11char_traitsIwEEElsEy
000000000018981c W _ZNSt6__ndk113__empty_stateIcED0Ev
0000000000286af4 W _ZNSt6__ndk113__empty_stateIwED0Ev
00000000001844a4 W _ZNSt6__ndk113match_resultsINS_11__wrap_iterIPKcEENS_9allocatorINS_9sub_matchIS4_EEEEE8__assignB8ne200000IS3_NS5_INS6_IS3_EEEEEEvS4_S4_RKNS0_IT_T0_EEb
000000000028f8d0 W _ZNSt6__ndk113match_resultsINS_11__wrap_iterIPKwEENS_9allocatorINS_9sub_matchIS4_EEEEE8__assignB8ne200000IS3_NS5_INS6_IS3_EEEEEEvS4_S4_RKNS0_IT_T0_EEb
00000000002cef24 T _ZNSt6__ndk113random_deviceC1ERKNS_12basic_stringIcNS_11char_traitsIcEENS_9allocatorIcEEEE
00000000002cef24 T _ZNSt6__ndk113random_deviceC2ERKNS_12basic_stringIcNS_11char_traitsIcEENS_9allocatorIcEEEE
00000000002ceff4 T _ZNSt6__ndk113random_deviceclEv
00000000002cefd0 T _ZNSt6__ndk113random_deviceD1Ev
00000000002cefd0 T _ZNSt6__ndk113random_deviceD2Ev
00000000002dbd94 W _ZNSt6__ndk114basic_ifstreamIcNS_11char_traitsIcEEE4openEPKcj
00000000002dbebc W _ZNSt6__ndk114basic_ifstreamIcNS_11char_traitsIcEEE4openERKNS_12basic_stringIcS2_NS_9allocatorIcEEEEj
00000000002d5dd8 W _ZNSt6__ndk114basic_iostreamIcNS_11char_traitsIcEEE4swapERS3_
00000000002d5c74 W _ZNSt6__ndk114basic_iostreamIcNS_11char_traitsIcEEEC1EPNS_15basic_streambufIcS2_EE
00000000002d5bd4 W _ZNSt6__ndk114basic_iostreamIcNS_11char_traitsIcEEEC2EPNS_15basic_streambufIcS2_EE
00000000002d5d34 W _ZNSt6__ndk114basic_iostreamIcNS_11char_traitsIcEEED0Ev
00000000002d5d04 W _ZNSt6__ndk114basic_iostreamIcNS_11char_traitsIcEEED1Ev
00000000002d5cfc W _ZNSt6__ndk114basic_iostreamIcNS_11char_traitsIcEEED2Ev
00000000002dbf20 W _ZNSt6__ndk114basic_ofstreamIcNS_11char_traitsIcEEE4openEPKcj
00000000002dbf74 W _ZNSt6__ndk114basic_ofstreamIcNS_11char_traitsIcEEE4openERKNS_12basic_stringIcS2_NS_9allocatorIcEEEEj
00000000002f722c W _ZNSt6__ndk114codecvt_bynameIcc9mbstate_tED0Ev
00000000002f7224 W _ZNSt6__ndk114codecvt_bynameIcc9mbstate_tED1Ev
00000000002f7224 W _ZNSt6__ndk114codecvt_bynameIcc9mbstate_tED2Ev
00000000002f72d4 W _ZNSt6__ndk114codecvt_bynameIDic9mbstate_tED0Ev
00000000002f72cc W _ZNSt6__ndk114codecvt_bynameIDic9mbstate_tED1Ev
00000000002f72cc W _ZNSt6__ndk114codecvt_bynameIDic9mbstate_tED2Ev
00000000002f7344 W _ZNSt6__ndk114codecvt_bynameIDiDu9mbstate_tED0Ev
00000000002f733c W _ZNSt6__ndk114codecvt_bynameIDiDu9mbstate_tED1Ev
00000000002f733c W _ZNSt6__ndk114codecvt_bynameIDiDu9mbstate_tED2Ev
00000000002f729c W _ZNSt6__ndk114codecvt_bynameIDsc9mbstate_tED0Ev
00000000002f7294 W _ZNSt6__ndk114codecvt_bynameIDsc9mbstate_tED1Ev
00000000002f7294 W _ZNSt6__ndk114codecvt_bynameIDsc9mbstate_tED2Ev
00000000002f730c W _ZNSt6__ndk114codecvt_bynameIDsDu9mbstate_tED0Ev
00000000002f7304 W _ZNSt6__ndk114codecvt_bynameIDsDu9mbstate_tED1Ev
00000000002f7304 W _ZNSt6__ndk114codecvt_bynameIDsDu9mbstate_tED2Ev
00000000002f7264 W _ZNSt6__ndk114codecvt_bynameIwc9mbstate_tED0Ev
00000000002f725c W _ZNSt6__ndk114codecvt_bynameIwc9mbstate_tED1Ev
00000000002f725c W _ZNSt6__ndk114codecvt_bynameIwc9mbstate_tED2Ev
00000000002ff764 T _ZNSt6__ndk114collate_bynameIcEC1EPKcm
00000000002ff8b0 T _ZNSt6__ndk114collate_bynameIcEC1ERKNS_12basic_stringIcNS_11char_traitsIcEENS_9allocatorIcEEEEm
00000000002ff764 T _ZNSt6__ndk114collate_bynameIcEC2EPKcm
00000000002ff8b0 T _ZNSt6__ndk114collate_bynameIcEC2ERKNS_12basic_stringIcNS_11char_traitsIcEENS_9allocatorIcEEEEm
00000000002ff9c0 T _ZNSt6__ndk114collate_bynameIcED0Ev
00000000002ff97c T _ZNSt6__ndk114collate_bynameIcED1Ev
00000000002ff97c T _ZNSt6__ndk114collate_bynameIcED2Ev
00000000002ffdc8 T _ZNSt6__ndk114collate_bynameIwEC1EPKcm
00000000002ffeb0 T _ZNSt6__ndk114collate_bynameIwEC1ERKNS_12basic_stringIcNS_11char_traitsIcEENS_9allocatorIcEEEEm
00000000002ffdc8 T _ZNSt6__ndk114collate_bynameIwEC2EPKcm
00000000002ffeb0 T _ZNSt6__ndk114collate_bynameIwEC2ERKNS_12basic_stringIcNS_11char_traitsIcEENS_9allocatorIcEEEEm
00000000002fffc0 T _ZNSt6__ndk114collate_bynameIwED0Ev
00000000002fff7c T _ZNSt6__ndk114collate_bynameIwED1Ev
00000000002fff7c T _ZNSt6__ndk114collate_bynameIwED2Ev
0000000000306738 T _ZNSt6__ndk114__num_get_base10__get_baseERNS_8ios_baseE
000000000010bd64 R _ZNSt6__ndk114__num_get_base5__srcE
000000000030677c T _ZNSt6__ndk114__num_put_base12__format_intEPcPKcbj
0000000000306820 T _ZNSt6__ndk114__num_put_base14__format_floatEPcPKcj
00000000002e9448 T _ZNSt6__ndk114__num_put_base18__identify_paddingEPcS1_RKNS_8ios_baseE
0000000000285914 W _ZNSt6__ndk114regex_iteratorINS_11__wrap_iterIPKcEEcNS_12regex_traitsIcEEEppEv
0000000000285c38 W _ZNSt6__ndk114regex_iteratorINS_11__wrap_iterIPKwEEwNS_12regex_traitsIwEEEppEv
0000000000259e54 W _ZNSt6__ndk114regex_iteratorIPKccNS_12regex_traitsIcEEEppEv
00000000002d0c28 W _ZNSt6__ndk115basic_streambufIcNS_11char_traitsIcEEE10pubseekoffExNS_8ios_base7seekdirEj
00000000002d0c38 W _ZNSt6__ndk115basic_streambufIcNS_11char_traitsIcEEE10pubseekposENS_4fposI9mbstate_tEEj
00000000002d0fd0 W _ZNSt6__ndk115basic_streambufIcNS_11char_traitsIcEEE4setgEPcS4_S4_
00000000002d0ff4 W _ZNSt6__ndk115basic_streambufIcNS_11char_traitsIcEEE4setpEPcS4_
00000000002d0f00 W _ZNSt6__ndk115basic_streambufIcNS_11char_traitsIcEEE4swapERS3_
00000000002d1034 W _ZNSt6__ndk115basic_streambufIcNS_11char_traitsIcEEE4syncEv
00000000002d0fbc W _ZNSt6__ndk115basic_streambufIcNS_11char_traitsIcEEE5gbumpEi
00000000002d1004 W _ZNSt6__ndk115basic_streambufIcNS_11char_traitsIcEEE5imbueERKNS_6localeE
00000000002d0fe0 W _ZNSt6__ndk115basic_streambufIcNS_11char_traitsIcEEE5pbumpEi
00000000002d0d2c W _ZNSt6__ndk115basic_streambufIcNS_11char_traitsIcEEE5sgetcEv
00000000002d0d50 W _ZNSt6__ndk115basic_streambufIcNS_11char_traitsIcEEE5sgetnEPcl
00000000002d0dc8 W _ZNSt6__ndk115basic_streambufIcNS_11char_traitsIcEEE5sputcEc
00000000002d0e04 W _ZNSt6__ndk115basic_streambufIcNS_11char_traitsIcEEE5sputnEPKcl
00000000002d1128 W _ZNSt6__ndk115basic_streambufIcNS_11char_traitsIcEEE5uflowEv
00000000002d0d00 W _ZNSt6__ndk115basic_streambufIcNS_11char_traitsIcEEE6sbumpcEv
00000000002d100c W _ZNSt6__ndk115basic_streambufIcNS_11char_traitsIcEEE6setbufEPcl
00000000002d0c7c W _ZNSt6__ndk115basic_streambufIcNS_11char_traitsIcEEE6snextcEv
00000000002d104c W _ZNSt6__ndk115basic_streambufIcNS_11char_traitsIcEEE6xsgetnEPcl
00000000002d117c W _ZNSt6__ndk115basic_streambufIcNS_11char_traitsIcEEE6xsputnEPKcl
00000000002d0c48 W _ZNSt6__ndk115basic_streambufIcNS_11char_traitsIcEEE7pubsyncEv
00000000002d1014 W _ZNSt6__ndk115basic_streambufIcNS_11char_traitsIcEEE7seekoffExNS_8ios_base7seekdirEj
00000000002d1024 W _ZNSt6__ndk115basic_streambufIcNS_11char_traitsIcEEE7seekposENS_4fposI9mbstate_tEEj
00000000002d0d98 W _ZNSt6__ndk115basic_streambufIcNS_11char_traitsIcEEE7sungetcEv
00000000002d0c58 W _ZNSt6__ndk115basic_streambufIcNS_11char_traitsIcEEE8in_availEv
00000000002d124c W _ZNSt6__ndk115basic_streambufIcNS_11char_traitsIcEEE8overflowEi
00000000002d0bb4 W _ZNSt6__ndk115basic_streambufIcNS_11char_traitsIcEEE8pubimbueERKNS_6localeE
00000000002d1170 W _ZNSt6__ndk115basic_streambufIcNS_11char_traitsIcEEE9pbackfailEi
00000000002d0c18 W _ZNSt6__ndk115basic_streambufIcNS_11char_traitsIcEEE9pubsetbufEPcl
00000000002d1040 W _ZNSt6__ndk115basic_streambufIcNS_11char_traitsIcEEE9showmanycEv
00000000002d0d60 W _ZNSt6__ndk115basic_streambufIcNS_11char_traitsIcEEE9sputbackcEc
00000000002d111c W _ZNSt6__ndk115basic_streambufIcNS_11char_traitsIcEEE9underflowEv
00000000002d0eb0 W _ZNSt6__ndk115basic_streambufIcNS_11char_traitsIcEEEaSERKS3_
00000000002d0e58 W _ZNSt6__ndk115basic_streambufIcNS_11char_traitsIcEEEC1ERKS3_
00000000002d0e14 W _ZNSt6__ndk115basic_streambufIcNS_11char_traitsIcEEEC1Ev
00000000002d0e58 W _ZNSt6__ndk115basic_streambufIcNS_11char_traitsIcEEEC2ERKS3_
00000000002d0e14 W _ZNSt6__ndk115basic_streambufIcNS_11char_traitsIcEEEC2Ev
00000000002d0b84 W _ZNSt6__ndk115basic_streambufIcNS_11char_traitsIcEEED0Ev
00000000002d0b6c W _ZNSt6__ndk115basic_streambufIcNS_11char_traitsIcEEED1Ev
00000000002d0b6c W _ZNSt6__ndk115basic_streambufIcNS_11char_traitsIcEEED2Ev
00000000002d5fb4 W _ZNSt6__ndk115basic_streambufIwNS_11char_traitsIwEEE10pubseekoffExNS_8ios_base7seekdirEj
00000000002d5fc4 W _ZNSt6__ndk115basic_streambufIwNS_11char_traitsIwEEE10pubseekposENS_4fposI9mbstate_tEEj
00000000002d6368 W _ZNSt6__ndk115basic_streambufIwNS_11char_traitsIwEEE4setgEPwS4_S4_
00000000002d638c W _ZNSt6__ndk115basic_streambufIwNS_11char_traitsIwEEE4setpEPwS4_
00000000002d6298 W _ZNSt6__ndk115basic_streambufIwNS_11char_traitsIwEEE4swapERS3_
00000000002d63cc W _ZNSt6__ndk115basic_streambufIwNS_11char_traitsIwEEE4syncEv
00000000002d6354 W _ZNSt6__ndk115basic_streambufIwNS_11char_traitsIwEEE5gbumpEi
00000000002d639c W _ZNSt6__ndk115basic_streambufIwNS_11char_traitsIwEEE5imbueERKNS_6localeE
00000000002d6378 W _ZNSt6__ndk115basic_streambufIwNS_11char_traitsIwEEE5pbumpEi
00000000002d60c8 W _ZNSt6__ndk115basic_streambufIwNS_11char_traitsIwEEE5sgetcEv
00000000002d60ec W _ZNSt6__ndk115basic_streambufIwNS_11char_traitsIwEEE5sgetnEPwl
00000000002d6168 W _ZNSt6__ndk115basic_streambufIwNS_11char_traitsIwEEE5sputcEw
00000000002d619c W _ZNSt6__ndk115basic_streambufIwNS_11char_traitsIwEEE5sputnEPKwl
00000000002d64c8 W _ZNSt6__ndk115basic_streambufIwNS_11char_traitsIwEEE5uflowEv
00000000002d6098 W _ZNSt6__ndk115basic_streambufIwNS_11char_traitsIwEEE6sbumpcEv
00000000002d63a4 W _ZNSt6__ndk115basic_streambufIwNS_11char_traitsIwEEE6setbufEPwl
00000000002d600c W _ZNSt6__ndk115basic_streambufIwNS_11char_traitsIwEEE6snextcEv
00000000002d63e4 W _ZNSt6__ndk115basic_streambufIwNS_11char_traitsIwEEE6xsgetnEPwl
00000000002d6518 W _ZNSt6__ndk115basic_streambufIwNS_11char_traitsIwEEE6xsputnEPKwl
00000000002d5fd4 W _ZNSt6__ndk115basic_streambufIwNS_11char_traitsIwEEE7pubsyncEv
00000000002d63ac W _ZNSt6__ndk115basic_streambufIwNS_11char_traitsIwEEE7seekoffExNS_8ios_base7seekdirEj
00000000002d63bc W _ZNSt6__ndk115basic_streambufIwNS_11char_traitsIwEEE7seekposENS_4fposI9mbstate_tEEj
00000000002d6134 W _ZNSt6__ndk115basic_streambufIwNS_11char_traitsIwEEE7sungetcEv
00000000002d5fe4 W _ZNSt6__ndk115basic_streambufIwNS_11char_traitsIwEEE8in_availEv
00000000002d65f0 W _ZNSt6__ndk115basic_streambufIwNS_11char_traitsIwEEE8overflowEj
00000000002d5f40 W _ZNSt6__ndk115basic_streambufIwNS_11char_traitsIwEEE8pubimbueERKNS_6localeE
00000000002d650c W _ZNSt6__ndk115basic_streambufIwNS_11char_traitsIwEEE9pbackfailEj
00000000002d5fa4 W _ZNSt6__ndk115basic_streambufIwNS_11char_traitsIwEEE9pubsetbufEPwl
00000000002d63d8 W _ZNSt6__ndk115basic_streambufIwNS_11char_traitsIwEEE9showmanycEv
00000000002d60fc W _ZNSt6__ndk115basic_streambufIwNS_11char_traitsIwEEE9sputbackcEw
00000000002d64bc W _ZNSt6__ndk115basic_streambufIwNS_11char_traitsIwEEE9underflowEv
00000000002d6248 W _ZNSt6__ndk115basic_streambufIwNS_11char_traitsIwEEEaSERKS3_
00000000002d61f0 W _ZNSt6__ndk115basic_streambufIwNS_11char_traitsIwEEEC1ERKS3_
00000000002d61ac W _ZNSt6__ndk115basic_streambufIwNS_11char_traitsIwEEEC1Ev
00000000002d61f0 W _ZNSt6__ndk115basic_streambufIwNS_11char_traitsIwEEEC2ERKS3_
00000000002d61ac W _ZNSt6__ndk115basic_streambufIwNS_11char_traitsIwEEEC2Ev
00000000002d5f10 W _ZNSt6__ndk115basic_streambufIwNS_11char_traitsIwEEED0Ev
00000000002d5ef8 W _ZNSt6__ndk115basic_streambufIwNS_11char_traitsIwEEED1Ev
00000000002d5ef8 W _ZNSt6__ndk115basic_streambufIwNS_11char_traitsIwEEED2Ev
00000000002db7e8 W _ZNSt6__ndk115basic_stringbufIcNS_11char_traitsIcEENS_9allocatorIcEEE3strERKNS_12basic_stringIcS2_S4_EE
00000000002db428 W _ZNSt6__ndk115basic_stringbufIcNS_11char_traitsIcEENS_9allocatorIcEEE4swapERS5_
00000000002dbaf4 W _ZNSt6__ndk115basic_stringbufIcNS_11char_traitsIcEENS_9allocatorIcEEE7seekoffExNS_8ios_base7seekdirEj
00000000002db93c W _ZNSt6__ndk115basic_stringbufIcNS_11char_traitsIcEENS_9allocatorIcEEE8overflowEi
00000000002db8c8 W _ZNSt6__ndk115basic_stringbufIcNS_11char_traitsIcEENS_9allocatorIcEEE9pbackfailEi
00000000002db874 W _ZNSt6__ndk115basic_stringbufIcNS_11char_traitsIcEENS_9allocatorIcEEE9underflowEv
00000000002db224 W _ZNSt6__ndk115basic_stringbufIcNS_11char_traitsIcEENS_9allocatorIcEEEaSEOS5_
00000000002daf94 W _ZNSt6__ndk115basic_stringbufIcNS_11char_traitsIcEENS_9allocatorIcEEEC1EOS5_
00000000002daf94 W _ZNSt6__ndk115basic_stringbufIcNS_11char_traitsIcEENS_9allocatorIcEEEC2EOS5_
000000000031107c T _ZNSt6__ndk115__get_classnameEPKcb
0000000000306060 T _ZNSt6__ndk115numpunct_bynameIcE6__initEPKc
0000000000306000 T _ZNSt6__ndk115numpunct_bynameIcEC1EPKcm
0000000000306348 T _ZNSt6__ndk115numpunct_bynameIcEC1ERKNS_12basic_stringIcNS_11char_traitsIcEENS_9allocatorIcEEEEm
0000000000306000 T _ZNSt6__ndk115numpunct_bynameIcEC2EPKcm
0000000000306348 T _ZNSt6__ndk115numpunct_bynameIcEC2ERKNS_12basic_stringIcNS_11char_traitsIcEENS_9allocatorIcEEEEm
00000000003063b8 T _ZNSt6__ndk115numpunct_bynameIcED0Ev
0000000000305cf4 T _ZNSt6__ndk115numpunct_bynameIcED1Ev
0000000000305cf4 T _ZNSt6__ndk115numpunct_bynameIcED2Ev
0000000000306474 T _ZNSt6__ndk115numpunct_bynameIwE6__initEPKc
0000000000306410 T _ZNSt6__ndk115numpunct_bynameIwEC1EPKcm
0000000000306694 T _ZNSt6__ndk115numpunct_bynameIwEC1ERKNS_12basic_stringIcNS_11char_traitsIcEENS_9allocatorIcEEEEm
0000000000306410 T _ZNSt6__ndk115numpunct_bynameIwEC2EPKcm
0000000000306694 T _ZNSt6__ndk115numpunct_bynameIwEC2ERKNS_12basic_stringIcNS_11char_traitsIcEENS_9allocatorIcEEEEm
0000000000306708 T _ZNSt6__ndk115numpunct_bynameIwED0Ev
0000000000305d7c T _ZNSt6__ndk115numpunct_bynameIwED1Ev
0000000000305d7c T _ZNSt6__ndk115numpunct_bynameIwED2Ev
00000000002d0040 T _ZNSt6__ndk115system_categoryEv
000000000018a54c W _ZNSt6__ndk115__word_boundaryIcNS_12regex_traitsIcEEED0Ev
000000000018a4f0 W _ZNSt6__ndk115__word_boundaryIcNS_12regex_traitsIcEEED2Ev
00000000002878c8 W _ZNSt6__ndk115__word_boundaryIwNS_12regex_traitsIwEEED0Ev
000000000028786c W _ZNSt6__ndk115__word_boundaryIwNS_12regex_traitsIwEEED2Ev
000000000018b9c8 W _ZNSt6__ndk116__back_ref_icaseIcNS_12regex_traitsIcEEED0Ev
000000000018b96c W _ZNSt6__ndk116__back_ref_icaseIcNS_12regex_traitsIcEEED2Ev
0000000000289c6c W _ZNSt6__ndk116__back_ref_icaseIwNS_12regex_traitsIwEEED0Ev
0000000000289c10 W _ZNSt6__ndk116__back_ref_icaseIwNS_12regex_traitsIwEEED2Ev
00000000002f2f44 T _ZNSt6__ndk116__check_groupingERKNS_12basic_stringIcNS_11char_traitsIcEENS_9allocatorIcEEEEPjS8_Rj
00000000002cff58 T _ZNSt6__ndk116generic_categoryEv
0000000000305bd8 T _ZNSt6__ndk116__narrow_to_utf8ILm16EED0Ev
000000000030f690 T _ZNSt6__ndk116__narrow_to_utf8ILm16EED1Ev
000000000030f690 T _ZNSt6__ndk116__narrow_to_utf8ILm16EED2Ev
0000000000305c08 T _ZNSt6__ndk116__narrow_to_utf8ILm32EED0Ev
000000000030f690 T _ZNSt6__ndk116__narrow_to_utf8ILm32EED1Ev
000000000030f690 T _ZNSt6__ndk116__narrow_to_utf8ILm32EED2Ev
000000000018987c W _ZNSt6__ndk116__owns_one_stateIcED0Ev
0000000000190358 W _ZNSt6__ndk116__owns_one_stateIcED2Ev
0000000000286b54 W _ZNSt6__ndk116__owns_one_stateIwED0Ev
000000000028f078 W _ZNSt6__ndk116__owns_one_stateIwED2Ev
00000000001d5c58 W _ZNSt6__ndk117__assoc_sub_stateD2Ev
00000000002ce748 T _ZNSt6__ndk117bad_function_callD0Ev
00000000002ce740 T _ZNSt6__ndk117bad_function_callD1Ev
00000000002ce740 T _ZNSt6__ndk117bad_function_callD2Ev
00000000002cf164 T _ZNSt6__ndk117iostream_categoryEv
000000000030c648 T _ZNSt6__ndk117moneypunct_bynameIcLb0EE4initEPKc
000000000030cfc8 T _ZNSt6__ndk117moneypunct_bynameIcLb1EE4initEPKc
000000000030d3cc T _ZNSt6__ndk117moneypunct_bynameIwLb0EE4initEPKc
000000000030e138 T _ZNSt6__ndk117moneypunct_bynameIwLb1EE4initEPKc
000000000018fba8 W _ZNSt6__ndk117__repeat_one_loopIcED0Ev
000000000028e81c W _ZNSt6__ndk117__repeat_one_loopIwED0Ev
0000000000305c38 T _ZNSt6__ndk117__widen_from_utf8ILm16EED0Ev
000000000030f690 T _ZNSt6__ndk117__widen_from_utf8ILm16EED1Ev
000000000030f690 T _ZNSt6__ndk117__widen_from_utf8ILm16EED2Ev
0000000000305c68 T _ZNSt6__ndk117__widen_from_utf8ILm32EED0Ev
000000000030f690 T _ZNSt6__ndk117__widen_from_utf8ILm32EED1Ev
000000000030f690 T _ZNSt6__ndk117__widen_from_utf8ILm32EED2Ev
000000000018bb7c W _ZNSt6__ndk118__back_ref_collateIcNS_12regex_traitsIcEEED0Ev
000000000018bb20 W _ZNSt6__ndk118__back_ref_collateIcNS_12regex_traitsIcEEED2Ev
0000000000289e1c W _ZNSt6__ndk118__back_ref_collateIwNS_12regex_traitsIwEEED0Ev
0000000000289dc0 W _ZNSt6__ndk118__back_ref_collateIwNS_12regex_traitsIwEEED2Ev
00000000002dbbec W _ZNSt6__ndk118basic_stringstreamIcNS_11char_traitsIcEENS_9allocatorIcEEEaSEOS5_
000000000018b6fc W _ZNSt6__ndk118__match_char_icaseIcNS_12regex_traitsIcEEED0Ev
000000000018b6a0 W _ZNSt6__ndk118__match_char_icaseIcNS_12regex_traitsIcEEED2Ev
00000000002899a0 W _ZNSt6__ndk118__match_char_icaseIwNS_12regex_traitsIwEEED0Ev
0000000000289944 W _ZNSt6__ndk118__match_char_icaseIwNS_12regex_traitsIwEEED2Ev
000000000030a8e0 T _ZNSt6__ndk118__time_get_storageIcE4initERKNS_5ctypeIcEE
0000000000308624 T _ZNSt6__ndk118__time_get_storageIcE9__analyzeEcRKNS_5ctypeIcEE
000000000030b620 T _ZNSt6__ndk118__time_get_storageIcEC1EPKc
000000000030b888 T _ZNSt6__ndk118__time_get_storageIcEC1ERKNS_12basic_stringIcNS_11char_traitsIcEENS_9allocatorIcEEEE
000000000030b620 T _ZNSt6__ndk118__time_get_storageIcEC2EPKc
000000000030b888 T _ZNSt6__ndk118__time_get_storageIcEC2ERKNS_12basic_stringIcNS_11char_traitsIcEENS_9allocatorIcEEEE
000000000030ab78 T _ZNSt6__ndk118__time_get_storageIwE4initERKNS_5ctypeIwEE
0000000000308f18 T _ZNSt6__ndk118__time_get_storageIwE9__analyzeEcRKNS_5ctypeIwEE
000000000030ba84 T _ZNSt6__ndk118__time_get_storageIwEC1EPKc
000000000030bcdc T _ZNSt6__ndk118__time_get_storageIwEC1ERKNS_12basic_stringIcNS_11char_traitsIcEENS_9allocatorIcEEEE
000000000030ba84 T _ZNSt6__ndk118__time_get_storageIwEC2EPKc
000000000030bcdc T _ZNSt6__ndk118__time_get_storageIwEC2ERKNS_12basic_stringIcNS_11char_traitsIcEENS_9allocatorIcEEEE
00000000002dbd08 W _ZNSt6__ndk119basic_istringstreamIcNS_11char_traitsIcEENS_9allocatorIcEEEaSEOS5_
00000000002dbc78 W _ZNSt6__ndk119basic_ostringstreamIcNS_11char_traitsIcEENS_9allocatorIcEEEaSEOS5_
00000000000b7164 V _ZNSt6__ndk119piecewise_constructE
000000000018c32c W _ZNSt6__ndk120__bracket_expressionIcNS_12regex_traitsIcEEED0Ev
000000000018c198 W _ZNSt6__ndk120__bracket_expressionIcNS_12regex_traitsIcEEED2Ev
000000000028a694 W _ZNSt6__ndk120__bracket_expressionIwNS_12regex_traitsIwEEED0Ev
000000000028a4f4 W _ZNSt6__ndk120__bracket_expressionIwNS_12regex_traitsIwEEED2Ev
0000000000310fd4 T _ZNSt6__ndk120__get_collation_nameEPKc
000000000018a394 W _ZNSt6__ndk120__l_anchor_multilineIcED0Ev
0000000000287710 W _ZNSt6__ndk120__l_anchor_multilineIwED0Ev
000000000018b834 W _ZNSt6__ndk120__match_char_collateIcNS_12regex_traitsIcEEED0Ev
000000000018b7d8 W _ZNSt6__ndk120__match_char_collateIcNS_12regex_traitsIcEEED2Ev
0000000000289ad8 W _ZNSt6__ndk120__match_char_collateIwNS_12regex_traitsIwEEED0Ev
0000000000289a7c W _ZNSt6__ndk120__match_char_collateIwNS_12regex_traitsIwEEED2Ev
000000000018a44c W _ZNSt6__ndk120__r_anchor_multilineIcED0Ev
00000000002877c8 W _ZNSt6__ndk120__r_anchor_multilineIwED0Ev
0000000000158ec4 W _ZNSt6__ndk120__shared_ptr_emplaceIN12llama_ubatch6data_tENS_9allocatorIS2_EEED0Ev
0000000000158eb0 W _ZNSt6__ndk120__shared_ptr_emplaceIN12llama_ubatch6data_tENS_9allocatorIS2_EEED2Ev
00000000001746a4 W _ZNSt6__ndk120__shared_ptr_pointerIP18llama_adapter_cvecNS_14default_deleteIS1_EENS_9allocatorIS1_EEED0Ev
00000000001897b8 W _ZNSt6__ndk120__shared_ptr_pointerIPNS_13__empty_stateIcEENS_10shared_ptrIS2_E27__shared_ptr_default_deleteIS2_S2_EENS_9allocatorIS2_EEED0Ev
0000000000286a90 W _ZNSt6__ndk120__shared_ptr_pointerIPNS_13__empty_stateIwEENS_10shared_ptrIS2_E27__shared_ptr_default_deleteIS2_S2_EENS_9allocatorIS2_EEED0Ev
00000000002d08b8 T _ZNSt6__ndk120__throw_system_errorEiPKc
0000000000259200 W _ZNSt6__ndk121discrete_distributionIiEclINS_23mersenne_twister_engineImLm32ELm624ELm397ELm31ELm2567483615ELm11ELm4294967295ELm7ELm2636928640ELm15ELm4022730752ELm18ELm1812433253EEEEEiRT_RKNS1_10param_typeE
000000000018fcd0 W _ZNSt6__ndk121__empty_non_own_stateIcED0Ev
000000000028e944 W _ZNSt6__ndk121__empty_non_own_stateIwED0Ev
000000000018ad38 W _ZNSt6__ndk123__match_any_but_newlineIcED0Ev
0000000000289050 W _ZNSt6__ndk123__match_any_but_newlineIwED0Ev
000000000018f610 W _ZNSt6__ndk126__end_marked_subexpressionIcED0Ev
000000000028e31c W _ZNSt6__ndk126__end_marked_subexpressionIwED0Ev
000000000018f594 W _ZNSt6__ndk128__begin_marked_subexpressionIcED0Ev
000000000028e2a0 W _ZNSt6__ndk128__begin_marked_subexpressionIwED0Ev
0000000000177c24 W _ZNSt6__ndk13mapIiP13llama_samplerNS_4lessIiEENS_9allocatorINS_4pairIKiS2_EEEEE6insertB8ne200000INS_20__map_const_iteratorINS_21__tree_const_iteratorINS_12__value_typeIiS2_EEPNS_11__tree_nodeISF_PvEElEEEEEEvT_SM_
00000000001c1164 W _ZNSt6__ndk13setIiNS_4lessIiEENS_9allocatorIiEEE6insertB8ne200000INS_21__tree_const_iteratorIiPNS_11__tree_nodeIiPvEElEEEEvT_SD_
000000000027ecf4 W _ZNSt6__ndk14pairIKiNS_12basic_stringIcNS_11char_traitsIcEENS_9allocatorIcEEEEEC2B8ne200000IN17unicode_cpt_flagsUt_ERA12_KcTnNS_9enable_ifIXclsr10_CheckArgsE23__is_pair_constructibleIT_T0_EEEiE4typeELi0EEEOSG_OSH_
000000000027ec30 W _ZNSt6__ndk14pairIKiNS_12basic_stringIcNS_11char_traitsIcEENS_9allocatorIcEEEEEC2B8ne200000IN17unicode_cpt_flagsUt_ERA1_KcTnNS_9enable_ifIXclsr10_CheckArgsE23__is_pair_constructibleIT_T0_EEEiE4typeELi0EEEOSG_OSH_
000000000027eb6c W _ZNSt6__ndk14pairIKiNS_12basic_stringIcNS_11char_traitsIcEENS_9allocatorIcEEEEEC2B8ne200000IN17unicode_cpt_flagsUt_ERA26_KcTnNS_9enable_ifIXclsr10_CheckArgsE23__is_pair_constructibleIT_T0_EEEiE4typeELi0EEEOSG_OSH_
000000000027e9e4 W _ZNSt6__ndk14pairIKiNS_12basic_stringIcNS_11char_traitsIcEENS_9allocatorIcEEEEEC2B8ne200000IN17unicode_cpt_flagsUt_ERA4_KcTnNS_9enable_ifIXclsr10_CheckArgsE23__is_pair_constructibleIT_T0_EEEiE4typeELi0EEEOSG_OSH_
000000000027eaa8 W _ZNSt6__ndk14pairIKiNS_12basic_stringIcNS_11char_traitsIcEENS_9allocatorIcEEEEEC2B8ne200000IN17unicode_cpt_flagsUt_ERA7_KcTnNS_9enable_ifIXclsr10_CheckArgsE23__is_pair_constructibleIT_T0_EEEiE4typeELi0EEEOSG_OSH_
000000000027e6e0 W _ZNSt6__ndk14pairIKNS_12basic_stringIcNS_11char_traitsIcEENS_9allocatorIcEEEEiEC2B8ne200000IRA6_KcN17unicode_cpt_flagsUt_ETnNS_9enable_ifIXclsr10_CheckArgsE23__is_pair_constructibleIT_T0_EEEiE4typeELi0EEEOSG_OSH_
000000000027e790 W _ZNSt6__ndk14pairIKNS_12basic_stringIcNS_11char_traitsIcEENS_9allocatorIcEEEEiEC2B8ne200000IRA7_KcN17unicode_cpt_flagsUt_ETnNS_9enable_ifIXclsr10_CheckArgsE23__is_pair_constructibleIT_T0_EEEiE4typeELi0EEEOSG_OSH_
000000000014f720 W _ZNSt6__ndk14pairIKNS_12basic_stringIcNS_11char_traitsIcEENS_9allocatorIcEEEES6_EC2B8ne200000IRPKcRS7_TnNS_9enable_ifIXclsr10_CheckArgsE23__is_pair_constructibleIT_T0_EEEiE4typeELi0EEEOSF_OSG_
000000000018cc84 W _ZNSt6__ndk14pairINS_12basic_stringIcNS_11char_traitsIcEENS_9allocatorIcEEEES6_ED2Ev
000000000028b030 W _ZNSt6__ndk14pairINS_12basic_stringIwNS_11char_traitsIwEENS_9allocatorIwEEEES6_ED2Ev
000000000010beb8 R _ZNSt6__ndk15ctypeIcE10table_sizeE
0000000000300460 T _ZNSt6__ndk15ctypeIcE13classic_tableEv
0000000000333350 B _ZNSt6__ndk15ctypeIcE2idE
0000000000300a30 T _ZNSt6__ndk15ctypeIcEC1EPKmbm
0000000000300a30 T _ZNSt6__ndk15ctypeIcEC2EPKmbm
0000000000300ac0 T _ZNSt6__ndk15ctypeIcED0Ev
0000000000300a68 T _ZNSt6__ndk15ctypeIcED1Ev
0000000000300a68 T _ZNSt6__ndk15ctypeIcED2Ev
0000000000333340 B _ZNSt6__ndk15ctypeIwE2idE
0000000000300404 T _ZNSt6__ndk15ctypeIwED0Ev
000000000030f690 T _ZNSt6__ndk15ctypeIwED1Ev
000000000030f690 T _ZNSt6__ndk15ctypeIwED2Ev
00000000002ce6e8 T _ZNSt6__ndk16chrono12steady_clock3nowEv
000000000010b530 V _ZNSt6__ndk16chrono12steady_clock9is_steadyE
00000000002ce6d4 T _ZNSt6__ndk16chrono12system_clock11from_time_tEl
00000000002ce634 T _ZNSt6__ndk16chrono12system_clock3nowEv
000000000010b52f V _ZNSt6__ndk16chrono12system_clock9is_steadyE
00000000002ce6ac T _ZNSt6__ndk16chrono12system_clock9to_time_tERKNS0_10time_pointIS1_NS0_8durationIxNS_5ratioILl1ELl1000000EEEEEEE
00000000002e2ae0 T _ZNSt6__ndk16__clocEv
00000000002ff22c T _ZNSt6__ndk16locale14__install_ctorERKS0_PNS0_5facetEl
00000000002ff578 T _ZNSt6__ndk16locale2id5__getEv
0000000000333338 B _ZNSt6__ndk16locale2id9__next_idE
000000000010be50 R _ZNSt6__ndk16locale3allE
000000000010be34 R _ZNSt6__ndk16locale4noneE
000000000010be48 R _ZNSt6__ndk16locale4timeE
000000000010be3c R _ZNSt6__ndk16locale5ctypeE
00000000002ff754 T _ZNSt6__ndk16locale5facet16__on_zero_sharedEv
00000000002ff724 T _ZNSt6__ndk16locale5facetD0Ev
000000000030f690 T _ZNSt6__ndk16locale5facetD1Ev
000000000030f690 T _ZNSt6__ndk16locale5facetD2Ev
00000000002ff2c8 T _ZNSt6__ndk16locale6globalERKS0_
00000000002f9870 T _ZNSt6__ndk16locale7classicEv
000000000010be38 R _ZNSt6__ndk16locale7collateE
000000000010be44 R _ZNSt6__ndk16locale7numericE
00000000002feba0 T _ZNSt6__ndk16locale8__globalEv
000000000010be4c R _ZNSt6__ndk16locale8messagesE
000000000010be40 R _ZNSt6__ndk16locale8monetaryE
00000000002fed6c T _ZNSt6__ndk16localeaSERKS0_
00000000002fedf4 T _ZNSt6__ndk16localeC1EPKc
00000000002fef38 T _ZNSt6__ndk16localeC1ERKNS_12basic_stringIcNS_11char_traitsIcEENS_9allocatorIcEEEE
00000000002feccc T _ZNSt6__ndk16localeC1ERKS0_
00000000002fefa8 T _ZNSt6__ndk16localeC1ERKS0_PKci
00000000002ff104 T _ZNSt6__ndk16localeC1ERKS0_RKNS_12basic_stringIcNS_11char_traitsIcEENS_9allocatorIcEEEEi
00000000002ff180 T _ZNSt6__ndk16localeC1ERKS0_S2_i
00000000002fec24 T _ZNSt6__ndk16localeC1Ev
00000000002fedf4 T _ZNSt6__ndk16localeC2EPKc
00000000002fef38 T _ZNSt6__ndk16localeC2ERKNS_12basic_stringIcNS_11char_traitsIcEENS_9allocatorIcEEEE
00000000002feccc T _ZNSt6__ndk16localeC2ERKS0_
00000000002fefa8 T _ZNSt6__ndk16localeC2ERKS0_PKci
00000000002ff104 T _ZNSt6__ndk16localeC2ERKS0_RKNS_12basic_stringIcNS_11char_traitsIcEENS_9allocatorIcEEEEi
00000000002ff180 T _ZNSt6__ndk16localeC2ERKS0_S2_i
00000000002fec24 T _ZNSt6__ndk16localeC2Ev
00000000002fed0c T _ZNSt6__ndk16localeD1Ev
00000000002fed0c T _ZNSt6__ndk16localeD2Ev
000000000018f848 W _ZNSt6__ndk16__loopIcED0Ev
000000000028e4bc W _ZNSt6__ndk16__loopIwED0Ev
00000000001c1288 W _ZNSt6__ndk16__treeIiNS_4lessIiEENS_9allocatorIiEEE12__find_equalIiEERPNS_16__tree_node_baseIPvEENS_21__tree_const_iteratorIiPNS_11__tree_nodeIiS8_EElEERPNS_15__tree_end_nodeISA_EESB_RKT_
0000000000152ae8 W _ZNSt6__ndk16__treeINS_12__value_typeI10llm_tensor15llm_tensor_infoEENS_19__map_value_compareIS2_S4_NS_4lessIS2_EELb1EEENS_9allocatorIS4_EEE12__find_equalIS2_EERPNS_16__tree_node_baseIPvEENS_21__tree_const_iteratorIS4_PNS_11__tree_nodeIS4_SE_EElEERPNS_15__tree_end_nodeISG_EESH_RKT_
00000000001528f0 W _ZNSt6__ndk16__treeINS_12__value_typeI10llm_tensorPKcEENS_19__map_value_compareIS2_S5_NS_4lessIS2_EELb1EEENS_9allocatorIS5_EEE12__find_equalIS2_EERPNS_16__tree_node_baseIPvEENS_21__tree_const_iteratorIS5_PNS_11__tree_nodeIS5_SF_EElEERPNS_15__tree_end_nodeISH_EESI_RKT_
0000000000241aa8 W _ZNSt6__ndk16__treeINS_12__value_typeI23llama_rope_scaling_typePKcEENS_19__map_value_compareIS2_S5_NS_4lessIS2_EELb1EEENS_9allocatorIS5_EEE12__find_equalIS2_EERPNS_16__tree_node_baseIPvEENS_21__tree_const_iteratorIS5_PNS_11__tree_nodeIS5_SF_EElEERPNS_15__tree_end_nodeISH_EESI_RKT_
00000000001526f8 W _ZNSt6__ndk16__treeINS_12__value_typeI6llm_kvPKcEENS_19__map_value_compareIS2_S5_NS_4lessIS2_EELb1EEENS_9allocatorIS5_EEE12__find_equalIS2_EERPNS_16__tree_node_baseIPvEENS_21__tree_const_iteratorIS5_PNS_11__tree_nodeIS5_SF_EElEERPNS_15__tree_end_nodeISH_EESI_RKT_
0000000000152500 W _ZNSt6__ndk16__treeINS_12__value_typeI8llm_archPKcEENS_19__map_value_compareIS2_S5_NS_4lessIS2_EELb1EEENS_9allocatorIS5_EEE12__find_equalIS2_EERPNS_16__tree_node_baseIPvEENS_21__tree_const_iteratorIS5_PNS_11__tree_nodeIS5_SF_EElEERPNS_15__tree_end_nodeISH_EESI_RKT_
00000000002852ec W _ZNSt6__ndk16__treeINS_12__value_typeIiiEENS_19__map_value_compareIiS2_NS_4lessIiEELb1EEENS_9allocatorIS2_EEE12__find_equalIiEERPNS_16__tree_node_baseIPvEENS_21__tree_const_iteratorIS2_PNS_11__tree_nodeIS2_SC_EElEERPNS_15__tree_end_nodeISE_EESF_RKT_
00000000002855dc W _ZNSt6__ndk16__treeINS_12__value_typeIiNS_12basic_stringIcNS_11char_traitsIcEENS_9allocatorIcEEEEEENS_19__map_value_compareIiS8_NS_4lessIiEELb1EEENS5_IS8_EEE12__find_equalIiEERPNS_16__tree_node_baseIPvEENS_21__tree_const_iteratorIS8_PNS_11__tree_nodeIS8_SH_EElEERPNS_15__tree_end_nodeISJ_EESK_RKT_
000000000028549c W _ZNSt6__ndk16__treeINS_12__value_typeIiNS_12basic_stringIcNS_11char_traitsIcEENS_9allocatorIcEEEEEENS_19__map_value_compareIiS8_NS_4lessIiEELb1EEENS5_IS8_EEE30__emplace_hint_unique_key_argsIiJRKNS_4pairIKiS7_EEEEENSG_INS_15__tree_iteratorIS8_PNS_11__tree_nodeIS8_PvEElEEbEENS_21__tree_const_iteratorIS8_SP_lEERKT_DpOT0_
0000000000177d48 W _ZNSt6__ndk16__treeINS_12__value_typeIiP13llama_samplerEENS_19__map_value_compareIiS4_NS_4lessIiEELb1EEENS_9allocatorIS4_EEE12__find_equalIiEERPNS_16__tree_node_baseIPvEENS_21__tree_const_iteratorIS4_PNS_11__tree_nodeIS4_SE_EElEERPNS_15__tree_end_nodeISG_EESH_RKT_
000000000019d2e4 W _ZNSt6__ndk16__treeINS_12__value_typeIiP13llama_samplerEENS_19__map_value_compareIiS4_NS_4lessIiEELb1EEENS_9allocatorIS4_EEE14__assign_multiINS_21__tree_const_iteratorIS4_PNS_11__tree_nodeIS4_PvEElEEEEvT_SJ_
000000000015fb98 W _ZNSt6__ndk16__treeINS_12__value_typeINS_12basic_stringIcNS_11char_traitsIcEENS_9allocatorIcEEEE17llm_chat_templateEENS_19__map_value_compareIS7_S9_NS_4lessIS7_EELb1EEENS5_IS9_EEE12__find_equalIS7_EERPNS_16__tree_node_baseIPvEENS_21__tree_const_iteratorIS9_PNS_11__tree_nodeIS9_SI_EElEERPNS_15__tree_end_nodeISK_EESL_RKT_
000000000015fa5c W _ZNSt6__ndk16__treeINS_12__value_typeINS_12basic_stringIcNS_11char_traitsIcEENS_9allocatorIcEEEE17llm_chat_templateEENS_19__map_value_compareIS7_S9_NS_4lessIS7_EELb1EEENS5_IS9_EEE30__emplace_hint_unique_key_argsIS7_JRKNS_4pairIKS7_S8_EEEEENSH_INS_15__tree_iteratorIS9_PNS_11__tree_nodeIS9_PvEElEEbEENS_21__tree_const_iteratorIS9_SQ_lEERKT_DpOT0_
00000000001503e8 W _ZNSt6__ndk16__treeINS_12__value_typeINS_12basic_stringIcNS_11char_traitsIcEENS_9allocatorIcEEEE25llama_adapter_lora_weightEENS_19__map_value_compareIS7_S9_NS_4lessIS7_EELb1EEENS5_IS9_EEE25__emplace_unique_key_argsIS7_JRKNS_21piecewise_construct_tENS_5tupleIJRKS7_EEENSK_IJEEEEEENS_4pairINS_15__tree_iteratorIS9_PNS_11__tree_nodeIS9_PvEElEEbEERKT_DpOT0_
00000000001502c0 W _ZNSt6__ndk16__treeINS_12__value_typeINS_12basic_stringIcNS_11char_traitsIcEENS_9allocatorIcEEEE25llama_adapter_lora_weightEENS_19__map_value_compareIS7_S9_NS_4lessIS7_EELb1EEENS5_IS9_EEE4findIS7_EENS_15__tree_iteratorIS9_PNS_11__tree_nodeIS9_PvEElEERKT_
0000000000284e40 W _ZNSt6__ndk16__treeINS_12__value_typeINS_12basic_stringIcNS_11char_traitsIcEENS_9allocatorIcEEEEiEENS_19__map_value_compareIS7_S8_NS_4lessIS7_EELb1EEENS5_IS8_EEE12__find_equalIS7_EERPNS_16__tree_node_baseIPvEENS_21__tree_const_iteratorIS8_PNS_11__tree_nodeIS8_SH_EElEERPNS_15__tree_end_nodeISJ_EESK_RKT_
0000000000284d04 W _ZNSt6__ndk16__treeINS_12__value_typeINS_12basic_stringIcNS_11char_traitsIcEENS_9allocatorIcEEEEiEENS_19__map_value_compareIS7_S8_NS_4lessIS7_EELb1EEENS5_IS8_EEE30__emplace_hint_unique_key_argsIS7_JRKNS_4pairIKS7_iEEEEENSG_INS_15__tree_iteratorIS8_PNS_11__tree_nodeIS8_PvEElEEbEENS_21__tree_const_iteratorIS8_SP_lEERKT_DpOT0_
0000000000187f60 W _ZNSt6__ndk16__treeINS_12__value_typeINS_12basic_stringIcNS_11char_traitsIcEENS_9allocatorIcEEEEjEENS_19__map_value_compareIS7_S8_NS_4lessIS7_EELb1EEENS5_IS8_EEE25__emplace_unique_key_argsIS7_JRKNS_21piecewise_construct_tENS_5tupleIJOS7_EEENSJ_IJEEEEEENS_4pairINS_15__tree_iteratorIS8_PNS_11__tree_nodeIS8_PvEElEEbEERKT_DpOT0_
0000000000187ddc W _ZNSt6__ndk16__treeINS_12__value_typeINS_12basic_stringIcNS_11char_traitsIcEENS_9allocatorIcEEEEjEENS_19__map_value_compareIS7_S8_NS_4lessIS7_EELb1EEENS5_IS8_EEE25__emplace_unique_key_argsIS7_JS7_RjEEENS_4pairINS_15__tree_iteratorIS8_PNS_11__tree_nodeIS8_PvEElEEbEERKT_DpOT0_
00000000001885d8 W _ZNSt6__ndk16__treeINS_12__value_typeINS_12basic_stringIcNS_11char_traitsIcEENS_9allocatorIcEEEEjEENS_19__map_value_compareIS7_S8_NS_4lessIS7_EELb1EEENS5_IS8_EEE4findIS7_EENS_15__tree_iteratorIS8_PNS_11__tree_nodeIS8_PvEElEERKT_
00000000001d4978 W _ZNSt6__ndk16__treeINS_12__value_typeINS_12basic_stringIcNS_11char_traitsIcEENS_9allocatorIcEEEEN18llama_model_loader19llama_tensor_weightEEENS_19__map_value_compareIS7_SA_NS8_20weight_name_comparerELb1EEENS5_ISA_EEE25__emplace_unique_key_argsIS7_JRS7_S9_EEENS_4pairINS_15__tree_iteratorISA_PNS_11__tree_nodeISA_PvEElEEbEERKT_DpOT0_
000000000026da4c W _ZNSt6__ndk16__treeINS_12__value_typeINS_12basic_stringIcNS_11char_traitsIcEENS_9allocatorIcEEEENS_4pairIiiEEEENS_19__map_value_compareIS7_SA_NS_4lessIS7_EELb1EEENS5_ISA_EEE25__emplace_unique_key_argsIS7_JRKNS_21piecewise_construct_tENS_5tupleIJRKS7_EEENSL_IJEEEEEENS8_INS_15__tree_iteratorISA_PNS_11__tree_nodeISA_PvEElEEbEERKT_DpOT0_
000000000026deac W _ZNSt6__ndk16__treeINS_12__value_typeINS_12basic_stringIcNS_11char_traitsIcEENS_9allocatorIcEEEENS_4pairIiiEEEENS_19__map_value_compareIS7_SA_NS_4lessIS7_EELb1EEENS5_ISA_EEE4findIS7_EENS_15__tree_iteratorISA_PNS_11__tree_nodeISA_PvEElEERKT_
00000000001d1edc W _ZNSt6__ndk16__treeINS_12__value_typeIP24ggml_backend_buffer_typeNS_10unique_ptrI12ggml_context20ggml_context_deleterEEEENS_19__map_value_compareIS3_S8_N18llama_model_loader28ggml_backend_buft_comparatorELb1EEENS_9allocatorIS8_EEE12__find_equalIS3_EERPNS_16__tree_node_baseIPvEERPNS_15__tree_end_nodeISK_EERKT_
00000000001d1e2c W _ZNSt6__ndk16__treeINS_12__value_typeIP24ggml_backend_buffer_typeNS_10unique_ptrI12ggml_context20ggml_context_deleterEEEENS_19__map_value_compareIS3_S8_N18llama_model_loader28ggml_backend_buft_comparatorELb1EEENS_9allocatorIS8_EEE4findIS3_EENS_15__tree_iteratorIS8_PNS_11__tree_nodeIS8_PvEElEERKT_
000000000026eb28 W _ZNSt6__ndk16vectorI10llm_symbolNS_9allocatorIS1_EEE18__assign_with_sizeB8ne200000IPS1_S6_EEvT_T0_l
000000000014b538 W _ZNSt6__ndk16vectorI12llama_deviceNS_9allocatorIS1_EEE18__insert_with_sizeB8ne200000INS_11__wrap_iterIPS1_EES8_EES8_NS6_IPKS1_EET_T0_l
00000000001b508c W _ZNSt6__ndk16vectorI12llama_ubatchNS_9allocatorIS1_EEE21__push_back_slow_pathIS1_EEPS1_OT_
000000000026e490 W _ZNSt6__ndk16vectorI14llm_bigram_bpeNS_9allocatorIS1_EEE21__push_back_slow_pathIRKS1_EEPS1_OT_
0000000000188284 W _ZNSt6__ndk16vectorI21llama_grammar_elementNS_9allocatorIS1_EEE18__assign_with_sizeB8ne200000IPS1_S6_EEvT_T0_l
00000000001836a0 W _ZNSt6__ndk16vectorI21llama_grammar_elementNS_9allocatorIS1_EEE18__insert_with_sizeB8ne200000INS_11__wrap_iterIPS1_EES8_EES8_NS6_IPKS1_EET_T0_l
0000000000174b74 W _ZNSt6__ndk16vectorI23dflash_layer_hidden_bufNS_9allocatorIS1_EEE18__assign_with_sizeB8ne200000IPS1_S6_EEvT_T0_l
0000000000188700 W _ZNSt6__ndk16vectorI29llama_grammar_trigger_patternNS_9allocatorIS1_EEE24__emplace_back_slow_pathIJEEEPS1_DpOT_
0000000000271688 W _ZNSt6__ndk16vectorIcNS_9allocatorIcEEE18__assign_with_sizeB8ne200000IPKcS6_EEvT_T0_l
0000000000174fac W _ZNSt6__ndk16vectorIfNS_9allocatorIfEEE18__assign_with_sizeB8ne200000IPfS5_EEvT_T0_l
0000000000176b3c W _ZNSt6__ndk16vectorIhNS_9allocatorIhEEE18__assign_with_sizeB8ne200000IPKhS6_EEvT_T0_l
0000000000176810 W _ZNSt6__ndk16vectorIiNS_9allocatorIiEEE18__assign_with_sizeB8ne200000IPiS5_EEvT_T0_l
0000000000176d24 W _ZNSt6__ndk16vectorIiNS_9allocatorIiEEE18__assign_with_sizeB8ne200000IPKiS6_EEvT_T0_l
00000000001590a8 W _ZNSt6__ndk16vectorIiNS_9allocatorIiEEE18__insert_with_sizeB8ne200000INS_11__wrap_iterIPiEES7_EES7_NS5_IPKiEET_T0_l
000000000027a1e0 W _ZNSt6__ndk16vectorIjNS_9allocatorIjEEE12emplace_backIJiEEERjDpOT_
00000000001b43bc W _ZNSt6__ndk16vectorIN14llama_kv_cache8kv_layerENS_9allocatorIS2_EEE21__push_back_slow_pathIS2_EEPS2_OT_
00000000001b5370 W _ZNSt6__ndk16vectorIN14llama_kv_cache9slot_infoENS_9allocatorIS2_EEE21__push_back_slow_pathIRKS2_EEPS2_OT_
00000000001c0f50 W _ZNSt6__ndk16vectorIN22llama_memory_recurrent8mem_cellENS_9allocatorIS2_EEE16__init_with_sizeB8ne200000IPS2_S7_EEvT_T0_m
0000000000183988 W _ZNSt6__ndk16vectorINS0_IPK21llama_grammar_elementNS_9allocatorIS3_EEEENS4_IS6_EEE12emplace_backIJS6_EEERS6_DpOT_
0000000000183c40 W _ZNSt6__ndk16vectorINS0_IPK21llama_grammar_elementNS_9allocatorIS3_EEEENS4_IS6_EEE21__push_back_slow_pathIRKS6_EEPS6_OT_
0000000000190eec W _ZNSt6__ndk16vectorINS0_IPK21llama_grammar_elementNS_9allocatorIS3_EEEENS4_IS6_EEE24__emplace_back_slow_pathIJRS6_EEEPS6_DpOT_
0000000000273f7c W _ZNSt6__ndk16vectorINS_12basic_stringIcNS_11char_traitsIcEENS_9allocatorIcEEEENS4_IS6_EEE18__assign_with_sizeB8ne200000IPKS6_SB_EEvT_T0_l
000000000018eca0 W _ZNSt6__ndk16vectorINS_12basic_stringIcNS_11char_traitsIcEENS_9allocatorIcEEEENS4_IS6_EEE21__push_back_slow_pathIRKS6_EEPS6_OT_
00000000001d2258 W _ZNSt6__ndk16vectorINS_12basic_stringIcNS_11char_traitsIcEENS_9allocatorIcEEEENS4_IS6_EEE24__emplace_back_slow_pathIJRKS6_EEEPS6_DpOT_
0000000000284b4c W _ZNSt6__ndk16vectorINS_12basic_stringIcNS_11char_traitsIcEENS_9allocatorIcEEEENS4_IS6_EEE24__emplace_back_slow_pathIJRS6_EEEPS6_DpOT_
000000000028d858 W _ZNSt6__ndk16vectorINS_12basic_stringIwNS_11char_traitsIwEENS_9allocatorIwEEEENS4_IS6_EEE21__push_back_slow_pathIRKS6_EEPS6_OT_
0000000000187974 W _ZNSt6__ndk16vectorINS_4pairImPKcEENS_9allocatorIS4_EEE18__assign_with_sizeB8ne200000IPS4_S9_EEvT_T0_l
0000000000291d54 W _ZNSt6__ndk16vectorINS_4pairImPKwEENS_9allocatorIS4_EEE18__assign_with_sizeB8ne200000IPS4_S9_EEvT_T0_l
000000000023a0a4 W _ZNSt6__ndk16vectorINS_4pairINS_10unique_ptrI12ggml_context20ggml_context_deleterEENS0_INS2_I19ggml_backend_buffer27ggml_backend_buffer_deleterEENS_9allocatorIS8_EEEEEENS9_ISC_EEE12emplace_backIJS5_SB_EEERSC_DpOT_
000000000024d014 W _ZNSt6__ndk16vectorINS_4pairINS_11basic_regexIcNS_12regex_traitsIcEEEE9ggml_typeEENS_9allocatorIS7_EEE24__emplace_back_slow_pathIJS5_RKS6_EEEPS7_DpOT_
00000000002425f8 W _ZNSt6__ndk16vectorINS_4pairINS_12basic_stringIcNS_11char_traitsIcEENS_9allocatorIcEEEEP11ggml_tensorEENS5_ISA_EEE24__emplace_back_slow_pathIJPKcRS9_EEEPSA_DpOT_
0000000000242f7c W _ZNSt6__ndk16vectorINS_4pairIP12ggml_contextNS_13unordered_mapIjP19ggml_backend_bufferNS_4hashIjEENS_8equal_toIjEENS_9allocatorINS1_IKjS6_EEEEEEEENSB_ISG_EEE24__emplace_back_slow_pathIJRS3_RSF_EEEPSG_DpOT_
0000000000241f60 W _ZNSt6__ndk16vectorINS_4pairIP19ggml_backend_deviceP24ggml_backend_buffer_typeEENS_9allocatorIS6_EEE18__insert_with_sizeB8ne200000INS_11__wrap_iterIPS6_EESD_EESD_NSB_IPKS6_EET_T0_l
00000000001d577c W _ZNSt6__ndk16vectorINS_6futureINS_4pairIP11ggml_tensorbEEEENS_9allocatorIS6_EEE24__emplace_back_slow_pathIJS6_EEEPS6_DpOT_
0000000000185fd0 W _ZNSt6__ndk16vectorINS_7__stateIcEENS_9allocatorIS2_EEE21__push_back_slow_pathIS2_EEPS2_OT_
000000000028865c W _ZNSt6__ndk16vectorINS_7__stateIwEENS_9allocatorIS2_EEE21__push_back_slow_pathIS2_EEPS2_OT_
000000000018776c W _ZNSt6__ndk16vectorINS_9sub_matchIPKcEENS_9allocatorIS4_EEE18__assign_with_sizeB8ne200000IPS4_S9_EEvT_T0_l
0000000000291b4c W _ZNSt6__ndk16vectorINS_9sub_matchIPKwEENS_9allocatorIS4_EEE18__assign_with_sizeB8ne200000IPS4_S9_EEvT_T0_l
00000000001c0d60 W _ZNSt6__ndk16vectorIP11ggml_tensorNS_9allocatorIS2_EEE18__assign_with_sizeB8ne200000IPS2_S7_EEvT_T0_l
00000000001d1f98 W _ZNSt6__ndk16vectorIP18ggml_backend_eventNS_9allocatorIS2_EEE12emplace_backIJRS2_EEES7_DpOT_
0000000000333360 B _ZNSt6__ndk17codecvtIcc9mbstate_tE2idE
0000000000301dfc T _ZNSt6__ndk17codecvtIcc9mbstate_tED0Ev
000000000030f690 T _ZNSt6__ndk17codecvtIcc9mbstate_tED1Ev
000000000030f690 T _ZNSt6__ndk17codecvtIcc9mbstate_tED2Ev
00000000003333a0 B _ZNSt6__ndk17codecvtIDic9mbstate_tE2idE
0000000000303278 T _ZNSt6__ndk17codecvtIDic9mbstate_tED0Ev
000000000030f690 T _ZNSt6__ndk17codecvtIDic9mbstate_tED1Ev
000000000030f690 T _ZNSt6__ndk17codecvtIDic9mbstate_tED2Ev
00000000003333b0 B _ZNSt6__ndk17codecvtIDiDu9mbstate_tE2idE
0000000000303a38 T _ZNSt6__ndk17codecvtIDiDu9mbstate_tED0Ev
000000000030f690 T _ZNSt6__ndk17codecvtIDiDu9mbstate_tED1Ev
000000000030f690 T _ZNSt6__ndk17codecvtIDiDu9mbstate_tED2Ev
0000000000333380 B _ZNSt6__ndk17codecvtIDsc9mbstate_tE2idE
00000000003028f0 T _ZNSt6__ndk17codecvtIDsc9mbstate_tED0Ev
000000000030f690 T _ZNSt6__ndk17codecvtIDsc9mbstate_tED1Ev
000000000030f690 T _ZNSt6__ndk17codecvtIDsc9mbstate_tED2Ev
0000000000333390 B _ZNSt6__ndk17codecvtIDsDu9mbstate_tE2idE
0000000000303128 T _ZNSt6__ndk17codecvtIDsDu9mbstate_tED0Ev
000000000030f690 T _ZNSt6__ndk17codecvtIDsDu9mbstate_tED1Ev
000000000030f690 T _ZNSt6__ndk17codecvtIDsDu9mbstate_tED2Ev
0000000000333370 B _ZNSt6__ndk17codecvtIwc9mbstate_tE2idE
0000000000301e9c T _ZNSt6__ndk17codecvtIwc9mbstate_tEC1Em
0000000000301f48 T _ZNSt6__ndk17codecvtIwc9mbstate_tEC1EPKcm
0000000000301e9c T _ZNSt6__ndk17codecvtIwc9mbstate_tEC2Em
0000000000301f48 T _ZNSt6__ndk17codecvtIwc9mbstate_tEC2EPKcm
0000000000302030 T _ZNSt6__ndk17codecvtIwc9mbstate_tED0Ev
000000000030eac8 T _ZNSt6__ndk17codecvtIwc9mbstate_tED1Ev
000000000030eac8 T _ZNSt6__ndk17codecvtIwc9mbstate_tED2Ev
0000000000333090 V _ZNSt6__ndk17collateIcE2idE
00000000002ddfb8 W _ZNSt6__ndk17collateIcED0Ev
00000000002ddfb0 W _ZNSt6__ndk17collateIcED1Ev
00000000002ddfb0 W _ZNSt6__ndk17collateIcED2Ev
00000000003330a0 V _ZNSt6__ndk17collateIwE2idE
00000000002de13c W _ZNSt6__ndk17collateIwED0Ev
00000000002de134 W _ZNSt6__ndk17collateIwED1Ev
00000000002de134 W _ZNSt6__ndk17collateIwED2Ev
00000000003330b0 V _ZNSt6__ndk17num_getIcNS_19istreambuf_iteratorIcNS_11char_traitsIcEEEEE2idE
00000000003330c0 V _ZNSt6__ndk17num_getIwNS_19istreambuf_iteratorIwNS_11char_traitsIwEEEEE2idE
00000000003330d0 V _ZNSt6__ndk17num_putIcNS_19ostreambuf_iteratorIcNS_11char_traitsIcEEEEE2idE
00000000003330e0 V _ZNSt6__ndk17num_putIwNS_19ostreambuf_iteratorIwNS_11char_traitsIwEEEEE2idE
0000000000185d5c W _ZNSt6__ndk17__stateIcEC2ERKS1_
0000000000185cbc W _ZNSt6__ndk17__stateIcED2Ev
0000000000288434 W _ZNSt6__ndk17__stateIwEC2ERKS1_
00000000002883e0 W _ZNSt6__ndk17__stateIwED2Ev
000000000010b71c R _ZNSt6__ndk18ios_base10floatfieldE
000000000010b6f8 R _ZNSt6__ndk18ios_base10scientificE
000000000010b714 R _ZNSt6__ndk18ios_base11adjustfieldE
00000000002cfd78 T _ZNSt6__ndk18ios_base15sync_with_stdioEb
00000000002cf26c T _ZNSt6__ndk18ios_base16__call_callbacksENS0_5eventE
00000000002cf5c0 T _ZNSt6__ndk18ios_base17register_callbackEPFvNS0_5eventERS0_iEi
000000000010b73c R _ZNSt6__ndk18ios_base2inE
00000000002cfd20 T _ZNSt6__ndk18ios_base33__set_badbit_and_consider_rethrowEv
00000000002cfd4c T _ZNSt6__ndk18ios_base34__set_failbit_and_consider_rethrowEv
000000000010b730 R _ZNSt6__ndk18ios_base3appE
000000000010b734 R _ZNSt6__ndk18ios_base3ateE
000000000010b6dc R _ZNSt6__ndk18ios_base3decE
000000000010b6e4 R _ZNSt6__ndk18ios_base3hexE
000000000010b6f0 R _ZNSt6__ndk18ios_base3octE
000000000010b740 R _ZNSt6__ndk18ios_base3outE
00000000002cf864 T _ZNSt6__ndk18ios_base4initEPv
000000000010b6ec R _ZNSt6__ndk18ios_base4leftE
00000000002cfb68 T _ZNSt6__ndk18ios_base4moveERS0_
00000000002cfc04 T _ZNSt6__ndk18ios_base4swapERS0_
00000000002cf784 T _ZNSt6__ndk18ios_base5clearEj
000000000010b6e0 R _ZNSt6__ndk18ios_base5fixedE
00000000002cf2d0 T _ZNSt6__ndk18ios_base5imbueERKNS_6localeE
00000000002cf398 T _ZNSt6__ndk18ios_base5iwordEi
00000000002cf4ac T _ZNSt6__ndk18ios_base5pwordEi
000000000010b6f4 R _ZNSt6__ndk18ios_base5rightE
000000000010b744 R _ZNSt6__ndk18ios_base5truncE
000000000010b720 R _ZNSt6__ndk18ios_base6badbitE
000000000010b738 R _ZNSt6__ndk18ios_base6binaryE
000000000010b724 R _ZNSt6__ndk18ios_base6eofbitE
000000000010b708 R _ZNSt6__ndk18ios_base6skipwsE
00000000002cf370 T _ZNSt6__ndk18ios_base6xallocEv
00000000002cf8b0 T _ZNSt6__ndk18ios_base7copyfmtERKS0_
000000000010b728 R _ZNSt6__ndk18ios_base7failbitE
00000000002cf1f4 T _ZNSt6__ndk18ios_base7failureC1EPKcRKNS_10error_codeE
00000000002cf1b4 T _ZNSt6__ndk18ios_base7failureC1ERKNS_12basic_stringIcNS_11char_traitsIcEENS_9allocatorIcEEEERKNS_10error_codeE
00000000002cf1f4 T _ZNSt6__ndk18ios_base7failureC2EPKcRKNS_10error_codeE
00000000002cf1b4 T _ZNSt6__ndk18ios_base7failureC2ERKNS_12basic_stringIcNS_11char_traitsIcEENS_9allocatorIcEEEERKNS_10error_codeE
00000000002cf23c T _ZNSt6__ndk18ios_base7failureD0Ev
00000000002cf234 T _ZNSt6__ndk18ios_base7failureD1Ev
00000000002cf234 T _ZNSt6__ndk18ios_base7failureD2Ev
000000000010b72c R _ZNSt6__ndk18ios_base7goodbitE
000000000010b704 R _ZNSt6__ndk18ios_base7showposE
000000000010b70c R _ZNSt6__ndk18ios_base7unitbufE
000000000010b6e8 R _ZNSt6__ndk18ios_base8internalE
000000000010b6fc R _ZNSt6__ndk18ios_base8showbaseE
000000000010b718 R _ZNSt6__ndk18ios_base9basefieldE
000000000010b6d8 R _ZNSt6__ndk18ios_base9boolalphaE
000000000010b700 R _ZNSt6__ndk18ios_base9showpointE
000000000010b710 R _ZNSt6__ndk18ios_base9uppercaseE
0000000000333068 B _ZNSt6__ndk18ios_base9__xindex_E
00000000002cf754 T _ZNSt6__ndk18ios_baseD0Ev
00000000002cf6a0 T _ZNSt6__ndk18ios_baseD1Ev
00000000002cf6a0 T _ZNSt6__ndk18ios_baseD2Ev
00000000003331b0 V _ZNSt6__ndk18messagesIcE2idE
00000000003331c0 V _ZNSt6__ndk18messagesIwE2idE
00000000003333c0 B _ZNSt6__ndk18numpunctIcE2idE
0000000000305c98 T _ZNSt6__ndk18numpunctIcEC1Em
0000000000305c98 T _ZNSt6__ndk18numpunctIcEC2Em
0000000000305d4c T _ZNSt6__ndk18numpunctIcED0Ev
0000000000305cf4 T _ZNSt6__ndk18numpunctIcED1Ev
0000000000305cf4 T _ZNSt6__ndk18numpunctIcED2Ev
00000000003333d0 B _ZNSt6__ndk18numpunctIwE2idE
0000000000305cc4 T _ZNSt6__ndk18numpunctIwEC1Em
0000000000305cc4 T _ZNSt6__ndk18numpunctIwEC2Em
0000000000305dd4 T _ZNSt6__ndk18numpunctIwED0Ev
0000000000305d7c T _ZNSt6__ndk18numpunctIwED1Ev
0000000000305d7c T _ZNSt6__ndk18numpunctIwED2Ev
00000000003330f0 V _ZNSt6__ndk18time_getIcNS_19istreambuf_iteratorIcNS_11char_traitsIcEEEEE2idE
0000000000333100 V _ZNSt6__ndk18time_getIwNS_19istreambuf_iteratorIwNS_11char_traitsIwEEEEE2idE
0000000000333110 V _ZNSt6__ndk18time_putIcNS_19ostreambuf_iteratorIcNS_11char_traitsIcEEEEE2idE
0000000000333120 V _ZNSt6__ndk18time_putIwNS_19ostreambuf_iteratorIwNS_11char_traitsIwEEEEE2idE
00000000001b3bc8 W _ZNSt6__ndk19allocatorI14llama_kv_cellsE9constructB8ne200000IS1_JS1_EEEvPT_DpOT0_
00000000002d0af0 W _ZNSt6__ndk19basic_iosIcNS_11char_traitsIcEEE7copyfmtERKS3_
00000000002d0ac0 W _ZNSt6__ndk19basic_iosIcNS_11char_traitsIcEEED0Ev
00000000002d0ab8 W _ZNSt6__ndk19basic_iosIcNS_11char_traitsIcEEED1Ev
00000000002d0ab8 W _ZNSt6__ndk19basic_iosIcNS_11char_traitsIcEEED2Ev
00000000002d5e7c W _ZNSt6__ndk19basic_iosIwNS_11char_traitsIwEEE7copyfmtERKS3_
00000000002d5e4c W _ZNSt6__ndk19basic_iosIwNS_11char_traitsIwEEED0Ev
00000000002d5e44 W _ZNSt6__ndk19basic_iosIwNS_11char_traitsIwEEED1Ev
00000000002d5e44 W _ZNSt6__ndk19basic_iosIwNS_11char_traitsIwEEED2Ev
0000000000333170 V _ZNSt6__ndk19money_getIcNS_19istreambuf_iteratorIcNS_11char_traitsIcEEEEE2idE
00000000002f1468 W _ZNSt6__ndk19money_getIcNS_19istreambuf_iteratorIcNS_11char_traitsIcEEEEE8__do_getERS4_S4_bRKNS_6localeEjRjRbRKNS_5ctypeIcEERNS_10unique_ptrIcPFvPvEEERPcSM_
0000000000333180 V _ZNSt6__ndk19money_getIwNS_19istreambuf_iteratorIwNS_11char_traitsIwEEEEE2idE
00000000002f3468 W _ZNSt6__ndk19money_getIwNS_19istreambuf_iteratorIwNS_11char_traitsIwEEEEE8__do_getERS4_S4_bRKNS_6localeEjRjRbRKNS_5ctypeIwEERNS_10unique_ptrIwPFvPvEEERPwSM_
0000000000333190 V _ZNSt6__ndk19money_putIcNS_19ostreambuf_iteratorIcNS_11char_traitsIcEEEEE2idE
00000000003331a0 V _ZNSt6__ndk19money_putIwNS_19ostreambuf_iteratorIwNS_11char_traitsIwEEEEE2idE
00000000002e286c W _ZNSt6__ndk19__num_getIcE17__stage2_int_loopEciPcRS2_RjcRKNS_12basic_stringIcNS_11char_traitsIcEENS_9allocatorIcEEEEPjRSD_S2_
00000000002e7668 W _ZNSt6__ndk19__num_getIcE17__stage2_int_prepERNS_8ios_baseEPcRc
00000000002e73e0 W _ZNSt6__ndk19__num_getIcE19__stage2_float_loopEcRbRcPcRS4_ccRKNS_12basic_stringIcNS_11char_traitsIcEENS_9allocatorIcEEEEPjRSE_RjS4_
00000000002e7248 W _ZNSt6__ndk19__num_getIcE19__stage2_float_prepERNS_8ios_baseEPcRcS5_
00000000002e708c W _ZNSt6__ndk19__num_getIwE17__stage2_int_loopEwiPcRS2_RjwRKNS_12basic_stringIcNS_11char_traitsIcEENS_9allocatorIcEEEEPjRSD_Pw
00000000002e7bf4 W _ZNSt6__ndk19__num_getIwE17__stage2_int_prepERNS_8ios_baseEPwRw
00000000002e7980 W _ZNSt6__ndk19__num_getIwE19__stage2_float_loopEwRbRcPcRS4_wwRKNS_12basic_stringIcNS_11char_traitsIcEENS_9allocatorIcEEEEPjRSE_RjPw
00000000002e77e8 W _ZNSt6__ndk19__num_getIwE19__stage2_float_prepERNS_8ios_baseEPwRwS5_
00000000002eacec W _ZNSt6__ndk19__num_putIcE21__widen_and_group_intEPcS2_S2_S2_RS2_S3_RKNS_6localeE
00000000002eb398 W _ZNSt6__ndk19__num_putIcE23__widen_and_group_floatEPcS2_S2_S2_RS2_S3_RKNS_6localeE
00000000002ebb00 W _ZNSt6__ndk19__num_putIwE21__widen_and_group_intEPcS2_S2_PwRS3_S4_RKNS_6localeE
00000000002ec158 W _ZNSt6__ndk19__num_putIwE23__widen_and_group_floatEPcS2_S2_PwRS3_S4_RKNS_6localeE
00000000002d0a80 T _ZSt17__throw_bad_allocv
000000000010b81c R _ZSt7nothrow
0000000000327140 V _ZTCNSt6__ndk114basic_ifstreamIcNS_11char_traitsIcEEEE0_NS_13basic_istreamIcS2_EE
0000000000326ba0 V _ZTCNSt6__ndk114basic_iostreamIcNS_11char_traitsIcEEEE0_NS_13basic_istreamIcS2_EE
0000000000326bf0 V _ZTCNSt6__ndk114basic_iostreamIcNS_11char_traitsIcEEEE16_NS_13basic_ostreamIcS2_EE
0000000000327218 V _ZTCNSt6__ndk114basic_ofstreamIcNS_11char_traitsIcEEEE0_NS_13basic_ostreamIcS2_EE
0000000000326e68 V _ZTCNSt6__ndk118basic_stringstreamIcNS_11char_traitsIcEENS_9allocatorIcEEEE0_NS_13basic_istreamIcS2_EE
0000000000326df0 V _ZTCNSt6__ndk118basic_stringstreamIcNS_11char_traitsIcEENS_9allocatorIcEEEE0_NS_14basic_iostreamIcS2_EE
0000000000326eb8 V _ZTCNSt6__ndk118basic_stringstreamIcNS_11char_traitsIcEENS_9allocatorIcEEEE16_NS_13basic_ostreamIcS2_EE
0000000000327068 V _ZTCNSt6__ndk119basic_istringstreamIcNS_11char_traitsIcEENS_9allocatorIcEEEE0_NS_13basic_istreamIcS2_EE
0000000000326f90 V _ZTCNSt6__ndk119basic_ostringstreamIcNS_11char_traitsIcEENS_9allocatorIcEEEE0_NS_13basic_ostreamIcS2_EE
00000000002d5d68 W _ZThn16_NSt6__ndk114basic_iostreamIcNS_11char_traitsIcEEED0Ev
00000000002d5d10 W _ZThn16_NSt6__ndk114basic_iostreamIcNS_11char_traitsIcEEED1Ev
00000000003263d8 V _ZTI12llm_build_t5ILb0EE
00000000003263f0 V _ZTI12llm_build_t5ILb1EE
0000000000325908 V _ZTI13llm_build_mpt
0000000000325de8 V _ZTI13llm_build_plm
0000000000323f58 V _ZTI13llm_tokenizer
0000000000323060 D _ZTI14llama_kv_cache
0000000000321f38 V _ZTI14llama_memory_i
00000000003249c0 V _ZTI14llm_build_bert
0000000000324bb8 V _ZTI14llm_build_dbrx
0000000000324bf0 V _ZTI14llm_build_deci
0000000000325190 V _ZTI14llm_build_glm4
00000000003251c8 V _ZTI14llm_build_gpt2
00000000003252a8 V _ZTI14llm_build_grok
00000000003253c0 V _ZTI14llm_build_jais
00000000003254d8 V _ZTI14llm_build_lfm2ILb0EE
00000000003254c0 V _ZTI14llm_build_lfm2ILb1EE
00000000003259e8 V _ZTI14llm_build_olmo
0000000000325be0 V _ZTI14llm_build_phi2
0000000000325c38 V _ZTI14llm_build_phi3ILb0EE
0000000000325c50 V _ZTI14llm_build_phi3ILb1EE
0000000000325e20 V _ZTI14llm_build_qwen
00000000003260c0 V _ZTI14llm_build_rnd1
0000000000322030 V _ZTI15llama_io_read_i
00000000003247e8 V _ZTI15llm_build_afmoe
0000000000324858 V _ZTI15llm_build_arcee
0000000000324a30 V _ZTI15llm_build_bloom
0000000000324d50 V _ZTI15llm_build_dots1
0000000000324d88 V _ZTI15llm_build_dream
0000000000325008 V _ZTI15llm_build_gemma
00000000003253f8 V _ZTI15llm_build_jais2
0000000000325430 V _ZTI15llm_build_jamba
0000000000325548 V _ZTI15llm_build_llada
00000000003255a0 V _ZTI15llm_build_llamaILb0EE
00000000003255b8 V _ZTI15llm_build_llamaILb1EE
00000000003257b8 V _ZTI15llm_build_mamba
0000000000325a40 V _ZTI15llm_build_olmo2ILb0EE
0000000000325a58 V _ZTI15llm_build_olmo2ILb1EE
0000000000325a90 V _ZTI15llm_build_olmoe
0000000000325b38 V _ZTI15llm_build_orion
0000000000325c88 V _ZTI15llm_build_plamo
0000000000325e58 V _ZTI15llm_build_qwen2
0000000000325f00 V _ZTI15llm_build_qwen3
0000000000326130 V _ZTI15llm_build_rwkv6
00000000003261c0 V _ZTI15llm_build_rwkv7
0000000000321f80 V _ZTI16llama_io_write_i
0000000000324890 V _ZTI16llm_build_arctic
00000000003248e0 V _ZTI16llm_build_arwkv7
00000000003249f8 V _ZTI16llm_build_bitnet
0000000000324b10 V _ZTI16llm_build_cogvlm
0000000000324ea0 V _ZTI16llm_build_exaone
0000000000324f98 V _ZTI16llm_build_falcon
0000000000325098 V _ZTI16llm_build_gemma3ILb0EE
00000000003250b0 V _ZTI16llm_build_gemma3ILb1EE
0000000000325610 V _ZTI16llm_build_llama4ILb0EE
0000000000325628 V _ZTI16llm_build_llama4ILb1EE
0000000000325cc0 V _ZTI16llm_build_plamo2
0000000000325d98 V _ZTI16llm_build_plamo3ILb0EE
0000000000325db0 V _ZTI16llm_build_plamo3ILb1EE
0000000000325f38 V _ZTI16llm_build_qwen35
0000000000326088 V _ZTI16llm_build_refact
0000000000326498 V _ZTI16llm_build_xverse
0000000000322e70 V _ZTI16llm_graph_result
0000000000324820 V _ZTI17llm_build_apertus
0000000000324aa0 V _ZTI17llm_build_chatglm
0000000000324ef8 V _ZTI17llm_build_exaone4ILb0EE
0000000000324f10 V _ZTI17llm_build_exaone4ILb1EE
0000000000325200 V _ZTI17llm_build_gptneox
0000000000325270 V _ZTI17llm_build_granite
0000000000325b00 V _ZTI17llm_build_openelm
0000000000325ec8 V _ZTI17llm_build_qwen2vl
0000000000326050 V _ZTI17llm_build_qwen3vl
00000000003262a0 V _ZTI17llm_build_smollm3
0000000000322e80 V _ZTI17llm_graph_context
0000000000322938 V _ZTI17llm_graph_input_i
0000000000323fa0 V _ZTI17llm_tokenizer_bpe
0000000000323f68 V _ZTI17llm_tokenizer_spm
0000000000324010 V _ZTI17llm_tokenizer_ugm
0000000000323fd8 V _ZTI17llm_tokenizer_wpm
0000000000322090 V _ZTI18llama_io_read_file
0000000000324918 V _ZTI18llm_build_baichuan
0000000000324c28 V _ZTI18llm_build_deepseek
0000000000324df8 V _ZTI18llm_build_ernie4_5
0000000000324e30 V _ZTI18llm_build_eurobert
0000000000325158 V _ZTI18llm_build_glm4_moe
00000000003252e0 V _ZTI18llm_build_grovemoe
0000000000325828 V _ZTI18llm_build_minicpm3
0000000000325898 V _ZTI18llm_build_mistral3
0000000000325978 V _ZTI18llm_build_nemotron
00000000003259b0 V _ZTI18llm_build_neo_bert
0000000000325e90 V _ZTI18llm_build_qwen2moe
0000000000325fa8 V _ZTI18llm_build_qwen3moe
00000000003261f8 V _ZTI18llm_build_seed_oss
00000000003262d8 V _ZTI18llm_build_stablelm
0000000000322b88 D _ZTI18llm_graph_input_rs
0000000000324048 V _ZTI18llm_tokenizer_rwkv
00000000003220e0 V _ZTI19llama_io_write_file
00000000003231d8 D _ZTI19llama_kv_cache_iswa
0000000000323408 D _ZTI19llama_memory_hybrid
0000000000324a68 V _ZTI19llm_build_chameleon
0000000000324ad8 V _ZTI19llm_build_codeshell
0000000000324b80 V _ZTI19llm_build_command_r
0000000000324c60 V _ZTI19llm_build_deepseek2
0000000000324f60 V _ZTI19llm_build_falcon_h1
0000000000325388 V _ZTI19llm_build_internlm2
0000000000325510 V _ZTI19llm_build_llada_moe
0000000000325660 V _ZTI19llm_build_maincoder
0000000000325b70 V _ZTI19llm_build_paddleocr
0000000000325f70 V _ZTI19llm_build_qwen35moe
0000000000325fe0 V _ZTI19llm_build_qwen3next
0000000000326310 V _ZTI19llm_build_starcoder
0000000000326428 V _ZTI19llm_build_t5encoder
0000000000322b40 D _ZTI19llm_graph_input_cls
0000000000322990 D _ZTI19llm_graph_input_pos
0000000000322040 V _ZTI20llama_io_read_buffer
0000000000321f90 V _ZTI20llama_io_write_dummy
0000000000324950 V _ZTI20llm_build_bailingmoe
0000000000324e68 V _ZTI20llm_build_exaone_moe
0000000000324f48 V _ZTI20llm_build_mamba_base
00000000003257f0 V _ZTI20llm_build_mimo2_iswa
0000000000325860 V _ZTI20llm_build_minimax_m2
0000000000325940 V _ZTI20llm_build_nemotron_h
0000000000326018 V _ZTI20llm_build_qwen3vlmoe
00000000003260f8 V _ZTI20llm_build_rwkv6_base
0000000000326168 V _ZTI20llm_build_rwkv6qwen2
00000000003248c8 V _ZTI20llm_build_rwkv7_base
0000000000326348 V _ZTI20llm_build_starcoder2
0000000000322948 D _ZTI20llm_graph_input_embd
0000000000322af8 D _ZTI20llm_graph_input_mean
0000000000324080 V _ZTI20llm_tokenizer_plamo2
0000000000321fe0 V _ZTI21llama_io_write_buffer
0000000000324988 V _ZTI21llm_build_bailingmoe2
0000000000325040 V _ZTI21llm_build_gemma2_iswa
0000000000325120 V _ZTI21llm_build_gemma4_iswa
0000000000325350 V _ZTI21llm_build_hunyuan_moe
0000000000325468 V _ZTI21llm_build_kimi_linear
00000000003258d0 V _ZTI21llm_build_modern_bert
0000000000326380 V _ZTI21llm_build_step35_iswa
00000000003230d0 D _ZTI22llama_kv_cache_context
00000000003230c0 V _ZTI22llama_memory_context_i
0000000000323848 D _ZTI22llama_memory_recurrent
0000000000324b48 V _ZTI22llm_build_cohere2_iswa
0000000000324d18 V _ZTI22llm_build_dflash_draft
0000000000324dc0 V _ZTI22llm_build_ernie4_5_moe
00000000003250e8 V _ZTI22llm_build_gemma3n_iswa
0000000000326250 V _ZTI22llm_build_smallthinkerILb0EE
0000000000326268 V _ZTI22llm_build_smallthinkerILb1EE
0000000000322ca8 D _ZTI22llm_graph_input_attn_k
0000000000324d00 D _ZTI22llm_graph_input_dflash
0000000000325318 V _ZTI23llm_build_hunyuan_dense
0000000000322c60 D _ZTI23llm_graph_input_attn_kv
00000000003230a8 D _ZTI23llm_graph_input_k_shift
0000000000322ab0 D _ZTI23llm_graph_input_out_ids
0000000000323628 D _ZTI24llama_memory_hybrid_iswa
0000000000324c98 V _ZTI24llm_build_delta_net_base
0000000000325238 V _ZTI24llm_build_granite_hybrid
0000000000325ba8 V _ZTI24llm_build_pangu_embedded
0000000000322e58 D _ZTI24llm_graph_input_sampling
0000000000324fd0 V _ZTI25llm_build_gemma_embedding
0000000000325ac8 V _ZTI25llm_build_openai_moe_iswa
00000000003229d8 D _ZTI25llm_graph_input_attn_temp
0000000000326460 V _ZTI26llm_build_wavtokenizer_dec
0000000000322d38 D _ZTI26llm_graph_input_attn_cross
0000000000322bd0 D _ZTI26llm_graph_input_cross_embd
0000000000322d80 D _ZTI26llm_graph_input_mem_hybrid
0000000000322a20 D _ZTI26llm_graph_input_pos_bucket
00000000003231f0 D _ZTI27llama_kv_cache_iswa_context
0000000000323420 D _ZTI27llama_memory_hybrid_context
0000000000322cf0 D _ZTI28llm_graph_input_attn_kv_iswa
0000000000322dc8 D _ZTI28llm_graph_input_mem_hybrid_k
0000000000322c18 D _ZTI29llm_graph_input_attn_no_cache
0000000000322a68 D _ZTI29llm_graph_input_pos_bucket_kv
0000000000323860 D _ZTI30llama_memory_recurrent_context
0000000000322e10 D _ZTI31llm_graph_input_mem_hybrid_iswa
0000000000323640 D _ZTI32llama_memory_hybrid_iswa_context
0000000000322f40 V _ZTIFP11ggml_tensorP12ggml_contextS0_S0_E
0000000000322628 V _ZTINSt6__ndk110__back_refIcEE
0000000000324528 V _ZTINSt6__ndk110__back_refIwEE
0000000000327700 V _ZTINSt6__ndk110ctype_baseE
0000000000323260 V _ZTINSt6__ndk110__function6__baseIFbiEEE
0000000000323f00 V _ZTINSt6__ndk110__function6__baseIFiiEEE
00000000003239f0 V _ZTINSt6__ndk110__function6__baseIFjjEEE
0000000000322f18 V _ZTINSt6__ndk110__function6__baseIFP11ggml_tensorP12ggml_contextS3_S3_EEE
00000000003221a0 V _ZTINSt6__ndk110__function6__baseIFvRK12llama_ubatchP11ggml_tensorPKciEEE
0000000000322f28 V _ZTINSt6__ndk110__function6__funcIPFP11ggml_tensorP12ggml_contextS3_S3_ENS_9allocatorIS7_EES6_EE
0000000000328d98 V _ZTINSt6__ndk110money_baseE
0000000000328da8 V _ZTINSt6__ndk110moneypunctIcLb0EEE
0000000000328e50 V _ZTINSt6__ndk110moneypunctIcLb1EEE
0000000000328ef8 V _ZTINSt6__ndk110moneypunctIwLb0EEE
0000000000328fa0 V _ZTINSt6__ndk110moneypunctIwLb1EEE
0000000000328a28 V _ZTINSt6__ndk110__time_getE
0000000000328be8 V _ZTINSt6__ndk110__time_putE
0000000000322820 V _ZTINSt6__ndk111__alternateIcEE
0000000000324720 V _ZTINSt6__ndk111__alternateIwEE
0000000000322218 V _ZTINSt6__ndk111__end_stateIcEE
0000000000324118 V _ZTINSt6__ndk111__end_stateIwEE
0000000000322430 V _ZTINSt6__ndk111__lookaheadIcNS_12regex_traitsIcEEEE
0000000000324330 V _ZTINSt6__ndk111__lookaheadIwNS_12regex_traitsIwEEEE
00000000003228b0 V _ZTINSt6__ndk111__match_anyIcEE
00000000003247b0 V _ZTINSt6__ndk111__match_anyIwEE
0000000000329230 V _ZTINSt6__ndk111__money_getIcEE
00000000003292b0 V _ZTINSt6__ndk111__money_getIwEE
0000000000329330 V _ZTINSt6__ndk111__money_putIcEE
00000000003293b0 V _ZTINSt6__ndk111__money_putIwEE
000000000032a1a0 D _ZTINSt6__ndk111regex_errorE
00000000003277a8 V _ZTINSt6__ndk112codecvt_baseE
00000000003282b8 D _ZTINSt6__ndk112ctype_bynameIcEE
00000000003282d0 D _ZTINSt6__ndk112ctype_bynameIwEE
0000000000322550 V _ZTINSt6__ndk112__match_charIcEE
0000000000324450 V _ZTINSt6__ndk112__match_charIwEE
0000000000326678 D _ZTINSt6__ndk112system_errorE
0000000000327280 V _ZTINSt6__ndk113basic_filebufIcNS_11char_traitsIcEEEE
0000000000326b50 V _ZTINSt6__ndk113basic_istreamIcNS_11char_traitsIcEEEE
0000000000326cc0 V _ZTINSt6__ndk113basic_istreamIwNS_11char_traitsIwEEEE
0000000000326b78 V _ZTINSt6__ndk113basic_ostreamIcNS_11char_traitsIcEEEE
0000000000326ce8 V _ZTINSt6__ndk113basic_ostreamIwNS_11char_traitsIwEEEE
00000000003222e0 V _ZTINSt6__ndk113__empty_stateIcEE
00000000003241e0 V _ZTINSt6__ndk113__empty_stateIwEE
0000000000329438 V _ZTINSt6__ndk113messages_baseE
0000000000327190 V _ZTINSt6__ndk114basic_ifstreamIcNS_11char_traitsIcEEEE
0000000000326c40 V _ZTINSt6__ndk114basic_iostreamIcNS_11char_traitsIcEEEE
0000000000327268 V _ZTINSt6__ndk114basic_ofstreamIcNS_11char_traitsIcEEEE
0000000000329608 V _ZTINSt6__ndk114codecvt_bynameIcc9mbstate_tEE
0000000000329770 V _ZTINSt6__ndk114codecvt_bynameIDic9mbstate_tEE
0000000000329860 V _ZTINSt6__ndk114codecvt_bynameIDiDu9mbstate_tEE
00000000003296f8 V _ZTINSt6__ndk114codecvt_bynameIDsc9mbstate_tEE
00000000003297e8 V _ZTINSt6__ndk114codecvt_bynameIDsDu9mbstate_tEE
0000000000329680 V _ZTINSt6__ndk114codecvt_bynameIwc9mbstate_tEE
0000000000327db8 D _ZTINSt6__ndk114__codecvt_utf8IDiEE
0000000000327d40 D _ZTINSt6__ndk114__codecvt_utf8IDsEE
0000000000327cc8 D _ZTINSt6__ndk114__codecvt_utf8IwEE
0000000000328238 D _ZTINSt6__ndk114collate_bynameIcEE
0000000000328268 D _ZTINSt6__ndk114collate_bynameIwEE
0000000000328448 V _ZTINSt6__ndk114__num_get_baseE
0000000000328600 V _ZTINSt6__ndk114__num_put_baseE
0000000000326b40 V _ZTINSt6__ndk115basic_streambufIcNS_11char_traitsIcEEEE
0000000000326cb0 V _ZTINSt6__ndk115basic_streambufIwNS_11char_traitsIwEEEE
0000000000326d10 V _ZTINSt6__ndk115basic_stringbufIcNS_11char_traitsIcEENS_9allocatorIcEEEE
0000000000328010 D _ZTINSt6__ndk115__codecvt_utf16IDiLb0EEE
0000000000328088 D _ZTINSt6__ndk115__codecvt_utf16IDiLb1EEE
0000000000327f20 D _ZTINSt6__ndk115__codecvt_utf16IDsLb0EEE
0000000000327f98 D _ZTINSt6__ndk115__codecvt_utf16IDsLb1EEE
0000000000327e30 D _ZTINSt6__ndk115__codecvt_utf16IwLb0EEE
0000000000327ea8 D _ZTINSt6__ndk115__codecvt_utf16IwLb1EEE
00000000003222b0 V _ZTINSt6__ndk115__has_one_stateIcEE
00000000003241b0 V _ZTINSt6__ndk115__has_one_stateIwEE
0000000000329538 V _ZTINSt6__ndk115messages_bynameIcEE
0000000000329590 V _ZTINSt6__ndk115messages_bynameIwEE
0000000000328318 D _ZTINSt6__ndk115numpunct_bynameIcEE
0000000000328330 D _ZTINSt6__ndk115numpunct_bynameIwEE
0000000000328a50 V _ZTINSt6__ndk115time_get_bynameIcNS_19istreambuf_iteratorIcNS_11char_traitsIcEEEEEE
0000000000328b80 V _ZTINSt6__ndk115time_get_bynameIwNS_19istreambuf_iteratorIwNS_11char_traitsIwEEEEEE
0000000000328cc8 V _ZTINSt6__ndk115time_put_bynameIcNS_19ostreambuf_iteratorIcNS_11char_traitsIcEEEEEE
0000000000328d10 V _ZTINSt6__ndk115time_put_bynameIwNS_19ostreambuf_iteratorIwNS_11char_traitsIwEEEEEE
00000000003223e8 V _ZTINSt6__ndk115__word_boundaryIcNS_12regex_traitsIcEEEE
00000000003242e8 V _ZTINSt6__ndk115__word_boundaryIwNS_12regex_traitsIwEEEE
0000000000322598 V _ZTINSt6__ndk116__back_ref_icaseIcNS_12regex_traitsIcEEEE
0000000000324498 V _ZTINSt6__ndk116__back_ref_icaseIwNS_12regex_traitsIwEEEE
0000000000327ab0 D _ZTINSt6__ndk116__narrow_to_utf8ILm16EEE
0000000000327b28 D _ZTINSt6__ndk116__narrow_to_utf8ILm32EEE
00000000003222c8 V _ZTINSt6__ndk116__owns_one_stateIcEE
00000000003241c8 V _ZTINSt6__ndk116__owns_one_stateIwEE
00000000003264d8 D _ZTINSt6__ndk117bad_function_callE
0000000000329048 V _ZTINSt6__ndk117moneypunct_bynameIcLb0EEE
00000000003290d0 V _ZTINSt6__ndk117moneypunct_bynameIcLb1EEE
0000000000329158 V _ZTINSt6__ndk117moneypunct_bynameIwLb0EEE
00000000003291e0 V _ZTINSt6__ndk117moneypunct_bynameIwLb1EEE
0000000000322748 V _ZTINSt6__ndk117__owns_two_statesIcEE
0000000000324648 V _ZTINSt6__ndk117__owns_two_statesIwEE
00000000003227d8 V _ZTINSt6__ndk117__repeat_one_loopIcEE
00000000003246d8 V _ZTINSt6__ndk117__repeat_one_loopIwEE
0000000000327ba0 D _ZTINSt6__ndk117__widen_from_utf8ILm16EEE
0000000000327c18 D _ZTINSt6__ndk117__widen_from_utf8ILm32EEE
00000000003225e0 V _ZTINSt6__ndk118__back_ref_collateIcNS_12regex_traitsIcEEEE
00000000003244e0 V _ZTINSt6__ndk118__back_ref_collateIwNS_12regex_traitsIwEEEE
0000000000326f08 V _ZTINSt6__ndk118basic_stringstreamIcNS_11char_traitsIcEENS_9allocatorIcEEEE
00000000003224c0 V _ZTINSt6__ndk118__match_char_icaseIcNS_12regex_traitsIcEEEE
00000000003243c0 V _ZTINSt6__ndk118__match_char_icaseIwNS_12regex_traitsIwEEEE
0000000000328a38 V _ZTINSt6__ndk118__time_get_storageIcEE
0000000000328b68 V _ZTINSt6__ndk118__time_get_storageIwEE
00000000003270b8 V _ZTINSt6__ndk119basic_istringstreamIcNS_11char_traitsIcEENS_9allocatorIcEEEE
0000000000326fe0 V _ZTINSt6__ndk119basic_ostringstreamIcNS_11char_traitsIcEENS_9allocatorIcEEEE
0000000000322670 V _ZTINSt6__ndk120__bracket_expressionIcNS_12regex_traitsIcEEEE
0000000000324570 V _ZTINSt6__ndk120__bracket_expressionIwNS_12regex_traitsIwEEEE
0000000000328178 D _ZTINSt6__ndk120__codecvt_utf8_utf16IDiEE
00000000003281f0 D _ZTINSt6__ndk120__codecvt_utf8_utf16IDsEE
0000000000328100 D _ZTINSt6__ndk120__codecvt_utf8_utf16IwEE
0000000000322358 V _ZTINSt6__ndk120__l_anchor_multilineIcEE
0000000000324258 V _ZTINSt6__ndk120__l_anchor_multilineIwEE
0000000000322508 V _ZTINSt6__ndk120__match_char_collateIcNS_12regex_traitsIcEEEE
0000000000324408 V _ZTINSt6__ndk120__match_char_collateIwNS_12regex_traitsIwEEEE
00000000003223a0 V _ZTINSt6__ndk120__r_anchor_multilineIcEE
00000000003242a0 V _ZTINSt6__ndk120__r_anchor_multilineIwEE
0000000000321f20 V _ZTINSt6__ndk120__shared_ptr_emplaceIN12llama_ubatch6data_tENS_9allocatorIS2_EEEE
0000000000322130 V _ZTINSt6__ndk120__shared_ptr_pointerIP18llama_adapter_cvecNS_14default_deleteIS1_EENS_9allocatorIS1_EEEE
0000000000322268 V _ZTINSt6__ndk120__shared_ptr_pointerIPNS_13__empty_stateIcEENS_10shared_ptrIS2_E27__shared_ptr_default_deleteIS2_S2_EENS_9allocatorIS2_EEEE
0000000000324168 V _ZTINSt6__ndk120__shared_ptr_pointerIPNS_13__empty_stateIwEENS_10shared_ptrIS2_E27__shared_ptr_default_deleteIS2_S2_EENS_9allocatorIS2_EEEE
00000000003287f0 V _ZTINSt6__ndk120__time_get_c_storageIcEE
00000000003288f0 V _ZTINSt6__ndk120__time_get_c_storageIwEE
0000000000322868 V _ZTINSt6__ndk121__empty_non_own_stateIcEE
0000000000324768 V _ZTINSt6__ndk121__empty_non_own_stateIwEE
0000000000322478 V _ZTINSt6__ndk123__match_any_but_newlineIcEE
0000000000324378 V _ZTINSt6__ndk123__match_any_but_newlineIwEE
0000000000322700 V _ZTINSt6__ndk126__end_marked_subexpressionIcEE
0000000000324600 V _ZTINSt6__ndk126__end_marked_subexpressionIwEE
00000000003226b8 V _ZTINSt6__ndk128__begin_marked_subexpressionIcEE
00000000003245b8 V _ZTINSt6__ndk128__begin_marked_subexpressionIwEE
0000000000328280 D _ZTINSt6__ndk15ctypeIcEE
0000000000327710 D _ZTINSt6__ndk15ctypeIwEE
0000000000327660 D _ZTINSt6__ndk16locale5facetE
0000000000322760 V _ZTINSt6__ndk16__loopIcEE
0000000000324660 V _ZTINSt6__ndk16__loopIwEE
0000000000322208 V _ZTINSt6__ndk16__nodeIcEE
0000000000324108 V _ZTINSt6__ndk16__nodeIwEE
00000000003277b8 D _ZTINSt6__ndk17codecvtIcc9mbstate_tEE
0000000000327980 D _ZTINSt6__ndk17codecvtIDic9mbstate_tEE
0000000000327a18 D _ZTINSt6__ndk17codecvtIDiDu9mbstate_tEE
0000000000327850 D _ZTINSt6__ndk17codecvtIDsc9mbstate_tEE
00000000003278e8 D _ZTINSt6__ndk17codecvtIDsDu9mbstate_tEE
0000000000327c90 D _ZTINSt6__ndk17codecvtIwc9mbstate_tEE
0000000000328220 V _ZTINSt6__ndk17collateIcEE
0000000000328250 V _ZTINSt6__ndk17collateIwEE
0000000000328480 V _ZTINSt6__ndk17num_getIcNS_19istreambuf_iteratorIcNS_11char_traitsIcEEEEEE
0000000000328560 V _ZTINSt6__ndk17num_getIwNS_19istreambuf_iteratorIwNS_11char_traitsIwEEEEEE
0000000000328638 V _ZTINSt6__ndk17num_putIcNS_19ostreambuf_iteratorIcNS_11char_traitsIcEEEEEE
0000000000328700 V _ZTINSt6__ndk17num_putIwNS_19ostreambuf_iteratorIwNS_11char_traitsIwEEEEEE
0000000000326590 D _ZTINSt6__ndk18ios_base7failureE
0000000000326580 D _ZTINSt6__ndk18ios_baseE
0000000000329448 V _ZTINSt6__ndk18messagesIcEE
00000000003294c0 V _ZTINSt6__ndk18messagesIwEE
00000000003282e8 D _ZTINSt6__ndk18numpunctIcEE
0000000000328300 D _ZTINSt6__ndk18numpunctIwEE
0000000000328800 V _ZTINSt6__ndk18time_getIcNS_19istreambuf_iteratorIcNS_11char_traitsIcEEEEEE
0000000000328900 V _ZTINSt6__ndk18time_getIwNS_19istreambuf_iteratorIwNS_11char_traitsIwEEEEEE
0000000000328bf8 V _ZTINSt6__ndk18time_putIcNS_19ostreambuf_iteratorIcNS_11char_traitsIcEEEEEE
0000000000328c60 V _ZTINSt6__ndk18time_putIwNS_19ostreambuf_iteratorIwNS_11char_traitsIwEEEEEE
0000000000326b28 V _ZTINSt6__ndk19basic_iosIcNS_11char_traitsIcEEEE
0000000000326c98 V _ZTINSt6__ndk19basic_iosIwNS_11char_traitsIwEEEE
0000000000329240 V _ZTINSt6__ndk19money_getIcNS_19istreambuf_iteratorIcNS_11char_traitsIcEEEEEE
00000000003292c0 V _ZTINSt6__ndk19money_getIwNS_19istreambuf_iteratorIwNS_11char_traitsIwEEEEEE
0000000000329340 V _ZTINSt6__ndk19money_putIcNS_19ostreambuf_iteratorIcNS_11char_traitsIcEEEEEE
00000000003293c0 V _ZTINSt6__ndk19money_putIwNS_19ostreambuf_iteratorIwNS_11char_traitsIwEEEEEE
0000000000328458 V _ZTINSt6__ndk19__num_getIcEE
0000000000328538 V _ZTINSt6__ndk19__num_getIwEE
0000000000328610 V _ZTINSt6__ndk19__num_putIcEE
00000000003286d8 V _ZTINSt6__ndk19__num_putIwEE
00000000003287e0 V _ZTINSt6__ndk19time_baseE
0000000000322f50 V _ZTIPFP11ggml_tensorP12ggml_contextS0_S0_E
000000000010b4be V _ZTS12llm_build_t5ILb0EE
000000000010b4d3 V _ZTS12llm_build_t5ILb1EE
000000000010afb0 V _ZTS13llm_build_mpt
000000000010b29a V _ZTS13llm_build_plm
00000000000faa04 V _ZTS13llm_tokenizer
00000000000f8d74 R _ZTS14llama_kv_cache
00000000000b8220 V _ZTS14llama_memory_i
000000000010a7b9 V _ZTS14llm_build_bert
000000000010a871 V _ZTS14llm_build_dbrx
000000000010a882 V _ZTS14llm_build_deci
000000000010aace V _ZTS14llm_build_glm4
000000000010aadf V _ZTS14llm_build_gpt2
000000000010ab33 V _ZTS14llm_build_grok
000000000010aba1 V _ZTS14llm_build_jais
000000000010ac05 V _ZTS14llm_build_lfm2ILb0EE
000000000010abee V _ZTS14llm_build_lfm2ILb1EE
000000000010b001 V _ZTS14llm_build_olmo
000000000010b0c7 V _ZTS14llm_build_phi2
000000000010b0d8 V _ZTS14llm_build_phi3ILb0EE
000000000010b0ef V _ZTS14llm_build_phi3ILb1EE
000000000010b2aa V _ZTS14llm_build_qwen
000000000010b39a V _ZTS14llm_build_rnd1
00000000000b8321 V _ZTS15llama_io_read_i
000000000010a700 V _ZTS15llm_build_afmoe
000000000010a726 V _ZTS15llm_build_arcee
000000000010a7dd V _ZTS15llm_build_bloom
000000000010a90b V _ZTS15llm_build_dots1
000000000010a91d V _ZTS15llm_build_dream
000000000010aa2c V _ZTS15llm_build_gemma
000000000010abb2 V _ZTS15llm_build_jais2
000000000010abc4 V _ZTS15llm_build_jamba
000000000010ac32 V _ZTS15llm_build_llada
000000000010ac44 V _ZTS15llm_build_llamaILb0EE
000000000010ac5c V _ZTS15llm_build_llamaILb1EE
000000000010af2e V _ZTS15llm_build_mamba
000000000010b012 V _ZTS15llm_build_olmo2ILb0EE
000000000010b02a V _ZTS15llm_build_olmo2ILb1EE
000000000010b042 V _ZTS15llm_build_olmoe
000000000010b084 V _ZTS15llm_build_orion
000000000010b106 V _ZTS15llm_build_plamo
000000000010b2bb V _ZTS15llm_build_qwen2
000000000010b2f6 V _ZTS15llm_build_qwen3
000000000010b3c2 V _ZTS15llm_build_rwkv6
000000000010b3eb V _ZTS15llm_build_rwkv7
00000000000b82df V _ZTS16llama_io_write_i
000000000010a738 V _ZTS16llm_build_arctic
000000000010a74b V _ZTS16llm_build_arwkv7
000000000010a7ca V _ZTS16llm_build_bitnet
000000000010a82f V _ZTS16llm_build_cogvlm
000000000010a989 V _ZTS16llm_build_exaone
000000000010a9fd V _ZTS16llm_build_falcon
000000000010aa56 V _ZTS16llm_build_gemma3ILb0EE
000000000010aa6f V _ZTS16llm_build_gemma3ILb1EE
000000000010ac74 V _ZTS16llm_build_llama4ILb0EE
000000000010ac8d V _ZTS16llm_build_llama4ILb1EE
000000000010b118 V _ZTS16llm_build_plamo2
000000000010b268 V _ZTS16llm_build_plamo3ILb0EE
000000000010b281 V _ZTS16llm_build_plamo3ILb1EE
000000000010b308 V _ZTS16llm_build_qwen35
000000000010b387 V _ZTS16llm_build_refact
000000000010b51b V _ZTS16llm_build_xverse
00000000000b8c27 V _ZTS16llm_graph_result
000000000010a712 V _ZTS17llm_build_apertus
000000000010a805 V _ZTS17llm_build_chatglm
000000000010a99c V _ZTS17llm_build_exaone4ILb0EE
000000000010a9b6 V _ZTS17llm_build_exaone4ILb1EE
000000000010aaf0 V _ZTS17llm_build_gptneox
000000000010ab1f V _ZTS17llm_build_granite
000000000010b070 V _ZTS17llm_build_openelm
000000000010b2e2 V _ZTS17llm_build_qwen2vl
000000000010b373 V _ZTS17llm_build_qwen3vl
000000000010b450 V _ZTS17llm_build_smollm3
00000000000b8c3a V _ZTS17llm_graph_context
00000000000b8a23 V _ZTS17llm_graph_input_i
00000000000faa14 V _ZTS17llm_tokenizer_bpe
00000000000fa9f0 V _ZTS17llm_tokenizer_spm
00000000000faa3c V _ZTS17llm_tokenizer_ugm
00000000000faa28 V _ZTS17llm_tokenizer_wpm
00000000000b8333 V _ZTS18llama_io_read_file
000000000010a775 V _ZTS18llm_build_baichuan
000000000010a893 V _ZTS18llm_build_deepseek
000000000010a948 V _ZTS18llm_build_ernie4_5
000000000010a95d V _ZTS18llm_build_eurobert
000000000010aab9 V _ZTS18llm_build_glm4_moe
000000000010ab44 V _ZTS18llm_build_grovemoe
000000000010af57 V _ZTS18llm_build_minicpm3
000000000010af83 V _ZTS18llm_build_mistral3
000000000010afd7 V _ZTS18llm_build_nemotron
000000000010afec V _ZTS18llm_build_neo_bert
000000000010b2cd V _ZTS18llm_build_qwen2moe
000000000010b331 V _ZTS18llm_build_qwen3moe
000000000010b3fd V _ZTS18llm_build_seed_oss
000000000010b464 V _ZTS18llm_build_stablelm
00000000000b8aed R _ZTS18llm_graph_input_rs
00000000000faa50 V _ZTS18llm_tokenizer_rwkv
00000000000b8348 V _ZTS19llama_io_write_file
00000000000f8dd1 R _ZTS19llama_kv_cache_iswa
00000000000f903c R _ZTS19llama_memory_hybrid
000000000010a7ef V _ZTS19llm_build_chameleon
000000000010a819 V _ZTS19llm_build_codeshell
000000000010a85b V _ZTS19llm_build_command_r
000000000010a8a8 V _ZTS19llm_build_deepseek2
000000000010a9d0 V _ZTS19llm_build_falcon_h1
000000000010ab8b V _ZTS19llm_build_internlm2
000000000010ac1c V _ZTS19llm_build_llada_moe
000000000010aca6 V _ZTS19llm_build_maincoder
000000000010b096 V _ZTS19llm_build_paddleocr
000000000010b31b V _ZTS19llm_build_qwen35moe
000000000010b346 V _ZTS19llm_build_qwen3next
000000000010b479 V _ZTS19llm_build_starcoder
000000000010b4e8 V _ZTS19llm_build_t5encoder
00000000000b8ad7 R _ZTS19llm_graph_input_cls
00000000000b8a37 R _ZTS19llm_graph_input_pos
00000000000b830a V _ZTS20llama_io_read_buffer
00000000000b82c8 V _ZTS20llama_io_write_dummy
000000000010a78a V _ZTS20llm_build_bailingmoe
000000000010a972 V _ZTS20llm_build_exaone_moe
000000000010a9e6 V _ZTS20llm_build_mamba_base
000000000010af40 V _ZTS20llm_build_mimo2_iswa
000000000010af6c V _ZTS20llm_build_minimax_m2
000000000010afc0 V _ZTS20llm_build_nemotron_h
000000000010b35c V _ZTS20llm_build_qwen3vlmoe
000000000010b3ab V _ZTS20llm_build_rwkv6_base
000000000010b3d4 V _ZTS20llm_build_rwkv6qwen2
000000000010a75e V _ZTS20llm_build_rwkv7_base
000000000010b48f V _ZTS20llm_build_starcoder2
00000000000b8a0c R _ZTS20llm_graph_input_embd
00000000000b8ac0 R _ZTS20llm_graph_input_mean
00000000000faa65 V _ZTS20llm_tokenizer_plamo2
00000000000b82f2 V _ZTS21llama_io_write_buffer
000000000010a7a1 V _ZTS21llm_build_bailingmoe2
000000000010aa3e V _ZTS21llm_build_gemma2_iswa
000000000010aaa1 V _ZTS21llm_build_gemma4_iswa
000000000010ab73 V _ZTS21llm_build_hunyuan_moe
000000000010abd6 V _ZTS21llm_build_kimi_linear
000000000010af98 V _ZTS21llm_build_modern_bert
000000000010b4a6 V _ZTS21llm_build_step35_iswa
00000000000f8d9f R _ZTS22llama_kv_cache_context
00000000000f8db8 V _ZTS22llama_memory_context_i
00000000000f950a R _ZTS22llama_memory_recurrent
000000000010a842 V _ZTS22llm_build_cohere2_iswa
000000000010a8f2 V _ZTS22llm_build_dflash_draft
000000000010a92f V _ZTS22llm_build_ernie4_5_moe
000000000010aa88 V _ZTS22llm_build_gemma3n_iswa
000000000010b412 V _ZTS22llm_build_smallthinkerILb0EE
000000000010b431 V _ZTS22llm_build_smallthinkerILb1EE
00000000000b8b59 R _ZTS22llm_graph_input_attn_k
000000000010a8d9 R _ZTS22llm_graph_input_dflash
000000000010ab59 V _ZTS23llm_build_hunyuan_dense
00000000000b8b3f R _ZTS23llm_graph_input_attn_kv
00000000000f8d85 R _ZTS23llm_graph_input_k_shift
00000000000b8aa6 R _ZTS23llm_graph_input_out_ids
00000000000f92b2 R _ZTS24llama_memory_hybrid_iswa
000000000010a8be V _ZTS24llm_build_delta_net_base
000000000010ab04 V _ZTS24llm_build_granite_hybrid
000000000010b0ac V _ZTS24llm_build_pangu_embedded
00000000000b8c0c R _ZTS24llm_graph_input_sampling
000000000010aa10 V _ZTS25llm_build_gemma_embedding
000000000010b054 V _ZTS25llm_build_openai_moe_iswa
00000000000b8a4d R _ZTS25llm_graph_input_attn_temp
000000000010b4fe V _ZTS26llm_build_wavtokenizer_dec
00000000000b8b91 R _ZTS26llm_graph_input_attn_cross
00000000000b8b02 R _ZTS26llm_graph_input_cross_embd
00000000000b8bae R _ZTS26llm_graph_input_mem_hybrid
00000000000b8a69 R _ZTS26llm_graph_input_pos_bucket
00000000000f8de7 R _ZTS27llama_kv_cache_iswa_context
00000000000f9052 R _ZTS27llama_memory_hybrid_context
00000000000b8b72 R _ZTS28llm_graph_input_attn_kv_iswa
00000000000b8bcb R _ZTS28llm_graph_input_mem_hybrid_k
00000000000b8b1f R _ZTS29llm_graph_input_attn_no_cache
00000000000b8a86 R _ZTS29llm_graph_input_pos_bucket_kv
00000000000f9523 R _ZTS30llama_memory_recurrent_context
00000000000b8bea R _ZTS31llm_graph_input_mem_hybrid_iswa
00000000000f92cd R _ZTS32llama_memory_hybrid_iswa_context
00000000000b8d18 V _ZTSFP11ggml_tensorP12ggml_contextS0_S0_E
00000000000b88a7 V _ZTSNSt6__ndk110__back_refIcEE
000000000010a59b V _ZTSNSt6__ndk110__back_refIwEE
000000000010ca12 V _ZTSNSt6__ndk110ctype_baseE
00000000000f8ea1 V _ZTSNSt6__ndk110__function6__baseIFbiEEE
00000000000fa510 V _ZTSNSt6__ndk110__function6__baseIFiiEEE
00000000000f9e7b V _ZTSNSt6__ndk110__function6__baseIFjjEEE
00000000000b8cab V _ZTSNSt6__ndk110__function6__baseIFP11ggml_tensorP12ggml_contextS3_S3_EEE
00000000000b8475 V _ZTSNSt6__ndk110__function6__baseIFvRK12llama_ubatchP11ggml_tensorPKciEEE
00000000000b8c4e V _ZTSNSt6__ndk110__function6__funcIPFP11ggml_tensorP12ggml_contextS3_S3_ENS_9allocatorIS7_EES6_EE
000000000010d3a9 V _ZTSNSt6__ndk110money_baseE
000000000010d38a V _ZTSNSt6__ndk110moneypunctIcLb0EEE
000000000010d3c1 V _ZTSNSt6__ndk110moneypunctIcLb1EEE
000000000010d3e0 V _ZTSNSt6__ndk110moneypunctIwLb0EEE
000000000010d3ff V _ZTSNSt6__ndk110moneypunctIwLb1EEE
00000000000b861e V _ZTSNSt6__ndk110shared_ptrINS_13__empty_stateIcEEE27__shared_ptr_default_deleteIS2_S2_EE
000000000010a312 V _ZTSNSt6__ndk110shared_ptrINS_13__empty_stateIwEEE27__shared_ptr_default_deleteIS2_S2_EE
000000000010d1b7 V _ZTSNSt6__ndk110__time_getE
000000000010d28a V _ZTSNSt6__ndk110__time_putE
00000000000b89ae V _ZTSNSt6__ndk111__alternateIcEE
000000000010a6a2 V _ZTSNSt6__ndk111__alternateIwEE
00000000000b8564 V _ZTSNSt6__ndk111__end_stateIcEE
000000000010a258 V _ZTSNSt6__ndk111__end_stateIwEE
00000000000b8751 V _ZTSNSt6__ndk111__lookaheadIcNS_12regex_traitsIcEEEE
000000000010a445 V _ZTSNSt6__ndk111__lookaheadIwNS_12regex_traitsIwEEEE
00000000000b89f0 V _ZTSNSt6__ndk111__match_anyIcEE
000000000010a6e4 V _ZTSNSt6__ndk111__match_anyIwEE
000000000010d4ff V _ZTSNSt6__ndk111__money_getIcEE
000000000010d564 V _ZTSNSt6__ndk111__money_getIwEE
000000000010d5c9 V _ZTSNSt6__ndk111__money_putIcEE
000000000010d62e V _ZTSNSt6__ndk111__money_putIwEE
000000000010d818 R _ZTSNSt6__ndk111regex_errorE
000000000010ca4c V _ZTSNSt6__ndk112codecvt_baseE
000000000010cdf2 R _ZTSNSt6__ndk112ctype_bynameIcEE
000000000010ce0f R _ZTSNSt6__ndk112ctype_bynameIwEE
00000000000b881c V _ZTSNSt6__ndk112__match_charIcEE
000000000010a510 V _ZTSNSt6__ndk112__match_charIwEE
000000000010b79c R _ZTSNSt6__ndk112system_errorE
000000000010bbdc V _ZTSNSt6__ndk113basic_filebufIcNS_11char_traitsIcEEEE
000000000010b8fb V _ZTSNSt6__ndk113basic_istreamIcNS_11char_traitsIcEEEE
000000000010b9f3 V _ZTSNSt6__ndk113basic_istreamIwNS_11char_traitsIwEEEE
000000000010b92d V _ZTSNSt6__ndk113basic_ostreamIcNS_11char_traitsIcEEEE
000000000010ba25 V _ZTSNSt6__ndk113basic_ostreamIwNS_11char_traitsIwEEEE
00000000000b8673 V _ZTSNSt6__ndk113__empty_stateIcEE
000000000010a367 V _ZTSNSt6__ndk113__empty_stateIwEE
000000000010d662 V _ZTSNSt6__ndk113messages_baseE
000000000010bb76 V _ZTSNSt6__ndk114basic_ifstreamIcNS_11char_traitsIcEEEE
000000000010b95f V _ZTSNSt6__ndk114basic_iostreamIcNS_11char_traitsIcEEEE
000000000010bba9 V _ZTSNSt6__ndk114basic_ofstreamIcNS_11char_traitsIcEEEE
000000000010d6d5 V _ZTSNSt6__ndk114codecvt_bynameIcc9mbstate_tEE
000000000010d754 V _ZTSNSt6__ndk114codecvt_bynameIDic9mbstate_tEE
000000000010d7ab V _ZTSNSt6__ndk114codecvt_bynameIDiDu9mbstate_tEE
000000000010d729 V _ZTSNSt6__ndk114codecvt_bynameIDsc9mbstate_tEE
000000000010d77f V _ZTSNSt6__ndk114codecvt_bynameIDsDu9mbstate_tEE
000000000010d6ff V _ZTSNSt6__ndk114codecvt_bynameIwc9mbstate_tEE
000000000010cbeb R _ZTSNSt6__ndk114__codecvt_utf8IDiEE
000000000010cbcb R _ZTSNSt6__ndk114__codecvt_utf8IDsEE
000000000010cb8a R _ZTSNSt6__ndk114__codecvt_utf8IwEE
000000000010cd71 R _ZTSNSt6__ndk114collate_bynameIcEE
000000000010cda7 R _ZTSNSt6__ndk114collate_bynameIwEE
00000000000b83c3 V _ZTSNSt6__ndk114default_deleteI18llama_adapter_cvecEE
000000000010cefc V _ZTSNSt6__ndk114__num_get_baseE
000000000010cfd8 V _ZTSNSt6__ndk114__num_put_baseE
000000000010b8c7 V _ZTSNSt6__ndk115basic_streambufIcNS_11char_traitsIcEEEE
000000000010b9bf V _ZTSNSt6__ndk115basic_streambufIwNS_11char_traitsIwEEEE
000000000010ba57 V _ZTSNSt6__ndk115basic_stringbufIcNS_11char_traitsIcEENS_9allocatorIcEEEE
000000000010cc9d R _ZTSNSt6__ndk115__codecvt_utf16IDiLb0EEE
000000000010ccc2 R _ZTSNSt6__ndk115__codecvt_utf16IDiLb1EEE
000000000010cc53 R _ZTSNSt6__ndk115__codecvt_utf16IDsLb0EEE
000000000010cc78 R _ZTSNSt6__ndk115__codecvt_utf16IDsLb1EEE
000000000010cc0b R _ZTSNSt6__ndk115__codecvt_utf16IwLb0EEE
000000000010cc2f R _ZTSNSt6__ndk115__codecvt_utf16IwLb1EEE
00000000000b86b2 V _ZTSNSt6__ndk115__has_one_stateIcEE
000000000010a3a6 V _ZTSNSt6__ndk115__has_one_stateIwEE
000000000010d695 V _ZTSNSt6__ndk115messages_bynameIcEE
000000000010d6b5 V _ZTSNSt6__ndk115messages_bynameIwEE
000000000010ce5c R _ZTSNSt6__ndk115numpunct_bynameIcEE
000000000010ce7c R _ZTSNSt6__ndk115numpunct_bynameIwEE
000000000010d144 V _ZTSNSt6__ndk115time_get_bynameIcNS_19istreambuf_iteratorIcNS_11char_traitsIcEEEEEE
000000000010d1cf V _ZTSNSt6__ndk115time_get_bynameIwNS_19istreambuf_iteratorIwNS_11char_traitsIwEEEEEE
000000000010d2ea V _ZTSNSt6__ndk115time_put_bynameIcNS_19ostreambuf_iteratorIcNS_11char_traitsIcEEEEEE
000000000010d33a V _ZTSNSt6__ndk115time_put_bynameIwNS_19ostreambuf_iteratorIwNS_11char_traitsIwEEEEEE
00000000000b871c V _ZTSNSt6__ndk115__word_boundaryIcNS_12regex_traitsIcEEEE
000000000010a410 V _ZTSNSt6__ndk115__word_boundaryIwNS_12regex_traitsIwEEEE
00000000000b8839 V _ZTSNSt6__ndk116__back_ref_icaseIcNS_12regex_traitsIcEEEE
000000000010a52d V _ZTSNSt6__ndk116__back_ref_icaseIwNS_12regex_traitsIwEEEE
000000000010caf4 R _ZTSNSt6__ndk116__narrow_to_utf8ILm16EEE
000000000010cb19 R _ZTSNSt6__ndk116__narrow_to_utf8ILm32EEE
00000000000b8691 V _ZTSNSt6__ndk116__owns_one_stateIcEE
000000000010a385 V _ZTSNSt6__ndk116__owns_one_stateIwEE
000000000010b532 R _ZTSNSt6__ndk117bad_function_callE
000000000010d41e V _ZTSNSt6__ndk117moneypunct_bynameIcLb0EEE
000000000010d444 V _ZTSNSt6__ndk117moneypunct_bynameIcLb1EEE
000000000010d46a V _ZTSNSt6__ndk117moneypunct_bynameIwLb0EEE
000000000010d490 V _ZTSNSt6__ndk117moneypunct_bynameIwLb1EEE
00000000000b896a V _ZTSNSt6__ndk117__owns_two_statesIcEE
000000000010a65e V _ZTSNSt6__ndk117__owns_two_statesIwEE
00000000000b898c V _ZTSNSt6__ndk117__repeat_one_loopIcEE
000000000010a680 V _ZTSNSt6__ndk117__repeat_one_loopIwEE
000000000010cb3e R _ZTSNSt6__ndk117__widen_from_utf8ILm16EEE
000000000010cb64 R _ZTSNSt6__ndk117__widen_from_utf8ILm32EEE
00000000000b886f V _ZTSNSt6__ndk118__back_ref_collateIcNS_12regex_traitsIcEEEE
000000000010a563 V _ZTSNSt6__ndk118__back_ref_collateIwNS_12regex_traitsIwEEEE
000000000010ba9c V _ZTSNSt6__ndk118basic_stringstreamIcNS_11char_traitsIcEENS_9allocatorIcEEEE
00000000000b87aa V _ZTSNSt6__ndk118__match_char_icaseIcNS_12regex_traitsIcEEEE
000000000010a49e V _ZTSNSt6__ndk118__match_char_icaseIwNS_12regex_traitsIwEEEE
000000000010d194 V _ZTSNSt6__ndk118__time_get_storageIcEE
000000000010d21f V _ZTSNSt6__ndk118__time_get_storageIwEE
000000000010bb2d V _ZTSNSt6__ndk119basic_istringstreamIcNS_11char_traitsIcEENS_9allocatorIcEEEE
000000000010bae4 V _ZTSNSt6__ndk119basic_ostringstreamIcNS_11char_traitsIcEENS_9allocatorIcEEEE
00000000000b88c2 V _ZTSNSt6__ndk120__bracket_expressionIcNS_12regex_traitsIcEEEE
000000000010a5b6 V _ZTSNSt6__ndk120__bracket_expressionIwNS_12regex_traitsIwEEEE
000000000010cd0c R _ZTSNSt6__ndk120__codecvt_utf8_utf16IDiEE
000000000010cd32 R _ZTSNSt6__ndk120__codecvt_utf8_utf16IDsEE
000000000010cce7 R _ZTSNSt6__ndk120__codecvt_utf8_utf16IwEE
00000000000b86d2 V _ZTSNSt6__ndk120__l_anchor_multilineIcEE
000000000010a3c6 V _ZTSNSt6__ndk120__l_anchor_multilineIwEE
00000000000b87e2 V _ZTSNSt6__ndk120__match_char_collateIcNS_12regex_traitsIcEEEE
000000000010a4d6 V _ZTSNSt6__ndk120__match_char_collateIwNS_12regex_traitsIwEEEE
00000000000b86f7 V _ZTSNSt6__ndk120__r_anchor_multilineIcEE
000000000010a3eb V _ZTSNSt6__ndk120__r_anchor_multilineIwEE
00000000000b7b64 V _ZTSNSt6__ndk120__shared_ptr_emplaceIN12llama_ubatch6data_tENS_9allocatorIS2_EEEE
00000000000b835e V _ZTSNSt6__ndk120__shared_ptr_pointerIP18llama_adapter_cvecNS_14default_deleteIS1_EENS_9allocatorIS1_EEEE
00000000000b8596 V _ZTSNSt6__ndk120__shared_ptr_pointerIPNS_13__empty_stateIcEENS_10shared_ptrIS2_E27__shared_ptr_default_deleteIS2_S2_EENS_9allocatorIS2_EEEE
000000000010a28a V _ZTSNSt6__ndk120__shared_ptr_pointerIPNS_13__empty_stateIwEENS_10shared_ptrIS2_E27__shared_ptr_default_deleteIS2_S2_EENS_9allocatorIS2_EEEE
000000000010d0b2 V _ZTSNSt6__ndk120__time_get_c_storageIcEE
000000000010d11f V _ZTSNSt6__ndk120__time_get_c_storageIwEE
00000000000b89ca V _ZTSNSt6__ndk121__empty_non_own_stateIcEE
000000000010a6be V _ZTSNSt6__ndk121__empty_non_own_stateIwEE
00000000000b8782 V _ZTSNSt6__ndk123__match_any_but_newlineIcEE
000000000010a476 V _ZTSNSt6__ndk123__match_any_but_newlineIwEE
00000000000b8929 V _ZTSNSt6__ndk126__end_marked_subexpressionIcEE
000000000010a61d V _ZTSNSt6__ndk126__end_marked_subexpressionIwEE
00000000000b88fc V _ZTSNSt6__ndk128__begin_marked_subexpressionIcEE
000000000010a5f0 V _ZTSNSt6__ndk128__begin_marked_subexpressionIwEE
000000000010cddd R _ZTSNSt6__ndk15ctypeIcEE
000000000010c9fd R _ZTSNSt6__ndk15ctypeIwEE
000000000010c9e4 R _ZTSNSt6__ndk16locale5facetE
00000000000b8954 V _ZTSNSt6__ndk16__loopIcEE
000000000010a648 V _ZTSNSt6__ndk16__loopIwEE
00000000000b8580 V _ZTSNSt6__ndk16__nodeIcEE
000000000010a274 V _ZTSNSt6__ndk16__nodeIwEE
000000000010ca2a R _ZTSNSt6__ndk17codecvtIcc9mbstate_tEE
000000000010caad R _ZTSNSt6__ndk17codecvtIDic9mbstate_tEE
000000000010cad0 R _ZTSNSt6__ndk17codecvtIDiDu9mbstate_tEE
000000000010ca66 R _ZTSNSt6__ndk17codecvtIDsc9mbstate_tEE
000000000010ca89 R _ZTSNSt6__ndk17codecvtIDsDu9mbstate_tEE
000000000010cba9 R _ZTSNSt6__ndk17codecvtIwc9mbstate_tEE
000000000010cd90 V _ZTSNSt6__ndk17collateIcEE
000000000010cdc6 V _ZTSNSt6__ndk17collateIwEE
000000000010ce9c V _ZTSNSt6__ndk17num_getIcNS_19istreambuf_iteratorIcNS_11char_traitsIcEEEEEE
000000000010cf18 V _ZTSNSt6__ndk17num_getIwNS_19istreambuf_iteratorIwNS_11char_traitsIwEEEEEE
000000000010cf78 V _ZTSNSt6__ndk17num_putIcNS_19ostreambuf_iteratorIcNS_11char_traitsIcEEEEEE
000000000010cff4 V _ZTSNSt6__ndk17num_putIwNS_19ostreambuf_iteratorIwNS_11char_traitsIwEEEEEE
000000000010b75d R _ZTSNSt6__ndk18ios_base7failureE
000000000010b748 R _ZTSNSt6__ndk18ios_baseE
000000000010d64a V _ZTSNSt6__ndk18messagesIcEE
000000000010d67d V _ZTSNSt6__ndk18messagesIwEE
000000000010ce2c R _ZTSNSt6__ndk18numpunctIcEE
000000000010ce44 R _ZTSNSt6__ndk18numpunctIwEE
000000000010d054 V _ZTSNSt6__ndk18time_getIcNS_19istreambuf_iteratorIcNS_11char_traitsIcEEEEEE
000000000010d0d7 V _ZTSNSt6__ndk18time_getIwNS_19istreambuf_iteratorIwNS_11char_traitsIwEEEEEE
000000000010d242 V _ZTSNSt6__ndk18time_putIcNS_19ostreambuf_iteratorIcNS_11char_traitsIcEEEEEE
000000000010d2a2 V _ZTSNSt6__ndk18time_putIwNS_19ostreambuf_iteratorIwNS_11char_traitsIwEEEEEE
000000000010b89a V _ZTSNSt6__ndk19basic_iosIcNS_11char_traitsIcEEEE
000000000010b992 V _ZTSNSt6__ndk19basic_iosIwNS_11char_traitsIwEEEE
000000000010d4b6 V _ZTSNSt6__ndk19money_getIcNS_19istreambuf_iteratorIcNS_11char_traitsIcEEEEEE
000000000010d51b V _ZTSNSt6__ndk19money_getIwNS_19istreambuf_iteratorIwNS_11char_traitsIwEEEEEE
000000000010d580 V _ZTSNSt6__ndk19money_putIcNS_19ostreambuf_iteratorIcNS_11char_traitsIcEEEEEE
000000000010d5e5 V _ZTSNSt6__ndk19money_putIwNS_19ostreambuf_iteratorIwNS_11char_traitsIwEEEEEE
000000000010cee3 V _ZTSNSt6__ndk19__num_getIcEE
000000000010cf5f V _ZTSNSt6__ndk19__num_getIwEE
000000000010cfbf V _ZTSNSt6__ndk19__num_putIcEE
000000000010d03b V _ZTSNSt6__ndk19__num_putIwEE
000000000010d09c V _ZTSNSt6__ndk19time_baseE
00000000000b8cf1 V _ZTSPFP11ggml_tensorP12ggml_contextS0_S0_E
00000000003267a8 V _ZTTNSt6__ndk113basic_istreamIcNS_11char_traitsIcEEEE
0000000000326998 V _ZTTNSt6__ndk113basic_istreamIwNS_11char_traitsIwEEEE
0000000000326808 V _ZTTNSt6__ndk113basic_ostreamIcNS_11char_traitsIcEEEE
00000000003269f8 V _ZTTNSt6__ndk113basic_ostreamIwNS_11char_traitsIwEEEE
0000000000327120 V _ZTTNSt6__ndk114basic_ifstreamIcNS_11char_traitsIcEEEE
0000000000326890 V _ZTTNSt6__ndk114basic_iostreamIcNS_11char_traitsIcEEEE
00000000003271f8 V _ZTTNSt6__ndk114basic_ofstreamIcNS_11char_traitsIcEEEE
0000000000326da0 V _ZTTNSt6__ndk118basic_stringstreamIcNS_11char_traitsIcEENS_9allocatorIcEEEE
0000000000327048 V _ZTTNSt6__ndk119basic_istringstreamIcNS_11char_traitsIcEENS_9allocatorIcEEEE
0000000000326f70 V _ZTTNSt6__ndk119basic_ostringstreamIcNS_11char_traitsIcEENS_9allocatorIcEEEE
00000000002d1380 W _ZTv0_n24_NSt6__ndk113basic_istreamIcNS_11char_traitsIcEEED0Ev
00000000002d1334 W _ZTv0_n24_NSt6__ndk113basic_istreamIcNS_11char_traitsIcEEED1Ev
00000000002d6724 W _ZTv0_n24_NSt6__ndk113basic_istreamIwNS_11char_traitsIwEEED0Ev
00000000002d66d8 W _ZTv0_n24_NSt6__ndk113basic_istreamIwNS_11char_traitsIwEEED1Ev
00000000002d3f2c W _ZTv0_n24_NSt6__ndk113basic_ostreamIcNS_11char_traitsIcEEED0Ev
00000000002d3ee0 W _ZTv0_n24_NSt6__ndk113basic_ostreamIcNS_11char_traitsIcEEED1Ev
00000000002d92e0 W _ZTv0_n24_NSt6__ndk113basic_ostreamIwNS_11char_traitsIwEEED0Ev
00000000002d9294 W _ZTv0_n24_NSt6__ndk113basic_ostreamIwNS_11char_traitsIwEEED1Ev
00000000002d5d9c W _ZTv0_n24_NSt6__ndk114basic_iostreamIcNS_11char_traitsIcEEED0Ev
00000000002d5d1c W _ZTv0_n24_NSt6__ndk114basic_iostreamIcNS_11char_traitsIcEEED1Ev
0000000000326398 V _ZTV12llm_build_t5ILb0EE
00000000003263b8 V _ZTV12llm_build_t5ILb1EE
00000000003258e8 V _ZTV13llm_build_mpt
0000000000325dc8 V _ZTV13llm_build_plm
0000000000322f70 D _ZTV14llama_kv_cache
00000000003249a0 V _ZTV14llm_build_bert
0000000000324b98 V _ZTV14llm_build_dbrx
0000000000324bd0 V _ZTV14llm_build_deci
0000000000325170 V _ZTV14llm_build_glm4
00000000003251a8 V _ZTV14llm_build_gpt2
0000000000325288 V _ZTV14llm_build_grok
00000000003253a0 V _ZTV14llm_build_jais
00000000003254a0 V _ZTV14llm_build_lfm2ILb0EE
0000000000325480 V _ZTV14llm_build_lfm2ILb1EE
00000000003259c8 V _ZTV14llm_build_olmo
0000000000325bc0 V _ZTV14llm_build_phi2
0000000000325bf8 V _ZTV14llm_build_phi3ILb0EE
0000000000325c18 V _ZTV14llm_build_phi3ILb1EE
0000000000325e00 V _ZTV14llm_build_qwen
00000000003260a0 V _ZTV14llm_build_rnd1
00000000003247c8 V _ZTV15llm_build_afmoe
0000000000324838 V _ZTV15llm_build_arcee
0000000000324a10 V _ZTV15llm_build_bloom
0000000000324d30 V _ZTV15llm_build_dots1
0000000000324d68 V _ZTV15llm_build_dream
0000000000324fe8 V _ZTV15llm_build_gemma
00000000003253d8 V _ZTV15llm_build_jais2
0000000000325410 V _ZTV15llm_build_jamba
0000000000325528 V _ZTV15llm_build_llada
0000000000325560 V _ZTV15llm_build_llamaILb0EE
0000000000325580 V _ZTV15llm_build_llamaILb1EE
0000000000325798 V _ZTV15llm_build_mamba
0000000000325a00 V _ZTV15llm_build_olmo2ILb0EE
0000000000325a20 V _ZTV15llm_build_olmo2ILb1EE
0000000000325a70 V _ZTV15llm_build_olmoe
0000000000325b18 V _ZTV15llm_build_orion
0000000000325c68 V _ZTV15llm_build_plamo
0000000000325e38 V _ZTV15llm_build_qwen2
0000000000325ee0 V _ZTV15llm_build_qwen3
0000000000326110 V _ZTV15llm_build_rwkv6
00000000003261a0 V _ZTV15llm_build_rwkv7
0000000000324870 V _ZTV16llm_build_arctic
00000000003248a8 V _ZTV16llm_build_arwkv7
00000000003249d8 V _ZTV16llm_build_bitnet
0000000000324af0 V _ZTV16llm_build_cogvlm
0000000000324e80 V _ZTV16llm_build_exaone
0000000000324f78 V _ZTV16llm_build_falcon
0000000000325058 V _ZTV16llm_build_gemma3ILb0EE
0000000000325078 V _ZTV16llm_build_gemma3ILb1EE
00000000003255d0 V _ZTV16llm_build_llama4ILb0EE
00000000003255f0 V _ZTV16llm_build_llama4ILb1EE
0000000000325ca0 V _ZTV16llm_build_plamo2
0000000000325d58 V _ZTV16llm_build_plamo3ILb0EE
0000000000325d78 V _ZTV16llm_build_plamo3ILb1EE
0000000000325f18 V _ZTV16llm_build_qwen35
0000000000326068 V _ZTV16llm_build_refact
0000000000326478 V _ZTV16llm_build_xverse
00000000003228c8 V _ZTV16llm_graph_result
0000000000324800 V _ZTV17llm_build_apertus
0000000000324a80 V _ZTV17llm_build_chatglm
0000000000324eb8 V _ZTV17llm_build_exaone4ILb0EE
0000000000324ed8 V _ZTV17llm_build_exaone4ILb1EE
00000000003251e0 V _ZTV17llm_build_gptneox
0000000000325250 V _ZTV17llm_build_granite
0000000000325ae0 V _ZTV17llm_build_openelm
0000000000325ea8 V _ZTV17llm_build_qwen2vl
0000000000326030 V _ZTV17llm_build_qwen3vl
0000000000326280 V _ZTV17llm_build_smollm3
00000000003228e8 V _ZTV17llm_graph_context
0000000000322e90 V _ZTV17llm_graph_input_i
0000000000323f80 V _ZTV17llm_tokenizer_bpe
0000000000323f38 V _ZTV17llm_tokenizer_spm
0000000000323ff0 V _ZTV17llm_tokenizer_ugm
0000000000323fb8 V _ZTV17llm_tokenizer_wpm
0000000000322058 V _ZTV18llama_io_read_file
00000000003248f8 V _ZTV18llm_build_baichuan
0000000000324c08 V _ZTV18llm_build_deepseek
0000000000324dd8 V _ZTV18llm_build_ernie4_5
0000000000324e10 V _ZTV18llm_build_eurobert
0000000000325138 V _ZTV18llm_build_glm4_moe
00000000003252c0 V _ZTV18llm_build_grovemoe
0000000000325808 V _ZTV18llm_build_minicpm3
0000000000325878 V _ZTV18llm_build_mistral3
0000000000325958 V _ZTV18llm_build_nemotron
0000000000325990 V _ZTV18llm_build_neo_bert
0000000000325e70 V _ZTV18llm_build_qwen2moe
0000000000325f88 V _ZTV18llm_build_qwen3moe
00000000003261d8 V _ZTV18llm_build_seed_oss
00000000003262b8 V _ZTV18llm_build_stablelm
0000000000322b58 D _ZTV18llm_graph_input_rs
0000000000324028 V _ZTV18llm_tokenizer_rwkv
00000000003220a8 V _ZTV19llama_io_write_file
00000000003230e8 D _ZTV19llama_kv_cache_iswa
0000000000323318 D _ZTV19llama_memory_hybrid
0000000000324a48 V _ZTV19llm_build_chameleon
0000000000324ab8 V _ZTV19llm_build_codeshell
0000000000324b60 V _ZTV19llm_build_command_r
0000000000324c40 V _ZTV19llm_build_deepseek2
0000000000324f28 V _ZTV19llm_build_falcon_h1
0000000000325368 V _ZTV19llm_build_internlm2
00000000003254f0 V _ZTV19llm_build_llada_moe
0000000000325640 V _ZTV19llm_build_maincoder
0000000000325b50 V _ZTV19llm_build_paddleocr
0000000000325f50 V _ZTV19llm_build_qwen35moe
0000000000325fc0 V _ZTV19llm_build_qwen3next
00000000003262f0 V _ZTV19llm_build_starcoder
0000000000326408 V _ZTV19llm_build_t5encoder
0000000000322b10 D _ZTV19llm_graph_input_cls
0000000000322960 D _ZTV19llm_graph_input_pos
0000000000321ff8 V _ZTV20llama_io_read_buffer
0000000000321f48 V _ZTV20llama_io_write_dummy
0000000000324930 V _ZTV20llm_build_bailingmoe
0000000000324e48 V _ZTV20llm_build_exaone_moe
0000000000325678 V _ZTV20llm_build_mamba_base
00000000003257d0 V _ZTV20llm_build_mimo2_iswa
0000000000325840 V _ZTV20llm_build_minimax_m2
0000000000325920 V _ZTV20llm_build_nemotron_h
0000000000325ff8 V _ZTV20llm_build_qwen3vlmoe
00000000003260d8 V _ZTV20llm_build_rwkv6_base
0000000000326148 V _ZTV20llm_build_rwkv6qwen2
0000000000326180 V _ZTV20llm_build_rwkv7_base
0000000000326328 V _ZTV20llm_build_starcoder2
0000000000322908 D _ZTV20llm_graph_input_embd
0000000000322ac8 D _ZTV20llm_graph_input_mean
0000000000324060 V _ZTV20llm_tokenizer_plamo2
0000000000321fa8 V _ZTV21llama_io_write_buffer
0000000000324968 V _ZTV21llm_build_bailingmoe2
0000000000325020 V _ZTV21llm_build_gemma2_iswa
0000000000325100 V _ZTV21llm_build_gemma4_iswa
0000000000325330 V _ZTV21llm_build_hunyuan_moe
0000000000325448 V _ZTV21llm_build_kimi_linear
00000000003258b0 V _ZTV21llm_build_modern_bert
0000000000326360 V _ZTV21llm_build_step35_iswa
0000000000323010 D _ZTV22llama_kv_cache_context
0000000000323758 D _ZTV22llama_memory_recurrent
0000000000324b28 V _ZTV22llm_build_cohere2_iswa
0000000000324cb0 V _ZTV22llm_build_dflash_draft
0000000000324da0 V _ZTV22llm_build_ernie4_5_moe
00000000003250c8 V _ZTV22llm_build_gemma3n_iswa
0000000000326210 V _ZTV22llm_build_smallthinkerILb0EE
0000000000326230 V _ZTV22llm_build_smallthinkerILb1EE
0000000000322c78 D _ZTV22llm_graph_input_attn_k
0000000000324cd0 D _ZTV22llm_graph_input_dflash
00000000003252f8 V _ZTV23llm_build_hunyuan_dense
0000000000322c30 D _ZTV23llm_graph_input_attn_kv
0000000000323078 D _ZTV23llm_graph_input_k_shift
0000000000322a80 D _ZTV23llm_graph_input_out_ids
0000000000323538 D _ZTV24llama_memory_hybrid_iswa
0000000000324c78 V _ZTV24llm_build_delta_net_base
0000000000325218 V _ZTV24llm_build_granite_hybrid
0000000000325b88 V _ZTV24llm_build_pangu_embedded
0000000000322e28 D _ZTV24llm_graph_input_sampling
0000000000324fb0 V _ZTV25llm_build_gemma_embedding
0000000000325aa8 V _ZTV25llm_build_openai_moe_iswa
00000000003229a8 D _ZTV25llm_graph_input_attn_temp
0000000000326440 V _ZTV26llm_build_wavtokenizer_dec
0000000000322d08 D _ZTV26llm_graph_input_attn_cross
0000000000322ba0 D _ZTV26llm_graph_input_cross_embd
0000000000322d50 D _ZTV26llm_graph_input_mem_hybrid
00000000003229f0 D _ZTV26llm_graph_input_pos_bucket
0000000000323188 D _ZTV27llama_kv_cache_iswa_context
00000000003233b8 D _ZTV27llama_memory_hybrid_context
0000000000322cc0 D _ZTV28llm_graph_input_attn_kv_iswa
0000000000322d98 D _ZTV28llm_graph_input_mem_hybrid_k
0000000000322be8 D _ZTV29llm_graph_input_attn_no_cache
0000000000322a38 D _ZTV29llm_graph_input_pos_bucket_kv
00000000003237f8 D _ZTV30llama_memory_recurrent_context
0000000000322de0 D _ZTV31llm_graph_input_mem_hybrid_iswa
00000000003235d8 D _ZTV32llama_memory_hybrid_iswa_context
00000000003225f8 V _ZTVNSt6__ndk110__back_refIcEE
00000000003244f8 V _ZTVNSt6__ndk110__back_refIwEE
0000000000322ec0 V _ZTVNSt6__ndk110__function6__funcIPFP11ggml_tensorP12ggml_contextS3_S3_ENS_9allocatorIS7_EES6_EE
0000000000328d28 V _ZTVNSt6__ndk110moneypunctIcLb0EEE
0000000000328de0 V _ZTVNSt6__ndk110moneypunctIcLb1EEE
0000000000328e88 V _ZTVNSt6__ndk110moneypunctIwLb0EEE
0000000000328f30 V _ZTVNSt6__ndk110moneypunctIwLb1EEE
00000000003227f0 V _ZTVNSt6__ndk111__alternateIcEE
00000000003246f0 V _ZTVNSt6__ndk111__alternateIwEE
00000000003221d8 V _ZTVNSt6__ndk111__end_stateIcEE
00000000003240d8 V _ZTVNSt6__ndk111__end_stateIwEE
0000000000322400 V _ZTVNSt6__ndk111__lookaheadIcNS_12regex_traitsIcEEEE
0000000000324300 V _ZTVNSt6__ndk111__lookaheadIwNS_12regex_traitsIwEEEE
0000000000322880 V _ZTVNSt6__ndk111__match_anyIcEE
0000000000324780 V _ZTVNSt6__ndk111__match_anyIwEE
0000000000329998 D _ZTVNSt6__ndk111regex_errorE
00000000003273a8 D _ZTVNSt6__ndk112ctype_bynameIcEE
0000000000327410 D _ZTVNSt6__ndk112ctype_bynameIwEE
0000000000322520 V _ZTVNSt6__ndk112__match_charIcEE
0000000000324420 V _ZTVNSt6__ndk112__match_charIwEE
0000000000326650 D _ZTVNSt6__ndk112system_errorE
0000000000326a88 V _ZTVNSt6__ndk113basic_filebufIcNS_11char_traitsIcEEEE
0000000000326758 V _ZTVNSt6__ndk113basic_istreamIcNS_11char_traitsIcEEEE
0000000000326948 V _ZTVNSt6__ndk113basic_istreamIwNS_11char_traitsIwEEEE
00000000003267b8 V _ZTVNSt6__ndk113basic_ostreamIcNS_11char_traitsIcEEEE
00000000003269a8 V _ZTVNSt6__ndk113basic_ostreamIwNS_11char_traitsIwEEEE
0000000000322280 V _ZTVNSt6__ndk113__empty_stateIcEE
0000000000324180 V _ZTVNSt6__ndk113__empty_stateIwEE
00000000003270d0 V _ZTVNSt6__ndk114basic_ifstreamIcNS_11char_traitsIcEEEE
0000000000326818 V _ZTVNSt6__ndk114basic_iostreamIcNS_11char_traitsIcEEEE
00000000003271a8 V _ZTVNSt6__ndk114basic_ofstreamIcNS_11char_traitsIcEEEE
00000000003295a8 V _ZTVNSt6__ndk114codecvt_bynameIcc9mbstate_tEE
0000000000329710 V _ZTVNSt6__ndk114codecvt_bynameIDic9mbstate_tEE
0000000000329800 V _ZTVNSt6__ndk114codecvt_bynameIDiDu9mbstate_tEE
0000000000329698 V _ZTVNSt6__ndk114codecvt_bynameIDsc9mbstate_tEE
0000000000329788 V _ZTVNSt6__ndk114codecvt_bynameIDsDu9mbstate_tEE
0000000000329620 V _ZTVNSt6__ndk114codecvt_bynameIwc9mbstate_tEE
0000000000327d58 D _ZTVNSt6__ndk114__codecvt_utf8IDiEE
0000000000327ce0 D _ZTVNSt6__ndk114__codecvt_utf8IDsEE
0000000000327c30 D _ZTVNSt6__ndk114__codecvt_utf8IwEE
00000000003272c0 D _ZTVNSt6__ndk114collate_bynameIcEE
0000000000327300 D _ZTVNSt6__ndk114collate_bynameIwEE
00000000003266d8 V _ZTVNSt6__ndk115basic_streambufIcNS_11char_traitsIcEEEE
00000000003268c8 V _ZTVNSt6__ndk115basic_streambufIwNS_11char_traitsIwEEEE
0000000000326a08 V _ZTVNSt6__ndk115basic_stringbufIcNS_11char_traitsIcEENS_9allocatorIcEEEE
0000000000327fb0 D _ZTVNSt6__ndk115__codecvt_utf16IDiLb0EEE
0000000000328028 D _ZTVNSt6__ndk115__codecvt_utf16IDiLb1EEE
0000000000327ec0 D _ZTVNSt6__ndk115__codecvt_utf16IDsLb0EEE
0000000000327f38 D _ZTVNSt6__ndk115__codecvt_utf16IDsLb1EEE
0000000000327dd0 D _ZTVNSt6__ndk115__codecvt_utf16IwLb0EEE
0000000000327e48 D _ZTVNSt6__ndk115__codecvt_utf16IwLb1EEE
00000000003294f8 V _ZTVNSt6__ndk115messages_bynameIcEE
0000000000329550 V _ZTVNSt6__ndk115messages_bynameIwEE
0000000000327598 D _ZTVNSt6__ndk115numpunct_bynameIcEE
00000000003275e8 D _ZTVNSt6__ndk115numpunct_bynameIwEE
0000000000328948 V _ZTVNSt6__ndk115time_get_bynameIcNS_19istreambuf_iteratorIcNS_11char_traitsIcEEEEEE
0000000000328a88 V _ZTVNSt6__ndk115time_get_bynameIwNS_19istreambuf_iteratorIwNS_11char_traitsIwEEEEEE
0000000000328c98 V _ZTVNSt6__ndk115time_put_bynameIcNS_19ostreambuf_iteratorIcNS_11char_traitsIcEEEEEE
0000000000328ce0 V _ZTVNSt6__ndk115time_put_bynameIwNS_19ostreambuf_iteratorIwNS_11char_traitsIwEEEEEE
00000000003223b8 V _ZTVNSt6__ndk115__word_boundaryIcNS_12regex_traitsIcEEEE
00000000003242b8 V _ZTVNSt6__ndk115__word_boundaryIwNS_12regex_traitsIwEEEE
0000000000322568 V _ZTVNSt6__ndk116__back_ref_icaseIcNS_12regex_traitsIcEEEE
0000000000324468 V _ZTVNSt6__ndk116__back_ref_icaseIwNS_12regex_traitsIwEEEE
0000000000327a50 D _ZTVNSt6__ndk116__narrow_to_utf8ILm16EEE
0000000000327ac8 D _ZTVNSt6__ndk116__narrow_to_utf8ILm32EEE
00000000003222f8 V _ZTVNSt6__ndk116__owns_one_stateIcEE
00000000003241f8 V _ZTVNSt6__ndk116__owns_one_stateIwEE
00000000003264b0 D _ZTVNSt6__ndk117bad_function_callE
0000000000328fd8 V _ZTVNSt6__ndk117moneypunct_bynameIcLb0EEE
0000000000329060 V _ZTVNSt6__ndk117moneypunct_bynameIcLb1EEE
00000000003290e8 V _ZTVNSt6__ndk117moneypunct_bynameIwLb0EEE
0000000000329170 V _ZTVNSt6__ndk117moneypunct_bynameIwLb1EEE
0000000000322778 V _ZTVNSt6__ndk117__owns_two_statesIcEE
0000000000324678 V _ZTVNSt6__ndk117__owns_two_statesIwEE
00000000003227a8 V _ZTVNSt6__ndk117__repeat_one_loopIcEE
00000000003246a8 V _ZTVNSt6__ndk117__repeat_one_loopIwEE
0000000000327b40 D _ZTVNSt6__ndk117__widen_from_utf8ILm16EEE
0000000000327bb8 D _ZTVNSt6__ndk117__widen_from_utf8ILm32EEE
00000000003225b0 V _ZTVNSt6__ndk118__back_ref_collateIcNS_12regex_traitsIcEEEE
00000000003244b0 V _ZTVNSt6__ndk118__back_ref_collateIwNS_12regex_traitsIwEEEE
0000000000326d28 V _ZTVNSt6__ndk118basic_stringstreamIcNS_11char_traitsIcEENS_9allocatorIcEEEE
0000000000322490 V _ZTVNSt6__ndk118__match_char_icaseIcNS_12regex_traitsIcEEEE
0000000000324390 V _ZTVNSt6__ndk118__match_char_icaseIwNS_12regex_traitsIwEEEE
0000000000326ff8 V _ZTVNSt6__ndk119basic_istringstreamIcNS_11char_traitsIcEENS_9allocatorIcEEEE
0000000000326f20 V _ZTVNSt6__ndk119basic_ostringstreamIcNS_11char_traitsIcEENS_9allocatorIcEEEE
0000000000322640 V _ZTVNSt6__ndk120__bracket_expressionIcNS_12regex_traitsIcEEEE
0000000000324540 V _ZTVNSt6__ndk120__bracket_expressionIwNS_12regex_traitsIwEEEE
0000000000328118 D _ZTVNSt6__ndk120__codecvt_utf8_utf16IDiEE
0000000000328190 D _ZTVNSt6__ndk120__codecvt_utf8_utf16IDsEE
00000000003280a0 D _ZTVNSt6__ndk120__codecvt_utf8_utf16IwEE
0000000000322328 V _ZTVNSt6__ndk120__l_anchor_multilineIcEE
0000000000324228 V _ZTVNSt6__ndk120__l_anchor_multilineIwEE
00000000003224d8 V _ZTVNSt6__ndk120__match_char_collateIcNS_12regex_traitsIcEEEE
00000000003243d8 V _ZTVNSt6__ndk120__match_char_collateIwNS_12regex_traitsIwEEEE
0000000000322370 V _ZTVNSt6__ndk120__r_anchor_multilineIcEE
0000000000324270 V _ZTVNSt6__ndk120__r_anchor_multilineIwEE
0000000000321ee8 V _ZTVNSt6__ndk120__shared_ptr_emplaceIN12llama_ubatch6data_tENS_9allocatorIS2_EEEE
00000000003220f8 V _ZTVNSt6__ndk120__shared_ptr_pointerIP18llama_adapter_cvecNS_14default_deleteIS1_EENS_9allocatorIS1_EEEE
0000000000322230 V _ZTVNSt6__ndk120__shared_ptr_pointerIPNS_13__empty_stateIcEENS_10shared_ptrIS2_E27__shared_ptr_default_deleteIS2_S2_EENS_9allocatorIS2_EEEE
0000000000324130 V _ZTVNSt6__ndk120__shared_ptr_pointerIPNS_13__empty_stateIwEENS_10shared_ptrIS2_E27__shared_ptr_default_deleteIS2_S2_EENS_9allocatorIS2_EEEE
0000000000322838 V _ZTVNSt6__ndk121__empty_non_own_stateIcEE
0000000000324738 V _ZTVNSt6__ndk121__empty_non_own_stateIwEE
0000000000322448 V _ZTVNSt6__ndk123__match_any_but_newlineIcEE
0000000000324348 V _ZTVNSt6__ndk123__match_any_but_newlineIwEE
00000000003226d0 V _ZTVNSt6__ndk126__end_marked_subexpressionIcEE
00000000003245d0 V _ZTVNSt6__ndk126__end_marked_subexpressionIwEE
0000000000322688 V _ZTVNSt6__ndk128__begin_marked_subexpressionIcEE
0000000000324588 V _ZTVNSt6__ndk128__begin_marked_subexpressionIwEE
0000000000327340 D _ZTVNSt6__ndk15ctypeIcEE
0000000000327678 D _ZTVNSt6__ndk15ctypeIwEE
0000000000327638 D _ZTVNSt6__ndk16locale5facetE
0000000000322718 V _ZTVNSt6__ndk16__loopIcEE
0000000000324618 V _ZTVNSt6__ndk16__loopIwEE
0000000000327748 D _ZTVNSt6__ndk17codecvtIcc9mbstate_tEE
0000000000327920 D _ZTVNSt6__ndk17codecvtIDic9mbstate_tEE
00000000003279b8 D _ZTVNSt6__ndk17codecvtIDiDu9mbstate_tEE
00000000003277f0 D _ZTVNSt6__ndk17codecvtIDsc9mbstate_tEE
0000000000327888 D _ZTVNSt6__ndk17codecvtIDsDu9mbstate_tEE
0000000000327498 D _ZTVNSt6__ndk17codecvtIwc9mbstate_tEE
0000000000328348 V _ZTVNSt6__ndk17collateIcEE
0000000000328388 V _ZTVNSt6__ndk17collateIwEE
00000000003283c8 V _ZTVNSt6__ndk17num_getIcNS_19istreambuf_iteratorIcNS_11char_traitsIcEEEEEE
00000000003284b8 V _ZTVNSt6__ndk17num_getIwNS_19istreambuf_iteratorIwNS_11char_traitsIwEEEEEE
0000000000328598 V _ZTVNSt6__ndk17num_putIcNS_19ostreambuf_iteratorIcNS_11char_traitsIcEEEEEE
0000000000328670 V _ZTVNSt6__ndk17num_putIwNS_19ostreambuf_iteratorIwNS_11char_traitsIwEEEEEE
0000000000326538 D _ZTVNSt6__ndk18ios_base7failureE
0000000000326560 D _ZTVNSt6__ndk18ios_baseE
00000000003293f8 V _ZTVNSt6__ndk18messagesIcEE
0000000000329480 V _ZTVNSt6__ndk18messagesIwEE
00000000003274f8 D _ZTVNSt6__ndk18numpunctIcEE
0000000000327548 D _ZTVNSt6__ndk18numpunctIwEE
0000000000328738 V _ZTVNSt6__ndk18time_getIcNS_19istreambuf_iteratorIcNS_11char_traitsIcEEEEEE
0000000000328848 V _ZTVNSt6__ndk18time_getIwNS_19istreambuf_iteratorIwNS_11char_traitsIwEEEEEE
0000000000328bb8 V _ZTVNSt6__ndk18time_putIcNS_19ostreambuf_iteratorIcNS_11char_traitsIcEEEEEE
0000000000328c30 V _ZTVNSt6__ndk18time_putIwNS_19ostreambuf_iteratorIwNS_11char_traitsIwEEEEEE
0000000000326b08 V _ZTVNSt6__ndk19basic_iosIcNS_11char_traitsIcEEEE
0000000000326c78 V _ZTVNSt6__ndk19basic_iosIwNS_11char_traitsIwEEEE
00000000003291f8 V _ZTVNSt6__ndk19money_getIcNS_19istreambuf_iteratorIcNS_11char_traitsIcEEEEEE
0000000000329278 V _ZTVNSt6__ndk19money_getIwNS_19istreambuf_iteratorIwNS_11char_traitsIwEEEEEE
00000000003292f8 V _ZTVNSt6__ndk19money_putIcNS_19ostreambuf_iteratorIcNS_11char_traitsIcEEEEEE
0000000000329378 V _ZTVNSt6__ndk19money_putIwNS_19ostreambuf_iteratorIwNS_11char_traitsIwEEEEEE
00000000002aeca4 W _ZZN14llm_build_lfm2ILb0EEC1ERK11llama_modelRK16llm_graph_paramsENKUlP11ggml_tensorP18llm_graph_input_rsiE_clES8_SA_i
00000000002af298 W _ZZN14llm_build_lfm2ILb0EEC1ERK11llama_modelRK16llm_graph_paramsENKUlP11ggml_tensorS8_P23llm_graph_input_attn_kviE_clES8_S8_SA_i
00000000002adfa4 W _ZZN14llm_build_lfm2ILb1EEC1ERK11llama_modelRK16llm_graph_paramsENKUlP11ggml_tensorP18llm_graph_input_rsiE_clES8_SA_i
00000000002ae598 W _ZZN14llm_build_lfm2ILb1EEC1ERK11llama_modelRK16llm_graph_paramsENKUlP11ggml_tensorS8_P28llm_graph_input_attn_kv_iswaiE_clES8_S8_SA_i
0000000000276cac W _ZZN20llm_tokenizer_plamo25buildERK11llama_vocabENKUlRKNSt6__ndk112basic_stringIcNS3_11char_traitsIcEENS3_9allocatorIcEEEESB_E_clESB_SB_
0000000000332c40 V _ZZN25llm_tokenizer_bpe_session8tokenizeERKNSt6__ndk112basic_stringIcNS0_11char_traitsIcEENS0_9allocatorIcEEEERNS0_6vectorIiNS4_IiEEEEE3hex

######################################################################
## android-arm64-cpu / libggml-base.so
######################################################################
0000000000100a64 T __cxa_allocate_dependent_exception
000000000010087c T __cxa_allocate_exception
00000000001008cc T __cxa_begin_catch
0000000000100c7c T __cxa_call_terminate
00000000001018fc T __cxa_call_unexpected
0000000000100c90 T __cxa_current_exception_type
0000000000100df0 T __cxa_current_primary_exception
0000000000100c20 T __cxa_decrement_exception_refcount
00000000000e6214 T __cxa_deleted_virtual
00000000000e8180 T __cxa_demangle
0000000000100b34 T __cxa_end_catch
0000000000100aa0 T __cxa_free_dependent_exception
0000000000100968 T __cxa_free_exception
0000000000100b28 T __cxa_get_exception_ptr
00000000000e5e00 T __cxa_get_globals
00000000000e5e24 T __cxa_get_globals_fast
00000000000e6034 T __cxa_guard_abort
00000000000e5e48 T __cxa_guard_acquire
00000000000e5f8c T __cxa_guard_release
0000000000100dc4 T __cxa_increment_exception_refcount
000000000010098c T __cxa_init_primary_exception
0000000000137ff0 B __cxa_new_handler
00000000000e61fc T __cxa_pure_virtual
0000000000100ce0 T __cxa_rethrow
0000000000100e70 T __cxa_rethrow_primary_exception
0000000000117878 D __cxa_terminate_handler
0000000000100aa8 T __cxa_throw
0000000000101004 T __cxa_uncaught_exception
0000000000101034 T __cxa_uncaught_exceptions
0000000000117880 D __cxa_unexpected_handler
00000000000b1c7c T dequantize_row_iq1_m
00000000000b1ab8 T dequantize_row_iq1_s
00000000000b0c70 T dequantize_row_iq2_s
00000000000b07d0 T dequantize_row_iq2_xs
00000000000b045c T dequantize_row_iq2_xxs
00000000000b13a8 T dequantize_row_iq3_s
00000000000b100c T dequantize_row_iq3_xxs
00000000000b1ec8 T dequantize_row_iq4_nl
00000000000b21cc T dequantize_row_iq4_xs
0000000000094f54 T dequantize_row_mxfp4
000000000009519c T dequantize_row_nvfp4
00000000000943b4 T dequantize_row_q1_0
00000000000960a8 T dequantize_row_q2_K
0000000000098054 T dequantize_row_q3_K
00000000000946f4 T dequantize_row_q4_0
0000000000094884 T dequantize_row_q4_1
000000000009b1dc T dequantize_row_q4_K
0000000000094a2c T dequantize_row_q5_0
0000000000094c1c T dequantize_row_q5_1
000000000009e770 T dequantize_row_q5_K
00000000000a1fd4 T dequantize_row_q6_K
0000000000094e48 T dequantize_row_q8_0
00000000000b2cd0 T dequantize_row_q8_K
00000000000af3a4 T dequantize_row_tq1_0
00000000000b0098 T dequantize_row_tq2_0
00000000000c2ffc T dequantize_row_turbo2_0
00000000000c3abc T dequantize_row_turbo2_tcq
00000000000c32e0 T dequantize_row_turbo3_0
00000000000c37c4 T dequantize_row_turbo3_tcq
00000000000c44bc T dequantize_row_turbo4_0
00000000000e6a14 T __dynamic_cast
0000000000101e04 W __emutls_get_address
000000000005d908 T ggml_abort
0000000000061928 T ggml_abs
00000000000619c4 T ggml_abs_inplace
0000000000060140 T ggml_acc
0000000000060368 T ggml_acc_inplace
000000000005fc40 T ggml_add
000000000005ffd4 T ggml_add1
0000000000060138 T ggml_add1_inplace
000000000005fd98 T ggml_add_cast
000000000005fec4 T ggml_add_id
000000000005fd90 T ggml_add_inplace
000000000006ab08 T ggml_add_rel_pos
000000000006aea8 T ggml_add_rel_pos_inplace
000000000005dc48 T ggml_aligned_free
000000000005db7c T ggml_aligned_malloc
0000000000069ad4 T ggml_arange
000000000005ed28 T ggml_are_same_shape
000000000005ed74 T ggml_are_same_stride
00000000000610f8 T ggml_argmax
00000000000611d0 T ggml_argmax_ext
0000000000069850 T ggml_argsort
00000000000698c4 T ggml_argsort_top_k
0000000000076a58 T ggml_backend_alloc_buffer
0000000000075308 T ggml_backend_alloc_ctx_tensors
0000000000075268 T ggml_backend_alloc_ctx_tensors_from_buft
0000000000074f00 T ggml_backend_alloc_ctx_tensors_from_buft_size
0000000000076580 T ggml_backend_buffer_clear
0000000000076960 T ggml_backend_buffer_copy_tensor
0000000000076440 T ggml_backend_buffer_free
00000000000765c0 T ggml_backend_buffer_get_alignment
0000000000076690 T ggml_backend_buffer_get_alloc_size
00000000000764ac T ggml_backend_buffer_get_base
0000000000076620 T ggml_backend_buffer_get_max_size
0000000000076478 T ggml_backend_buffer_get_size
000000000007640c T ggml_backend_buffer_get_type
00000000000768f0 T ggml_backend_buffer_get_usage
0000000000076224 T ggml_backend_buffer_init
0000000000076540 T ggml_backend_buffer_init_tensor
0000000000076700 T ggml_backend_buffer_is_host
000000000007f42c T ggml_backend_buffer_is_meta
0000000000076800 T ggml_backend_buffer_is_multi_buffer
00000000000763ac T ggml_backend_buffer_name
0000000000076924 T ggml_backend_buffer_reset
0000000000076770 T ggml_backend_buffer_set_usage
00000000000761ac T ggml_backend_buft_alloc_buffer
0000000000076284 T ggml_backend_buft_get_alignment
00000000000762f8 T ggml_backend_buft_get_alloc_size
0000000000076378 T ggml_backend_buft_get_device
00000000000762b8 T ggml_backend_buft_get_max_size
0000000000076338 T ggml_backend_buft_is_host
000000000007f410 T ggml_backend_buft_is_meta
0000000000076178 T ggml_backend_buft_name
000000000007dc84 T ggml_backend_compare_graph_backend
000000000007e0d4 T ggml_backend_cpu_buffer_from_ptr
000000000007e00c T ggml_backend_cpu_buffer_type
00000000000784b0 T ggml_backend_dev_backend_reg
0000000000078558 T ggml_backend_dev_buffer_from_host_ptr
0000000000076a24 T ggml_backend_dev_buffer_type
00000000000783d0 T ggml_backend_dev_description
000000000007846c T ggml_backend_dev_get_props
0000000000078518 T ggml_backend_dev_host_buffer_type
00000000000784e4 T ggml_backend_dev_init
0000000000078404 T ggml_backend_dev_memory
000000000007839c T ggml_backend_dev_name
0000000000077e18 T ggml_backend_dev_offload_op
0000000000077d74 T ggml_backend_dev_supports_buft
0000000000077ce0 T ggml_backend_dev_supports_op
0000000000078438 T ggml_backend_dev_type
000000000007825c T ggml_backend_event_free
0000000000078244 T ggml_backend_event_new
0000000000078274 T ggml_backend_event_record
00000000000782dc T ggml_backend_event_synchronize
0000000000078340 T ggml_backend_event_wait
00000000000769b4 T ggml_backend_free
0000000000076b2c T ggml_backend_get_alignment
00000000000769c4 T ggml_backend_get_default_buffer_type
0000000000077e58 T ggml_backend_get_device
0000000000076bb8 T ggml_backend_get_max_size
0000000000077bec T ggml_backend_graph_compute
0000000000077c4c T ggml_backend_graph_compute_async
000000000007d320 T ggml_backend_graph_copy
000000000007dc38 T ggml_backend_graph_copy_free
0000000000077b90 T ggml_backend_graph_plan_compute
0000000000077ad8 T ggml_backend_graph_plan_create
0000000000077b34 T ggml_backend_graph_plan_free
0000000000076990 T ggml_backend_guid
0000000000080584 T ggml_backend_is_meta
000000000007f448 T ggml_backend_meta_alloc_ctx_tensors_from_buft
000000000007ea6c T ggml_backend_meta_device
00000000000805a0 T ggml_backend_meta_n_backends
0000000000080600 T ggml_backend_meta_simple_backend
000000000007e998 T ggml_backend_meta_split_axis_name
0000000000078668 T ggml_backend_multi_buffer_alloc_buffer
0000000000076844 T ggml_backend_multi_buffer_set_usage
000000000007699c T ggml_backend_name
0000000000077da8 T ggml_backend_offload_op
00000000000785c0 T ggml_backend_reg_dev_count
00000000000785f4 T ggml_backend_reg_dev_get
0000000000078628 T ggml_backend_reg_get_proc_address
000000000007858c T ggml_backend_reg_name
000000000007baa4 T ggml_backend_sched_alloc_graph
000000000007b5f0 T ggml_backend_sched_free
000000000007cc5c T ggml_backend_sched_get_backend
000000000007cd58 T ggml_backend_sched_get_buffer_size
000000000007ccc8 T ggml_backend_sched_get_buffer_type
000000000007cc28 T ggml_backend_sched_get_n_backends
000000000007cbf4 T ggml_backend_sched_get_n_copies
000000000007cbc0 T ggml_backend_sched_get_n_splits
000000000007cef4 T ggml_backend_sched_get_tensor_backend
000000000007bd28 T ggml_backend_sched_graph_compute
000000000007bde8 T ggml_backend_sched_graph_compute_async
000000000007af34 T ggml_backend_sched_new
000000000007b938 T ggml_backend_sched_reserve
000000000007b6f8 T ggml_backend_sched_reserve_size
000000000007b55c T ggml_backend_sched_reset
000000000007cb88 T ggml_backend_sched_set_eval_callback
000000000007cde8 T ggml_backend_sched_set_tensor_backend
0000000000078800 T ggml_backend_sched_split_graph
000000000007b884 T ggml_backend_sched_synchronize
0000000000077d14 T ggml_backend_supports_buft
0000000000077c80 T ggml_backend_supports_op
0000000000076e08 T ggml_backend_synchronize
000000000007d0c0 T ggml_backend_tensor_alloc
0000000000077e8c T ggml_backend_tensor_copy
00000000000780bc T ggml_backend_tensor_copy_async
0000000000077114 T ggml_backend_tensor_get
000000000007776c T ggml_backend_tensor_get_2d
00000000000773b8 T ggml_backend_tensor_get_2d_async
0000000000076f60 T ggml_backend_tensor_get_async
0000000000077998 T ggml_backend_tensor_memset
0000000000076e44 T ggml_backend_tensor_set
0000000000077540 T ggml_backend_tensor_set_2d
0000000000077230 T ggml_backend_tensor_set_2d_async
0000000000076c54 T ggml_backend_tensor_set_async
000000000007cfc4 T ggml_backend_view_init
000000000005dd3c T ggml_bf16_to_fp32
000000000005e044 T ggml_bf16_to_fp32_row
000000000005e560 T ggml_blck_size
000000000006e05c T ggml_build_backward_expand
000000000006dfe8 T ggml_build_forward_expand
000000000006deec T ggml_build_forward_select
000000000007123c T ggml_can_fuse_subgraph_ext
000000000005edd0 T ggml_can_repeat
000000000006503c T ggml_cast
0000000000062fd0 T ggml_ceil
000000000006306c T ggml_ceil_inplace
0000000000067354 T ggml_clamp
000000000005e2c4 T ggml_commit
000000000006178c T ggml_concat
000000000006508c T ggml_cont
00000000000650dc T ggml_cont_1d
000000000006526c T ggml_cont_2d
0000000000065334 T ggml_cont_3d
00000000000651a4 T ggml_cont_4d
00000000000676d4 T ggml_conv_1d
0000000000067834 T ggml_conv_1d_dw
00000000000678e8 T ggml_conv_1d_dw_ph
0000000000067780 T ggml_conv_1d_ph
0000000000067b50 T ggml_conv_2d
00000000000683b0 T ggml_conv_2d_direct
000000000006805c T ggml_conv_2d_dw
0000000000068184 T ggml_conv_2d_dw_direct
0000000000068018 T ggml_conv_2d_s1_ph
0000000000067fe0 T ggml_conv_2d_sk_p0
0000000000067e64 T ggml_conv_3d
00000000000684f8 T ggml_conv_3d_direct
00000000000679a4 T ggml_conv_transpose_1d
00000000000686dc T ggml_conv_transpose_2d_p0
0000000000060e70 T ggml_cos
0000000000060eb0 T ggml_cos_inplace
0000000000061408 T ggml_count_equal
0000000000064f34 T ggml_cpy
000000000009088c T ggml_critical_section_end
00000000001179d0 B ggml_critical_section_mutex
0000000000090880 T ggml_critical_section_start
000000000006c678 T ggml_cross_entropy_loss
000000000006c754 T ggml_cross_entropy_loss_back
0000000000061010 T ggml_cumsum
000000000006c438 T ggml_custom_4d
000000000006c530 T ggml_custom_inplace
000000000005e3c0 T ggml_cycles
000000000005e3c4 T ggml_cycles_per_ms
0000000000066660 T ggml_diag
0000000000066704 T ggml_diag_mask_inf
000000000006676c T ggml_diag_mask_inf_inplace
00000000000667e0 T ggml_diag_mask_zero
0000000000066848 T ggml_diag_mask_zero_inplace
0000000000060620 T ggml_div
0000000000060770 T ggml_div_inplace
000000000005fb90 T ggml_dup
000000000005fbd0 T ggml_dup_inplace
000000000005f95c T ggml_dup_tensor
000000000005e7c4 T ggml_element_size
0000000000062030 T ggml_elu
00000000000620cc T ggml_elu_inplace
0000000000062d00 T ggml_exp
0000000000062d9c T ggml_exp_inplace
0000000000060988 T ggml_expm1
0000000000060ac0 T ggml_expm1_inplace
00000000000696f4 T ggml_fill
0000000000069848 T ggml_fill_inplace
0000000000069fa4 T ggml_flash_attn_back
0000000000069b90 T ggml_flash_attn_ext
0000000000069ed0 T ggml_flash_attn_ext_add_sinks
0000000000069e94 T ggml_flash_attn_ext_get_prec
0000000000069e58 T ggml_flash_attn_ext_set_prec
0000000000062e68 T ggml_floor
0000000000062f04 T ggml_floor_inplace
000000000005e3cc T ggml_fopen
000000000005fa04 T ggml_format_name
000000000005dc78 T ggml_fp16_to_fp32
000000000005dd80 T ggml_fp16_to_fp32_row
000000000005dd48 T ggml_fp32_to_bf16
000000000005e1bc T ggml_fp32_to_bf16_row
000000000005e0d8 T ggml_fp32_to_bf16_row_ref
000000000005dcc4 T ggml_fp32_to_fp16
000000000005dea0 T ggml_fp32_to_fp16_row
000000000005f060 T ggml_free
000000000005e8bc T ggml_ftype_to_ggml_type
00000000000746a0 T ggml_gallocr_alloc_graph
00000000000737c8 T ggml_gallocr_free
0000000000074cf8 T ggml_gallocr_get_buffer_size
0000000000073778 T ggml_gallocr_new
000000000007357c T ggml_gallocr_new_n
0000000000074690 T ggml_gallocr_reserve
0000000000074688 T ggml_gallocr_reserve_n
00000000000739b8 T ggml_gallocr_reserve_n_size
000000000006ce98 T ggml_gated_delta_net
000000000006d3cc T ggml_gated_delta_net_tree
000000000006b430 T ggml_gated_linear_attn
0000000000063a00 T ggml_geglu
0000000000063ed0 T ggml_geglu_erf
000000000006412c T ggml_geglu_erf_split
0000000000063ffc T ggml_geglu_erf_swapped
0000000000064138 T ggml_geglu_quick
0000000000064394 T ggml_geglu_quick_split
0000000000064264 T ggml_geglu_quick_swapped
0000000000063c5c T ggml_geglu_split
0000000000063b2c T ggml_geglu_swapped
0000000000062524 T ggml_gelu
000000000006268c T ggml_gelu_erf
0000000000062728 T ggml_gelu_erf_inplace
00000000000625c0 T ggml_gelu_inplace
00000000000627f4 T ggml_gelu_quick
0000000000062890 T ggml_gelu_quick_inplace
000000000005f9c0 T ggml_get_data
000000000005f9c8 T ggml_get_data_f32
000000000005f1e0 T ggml_get_first_tensor
000000000005e788 T ggml_get_glu_op
000000000005f0dc T ggml_get_max_tensor_size
000000000005f0cc T ggml_get_mem_buffer
000000000005f0d4 T ggml_get_mem_size
000000000005f9d0 T ggml_get_name
000000000005f210 T ggml_get_next_tensor
000000000005f0bc T ggml_get_no_alloc
000000000006aa30 T ggml_get_rel_pos
0000000000066140 T ggml_get_rows
0000000000066284 T ggml_get_rows_back
000000000005fb18 T ggml_get_tensor
000000000005e3d0 T ggml_get_type_traits
000000000005e74c T ggml_get_unary_op
0000000000063408 T ggml_glu
000000000005e6e4 T ggml_glu_op_name
0000000000063790 T ggml_glu_split
0000000000070f10 T ggml_graph_add_node
0000000000070e68 T ggml_graph_clear
00000000000705d4 T ggml_graph_cpy
00000000000714a4 T ggml_graph_dump_dot
00000000000709e8 T ggml_graph_dup
0000000000071010 T ggml_graph_get_grad
0000000000070df8 T ggml_graph_get_grad_acc
0000000000070f5c T ggml_graph_get_tensor
000000000005d4c0 T ggml_graph_next_uid
0000000000070f08 T ggml_graph_n_nodes
0000000000070e90 T ggml_graph_node
0000000000070f00 T ggml_graph_nodes
0000000000070374 T ggml_graph_overhead
00000000000702dc T ggml_graph_overhead_custom
0000000000071080 T ggml_graph_print
0000000000070bd4 T ggml_graph_reset
0000000000070e88 T ggml_graph_size
0000000000070594 T ggml_graph_view
0000000000064630 T ggml_group_norm
0000000000064684 T ggml_group_norm_inplace
000000000005e2a0 T ggml_guid_matches
0000000000062c64 T ggml_hardsigmoid
0000000000062bc8 T ggml_hardswish
000000000006dec4 T ggml_hash_set_free
000000000006dd08 T ggml_hash_set_new
000000000006deac T ggml_hash_set_reset
000000000006de64 T ggml_hash_size
00000000000673d8 T ggml_im2col
0000000000067c5c T ggml_im2col_3d
0000000000067634 T ggml_im2col_back
000000000005ee70 T ggml_init
0000000000068d50 T ggml_interpolate
000000000005e870 T ggml_is_3d
000000000005e924 T ggml_is_contiguous
000000000005e9c0 T ggml_is_contiguous_0
000000000005ea5c T ggml_is_contiguous_1
000000000005eae8 T ggml_is_contiguous_2
000000000005ec64 T ggml_is_contiguous_channels
000000000005eb58 T ggml_is_contiguously_allocated
000000000005ecac T ggml_is_contiguous_rows
000000000005ecf8 T ggml_is_empty
000000000005e84c T ggml_is_matrix
000000000005ec2c T ggml_is_permuted
000000000005e69c T ggml_is_quantized
000000000005e7e0 T ggml_is_scalar
000000000005e914 T ggml_is_transposed
000000000005e81c T ggml_is_vector
000000000005edc0 T ggml_is_view
0000000000064708 T ggml_l2_norm
0000000000064758 T ggml_l2_norm_inplace
0000000000062300 T ggml_leaky_relu
00000000000608d8 T ggml_log
000000000005db48 T ggml_log_callback_default
000000000007291c T ggml_log_get
0000000000060918 T ggml_log_inplace
000000000005d9fc T ggml_log_internal
0000000000072938 T ggml_log_set
000000000006bf9c T ggml_map_custom1
000000000006c050 T ggml_map_custom1_inplace
000000000006c110 T ggml_map_custom2
000000000006c1d0 T ggml_map_custom2_inplace
000000000006c29c T ggml_map_custom3
000000000006c364 T ggml_map_custom3_inplace
0000000000061078 T ggml_mean
00000000000604c8 T ggml_mul
0000000000060618 T ggml_mul_inplace
00000000000647d8 T ggml_mul_mat
000000000006491c T ggml_mul_mat_id
00000000000648e0 T ggml_mul_mat_set_prec
000000000005e4a4 T ggml_nbytes
000000000005e590 T ggml_nbytes_pad
000000000005e880 T ggml_n_dims
0000000000061bf8 T ggml_neg
0000000000061c94 T ggml_neg_inplace
000000000005e478 T ggml_nelements
000000000005f7cc T ggml_new_buffer
0000000000070588 T ggml_new_graph
00000000000703e4 T ggml_new_graph_custom
000000000005f240 T ggml_new_tensor
000000000005f664 T ggml_new_tensor_1d
000000000005f6bc T ggml_new_tensor_2d
000000000005f714 T ggml_new_tensor_3d
000000000005f770 T ggml_new_tensor_4d
00000000000643d0 T ggml_norm
0000000000064444 T ggml_norm_inplace
000000000005e490 T ggml_nrows
000000000007340c T ggml_op_can_inplace
000000000005e6f4 T ggml_op_desc
000000000005e6b4 T ggml_op_name
000000000005e6c4 T ggml_op_symbol
000000000008e04c T ggml_opt_alloc
000000000008fd2c T ggml_opt_context_optimizer_type
000000000008c7fc T ggml_opt_dataset_data
000000000008c7a8 T ggml_opt_dataset_free
000000000008c9cc T ggml_opt_dataset_get_batch
000000000008cc60 T ggml_opt_dataset_get_batch_host
000000000008c500 T ggml_opt_dataset_init
000000000008c804 T ggml_opt_dataset_labels
000000000008c7f4 T ggml_opt_dataset_ndata
000000000008c80c T ggml_opt_dataset_shuffle
000000000008ce10 T ggml_opt_default_params
000000000008edf0 T ggml_opt_epoch
000000000008f0b8 T ggml_opt_epoch_callback_progress_bar
000000000008e528 T ggml_opt_eval
000000000008f710 T ggml_opt_fit
000000000008dac8 T ggml_opt_free
000000000008cdfc T ggml_opt_get_constant_optimizer_params
000000000008cddc T ggml_opt_get_default_optimizer_params
000000000008dbdc T ggml_opt_grad_acc
000000000008ce44 T ggml_opt_init
000000000008dbac T ggml_opt_inputs
000000000008dbbc T ggml_opt_labels
000000000008dbc4 T ggml_opt_loss
000000000008dbd4 T ggml_opt_ncorrect
000000000008fd34 T ggml_opt_optimizer_name
000000000008dbb4 T ggml_opt_outputs
000000000008dbcc T ggml_opt_pred
000000000008e000 T ggml_opt_prepare_alloc
000000000008db64 T ggml_opt_reset
000000000008df94 T ggml_opt_result_accuracy
000000000008dc14 T ggml_opt_result_free
000000000008dbe4 T ggml_opt_result_init
000000000008dc98 T ggml_opt_result_loss
000000000008dc8c T ggml_opt_result_ndata
000000000008df10 T ggml_opt_result_pred
000000000008dc70 T ggml_opt_result_reset
000000000008dba0 T ggml_opt_static_graphs
000000000006c858 T ggml_opt_step_adamw
000000000006ca7c T ggml_opt_step_sgd
0000000000064b24 T ggml_out_prod
0000000000068e4c T ggml_pad
0000000000068ffc T ggml_pad_circular
0000000000068f08 T ggml_pad_ext
00000000000690bc T ggml_pad_ext_circular
00000000000691b4 T ggml_pad_reflect_1d
0000000000065de8 T ggml_permute
00000000000687b0 T ggml_pool_1d
00000000000688d0 T ggml_pool_2d
0000000000068a54 T ggml_pool_2d_back
000000000005d4e0 T ggml_print_backtrace
000000000005e3e4 T ggml_print_object
000000000005e400 T ggml_print_objects
00000000000720bc T ggml_quantize_chunk
000000000007205c T ggml_quantize_free
0000000000071fe0 T ggml_quantize_init
00000000000720a8 T ggml_quantize_requires_imatrix
0000000000063798 T ggml_reglu
00000000000639f4 T ggml_reglu_split
00000000000638c4 T ggml_reglu_swapped
0000000000062198 T ggml_relu
0000000000062234 T ggml_relu_inplace
00000000000614e4 T ggml_repeat
00000000000615c8 T ggml_repeat_4d
00000000000616a8 T ggml_repeat_back
000000000005f04c T ggml_reset
00000000000653fc T ggml_reshape
000000000006553c T ggml_reshape_1d
0000000000065698 T ggml_reshape_2d
00000000000657f8 T ggml_reshape_3d
0000000000065960 T ggml_reshape_4d
00000000000644c4 T ggml_rms_norm
00000000000645b8 T ggml_rms_norm_back
0000000000064538 T ggml_rms_norm_inplace
00000000000693d4 T ggml_roll
0000000000066db8 T ggml_rope
00000000000671d0 T ggml_rope_custom
0000000000067204 T ggml_rope_custom_inplace
0000000000067174 T ggml_rope_ext
00000000000672f8 T ggml_rope_ext_back
00000000000671a0 T ggml_rope_ext_inplace
000000000006711c T ggml_rope_inplace
00000000000670d8 T ggml_rope_multi
000000000006732c T ggml_rope_multi_back
00000000000670f8 T ggml_rope_multi_inplace
000000000006723c T ggml_rope_yarn_corr_dims
0000000000063138 T ggml_round
00000000000631d4 T ggml_round_inplace
000000000005e638 T ggml_row_size
000000000006aeb0 T ggml_rwkv_wkv6
000000000006b918 T ggml_rwkv_wkv7
0000000000064c2c T ggml_scale
0000000000064d6c T ggml_scale_bias
0000000000064d74 T ggml_scale_bias_inplace
0000000000064d60 T ggml_scale_inplace
0000000000064d7c T ggml_set
0000000000064eec T ggml_set_1d
0000000000064f00 T ggml_set_1d_inplace
0000000000064f14 T ggml_set_2d
0000000000064f24 T ggml_set_2d_inplace
000000000005d8f4 T ggml_set_abort_callback
0000000000064ee4 T ggml_set_inplace
0000000000071eec T ggml_set_input
0000000000071f4c T ggml_set_loss
000000000005f9d8 T ggml_set_name
000000000005f0c4 T ggml_set_no_alloc
0000000000071efc T ggml_set_output
0000000000071f0c T ggml_set_param
00000000000663b0 T ggml_set_rows
0000000000070a34 T ggml_set_zero
0000000000061a90 T ggml_sgn
0000000000061b2c T ggml_sgn_inplace
00000000000623bc T ggml_sigmoid
0000000000062458 T ggml_sigmoid_inplace
000000000006295c T ggml_silu
0000000000062b84 T ggml_silu_back
00000000000629f8 T ggml_silu_inplace
0000000000060dc0 T ggml_sin
0000000000060e00 T ggml_sin_inplace
00000000000668bc T ggml_soft_max
0000000000066c04 T ggml_soft_max_add_sinks
0000000000066bf4 T ggml_soft_max_ext
0000000000066cd8 T ggml_soft_max_ext_back
0000000000066d30 T ggml_soft_max_ext_back_inplace
0000000000066bfc T ggml_soft_max_ext_inplace
0000000000066be0 T ggml_soft_max_inplace
0000000000060c58 T ggml_softplus
0000000000060cf4 T ggml_softplus_inplace
000000000006cbec T ggml_solve_tri
0000000000060778 T ggml_sqr
00000000000607b8 T ggml_sqr_inplace
0000000000060828 T ggml_sqrt
0000000000060868 T ggml_sqrt_inplace
0000000000069fc4 T ggml_ssm_conv
000000000006d9e8 T ggml_ssm_conv_tree
000000000006a110 T ggml_ssm_scan
000000000005dc4c T ggml_status_to_string
0000000000061d60 T ggml_step
0000000000061dfc T ggml_step_inplace
0000000000060370 T ggml_sub
00000000000604c0 T ggml_sub_inplace
0000000000060f20 T ggml_sum
0000000000060f90 T ggml_sum_rows
0000000000063c68 T ggml_swiglu
00000000000643a0 T ggml_swiglu_oai
0000000000063ec4 T ggml_swiglu_split
0000000000063d94 T ggml_swiglu_swapped
00000000000734b8 T ggml_tallocr_alloc
000000000007345c T ggml_tallocr_new
0000000000061ec8 T ggml_tanh
0000000000061f64 T ggml_tanh_inplace
000000000005e90c T ggml_tensor_overhead
00000000000729b8 T ggml_threadpool_params_default
000000000007295c T ggml_threadpool_params_init
0000000000072a14 T ggml_threadpool_params_match
000000000005e2d0 T ggml_time_init
000000000005e2d4 T ggml_time_ms
000000000006954c T ggml_timestep_embedding
000000000005e348 T ggml_time_us
0000000000069a28 T ggml_top_k
00000000000612d0 T ggml_topk_ext
00000000000660a0 T ggml_transpose
00000000000695d4 T ggml_tri
00000000000632a0 T ggml_trunc
000000000006333c T ggml_trunc_inplace
000000000006dba4 T ggml_turbo_wht
000000000005e684 T ggml_type_name
000000000005e578 T ggml_type_size
000000000005e65c T ggml_type_sizef
0000000000060a24 T ggml_unary
0000000000060b8c T ggml_unary_inplace
000000000005e6d4 T ggml_unary_op_name
000000000005f974 T ggml_unravel_index
0000000000068b0c T ggml_upscale
0000000000068c44 T ggml_upscale_ext
000000000005f0a0 T ggml_used_mem
00000000000c0bfc T ggml_validate_row_data
000000000005e2b8 T ggml_version
0000000000065acc T ggml_view_1d
0000000000065b7c T ggml_view_2d
0000000000065c44 T ggml_view_3d
0000000000065d18 T ggml_view_4d
000000000005fab4 T ggml_view_tensor
000000000006a804 T ggml_win_part
000000000006a958 T ggml_win_unpart
0000000000062ac4 T ggml_xielu
00000000000cd9b4 T gguf_add_tensor
00000000000c86ec T gguf_find_key
00000000000ca4cc T gguf_find_tensor
00000000000c6230 T gguf_free
00000000000c8a7c T gguf_get_alignment
00000000000c8c04 T gguf_get_arr_data
00000000000c8d38 T gguf_get_arr_n
00000000000c8c90 T gguf_get_arr_str
00000000000c8b7c T gguf_get_arr_type
00000000000c8a84 T gguf_get_data_offset
00000000000c8aa8 T gguf_get_key
00000000000c8b10 T gguf_get_kv_type
00000000000ceaf0 T gguf_get_meta_data
00000000000cea3c T gguf_get_meta_size
00000000000c8a8c T gguf_get_n_kv
00000000000ca4a8 T gguf_get_n_tensors
00000000000ca550 T gguf_get_tensor_name
00000000000ca5b4 T gguf_get_tensor_offset
00000000000ca67c T gguf_get_tensor_size
00000000000ca618 T gguf_get_tensor_type
00000000000ca0f4 T gguf_get_val_bool
00000000000ca3d0 T gguf_get_val_data
00000000000c99c4 T gguf_get_val_f32
00000000000c9f28 T gguf_get_val_f64
00000000000c9510 T gguf_get_val_i16
00000000000c97f8 T gguf_get_val_i32
00000000000c9d5c T gguf_get_val_i64
00000000000c9178 T gguf_get_val_i8
00000000000ca2c0 T gguf_get_val_str
00000000000c9344 T gguf_get_val_u16
00000000000c8778 T gguf_get_val_u32
00000000000c9b90 T gguf_get_val_u64
00000000000c8e6c T gguf_get_val_u8
00000000000c8a74 T gguf_get_version
00000000000c4ab8 T gguf_init_empty
00000000000c8968 T gguf_init_from_file
00000000000c4af4 T gguf_init_from_file_ptr
00000000000ca6dc T gguf_remove_key
00000000000ccaa0 T gguf_set_arr_data
00000000000ccf80 T gguf_set_arr_str
00000000000cd454 T gguf_set_kv
00000000000cddd4 T gguf_set_tensor_data
00000000000cdc50 T gguf_set_tensor_type
00000000000cc450 T gguf_set_val_bool
00000000000cb900 T gguf_set_val_f32
00000000000cc17c T gguf_set_val_f64
00000000000cb058 T gguf_set_val_i16
00000000000cb62c T gguf_set_val_i32
00000000000cbea8 T gguf_set_val_i64
00000000000caab0 T gguf_set_val_i8
00000000000cc724 T gguf_set_val_str
00000000000cad84 T gguf_set_val_u16
00000000000cb32c T gguf_set_val_u32
00000000000cbbd4 T gguf_set_val_u64
00000000000ca7dc T gguf_set_val_u8
00000000000c8a04 T gguf_type_name
00000000000ce988 T gguf_write_to_file
00000000000ce57c T gguf_write_to_file_ptr
0000000000101360 T __gxx_personality_v0
00000000000b4258 T iq2xs_free_impl
00000000000b345c T iq2xs_init_impl
00000000000b82e0 T iq3xs_free_impl
00000000000b78ac T iq3xs_init_impl
000000000003f650 V __llvm_fs_discriminator__
00000000000bca74 T quantize_iq1_m
00000000000bb4cc T quantize_iq1_s
00000000000bf3f0 T quantize_iq2_s
00000000000b5d6c T quantize_iq2_xs
00000000000b4340 T quantize_iq2_xxs
00000000000b9b28 T quantize_iq3_s
00000000000b8364 T quantize_iq3_xxs
00000000000be0a4 T quantize_iq4_nl
00000000000bf154 T quantize_iq4_xs
00000000000aeca8 T quantize_mxfp4
00000000000aece0 T quantize_nvfp4
00000000000aa5c0 T quantize_q1_0
0000000000096464 T quantize_q2_K
00000000000985fc T quantize_q3_K
00000000000aa970 T quantize_q4_0
00000000000ab5c8 T quantize_q4_1
000000000009b800 T quantize_q4_K
00000000000ac894 T quantize_q5_0
00000000000ad684 T quantize_q5_1
000000000009ec94 T quantize_q5_K
00000000000a2734 T quantize_q6_K
00000000000aec54 T quantize_q8_0
00000000000c0bec T quantize_row_iq2_s_ref
00000000000bb4bc T quantize_row_iq3_s_ref
00000000000b9b20 T quantize_row_iq3_xxs_ref
00000000000bf07c T quantize_row_iq4_nl_ref
00000000000bf318 T quantize_row_iq4_xs_ref
0000000000093784 T quantize_row_mxfp4_ref
0000000000093e70 T quantize_row_nvfp4_ref
00000000000908b4 T quantize_row_q1_0_ref
00000000000953e0 T quantize_row_q2_K_ref
0000000000097340 T quantize_row_q3_K_ref
0000000000090a28 T quantize_row_q4_0_ref
0000000000091084 T quantize_row_q4_1_ref
0000000000099ca0 T quantize_row_q4_K_ref
00000000000919e8 T quantize_row_q5_0_ref
000000000009212c T quantize_row_q5_1_ref
000000000009d078 T quantize_row_q5_K_ref
00000000000a06bc T quantize_row_q6_K_ref
0000000000092b54 T quantize_row_q8_0_ref
000000000009310c T quantize_row_q8_1_ref
00000000000b253c T quantize_row_q8_K_ref
00000000000aed18 T quantize_row_tq1_0_ref
00000000000af118 T quantize_row_tq2_0_ref
00000000000c2e84 T quantize_row_turbo2_0_ref
00000000000c3994 T quantize_row_turbo2_tcq_ref
00000000000c3168 T quantize_row_turbo3_0_ref
00000000000c3698 T quantize_row_turbo3_tcq_ref
00000000000c3c88 T quantize_row_turbo4_0_ref
00000000000af2fc T quantize_tq1_0
00000000000af350 T quantize_tq2_0
00000000000c30dc T quantize_turbo2_0
00000000000c3ae8 T quantize_turbo2_tcq
00000000000c360c T quantize_turbo3_0
00000000000c37f0 T quantize_turbo3_tcq
00000000000c4774 T quantize_turbo4_0
00000000000c4a48 T _Z14gguf_type_size9gguf_type
00000000000cde6c T _Z17gguf_write_to_bufPK12gguf_contextRNSt6__ndk16vectorIaNS2_9allocatorIaEEEEb
00000000000c6684 W _Z24gguf_read_emplace_helperIaEbRK11gguf_readerRNSt6__ndk16vectorI7gguf_kvNS3_9allocatorIS5_EEEERKNS3_12basic_stringIcNS3_11char_traitsIcEENS6_IcEEEEbm
00000000000c77d0 W _Z24gguf_read_emplace_helperIbEbRK11gguf_readerRNSt6__ndk16vectorI7gguf_kvNS3_9allocatorIS5_EEEERKNS3_12basic_stringIcNS3_11char_traitsIcEENS6_IcEEEEbm
00000000000c83f0 W _Z24gguf_read_emplace_helperIdEbRK11gguf_readerRNSt6__ndk16vectorI7gguf_kvNS3_9allocatorIS5_EEEERKNS3_12basic_stringIcNS3_11char_traitsIcEENS6_IcEEEEbm
00000000000c74d4 W _Z24gguf_read_emplace_helperIfEbRK11gguf_readerRNSt6__ndk16vectorI7gguf_kvNS3_9allocatorIS5_EEEERKNS3_12basic_stringIcNS3_11char_traitsIcEENS6_IcEEEEbm
00000000000c6424 W _Z24gguf_read_emplace_helperIhEbRK11gguf_readerRNSt6__ndk16vectorI7gguf_kvNS3_9allocatorIS5_EEEERKNS3_12basic_stringIcNS3_11char_traitsIcEENS6_IcEEEEbm
00000000000c71d8 W _Z24gguf_read_emplace_helperIiEbRK11gguf_readerRNSt6__ndk16vectorI7gguf_kvNS3_9allocatorIS5_EEEERKNS3_12basic_stringIcNS3_11char_traitsIcEENS6_IcEEEEbm
00000000000c6edc W _Z24gguf_read_emplace_helperIjEbRK11gguf_readerRNSt6__ndk16vectorI7gguf_kvNS3_9allocatorIS5_EEEERKNS3_12basic_stringIcNS3_11char_traitsIcEENS6_IcEEEEbm
00000000000c80f4 W _Z24gguf_read_emplace_helperIlEbRK11gguf_readerRNSt6__ndk16vectorI7gguf_kvNS3_9allocatorIS5_EEEERKNS3_12basic_stringIcNS3_11char_traitsIcEENS6_IcEEEEbm
00000000000c7df8 W _Z24gguf_read_emplace_helperImEbRK11gguf_readerRNSt6__ndk16vectorI7gguf_kvNS3_9allocatorIS5_EEEERKNS3_12basic_stringIcNS3_11char_traitsIcEENS6_IcEEEEbm
00000000000c7b34 W _Z24gguf_read_emplace_helperINSt6__ndk112basic_stringIcNS0_11char_traitsIcEENS0_9allocatorIcEEEEEbRK11gguf_readerRNS0_6vectorI7gguf_kvNS4_ISB_EEEERKS6_bm
00000000000c6be0 W _Z24gguf_read_emplace_helperIsEbRK11gguf_readerRNSt6__ndk16vectorI7gguf_kvNS3_9allocatorIS5_EEEERKNS3_12basic_stringIcNS3_11char_traitsIcEENS6_IcEEEEbm
00000000000c68e4 W _Z24gguf_read_emplace_helperItEbRK11gguf_readerRNSt6__ndk16vectorI7gguf_kvNS3_9allocatorIS5_EEEERKNS3_12basic_stringIcNS3_11char_traitsIcEENS6_IcEEEEbm
000000000010079c W _ZdaPv
00000000001007ac W _ZdaPvm
0000000000100840 W _ZdaPvmSt11align_val_t
00000000001007a4 W _ZdaPvRKSt9nothrow_t
0000000000100830 W _ZdaPvSt11align_val_t
0000000000100838 W _ZdaPvSt11align_val_tRKSt9nothrow_t
0000000000100784 W _ZdlPv
0000000000100794 W _ZdlPvm
0000000000100824 W _ZdlPvmSt11align_val_t
000000000010078c W _ZdlPvRKSt9nothrow_t
0000000000100814 W _ZdlPvSt11align_val_t
000000000010081c W _ZdlPvSt11align_val_tRKSt9nothrow_t
00000000000ceda0 W _ZN15gguf_writer_buf17write_tensor_dataERK16gguf_tensor_infomm
00000000000cec70 W _ZN15gguf_writer_buf5writeEa
00000000000ced58 W _ZN15gguf_writer_buf5writeERKNSt6__ndk16vectorIaNS0_9allocatorIaEEEE
00000000000d9d6c W _ZN16gguf_writer_base17write_tensor_metaERK16gguf_tensor_info
00000000000da128 W _ZN16gguf_writer_base5writeEPKc
00000000000d9a34 W _ZN16gguf_writer_base5writeERK7gguf_kv
00000000000d9fb8 W _ZN16gguf_writer_base5writeERKNSt6__ndk112basic_stringIcNS0_11char_traitsIcEENS0_9allocatorIcEEEE
00000000000cf940 W _ZN16gguf_writer_file17write_tensor_dataERK16gguf_tensor_infomm
00000000000cf3a0 W _ZN16gguf_writer_file5writeEa
00000000000cf668 W _ZN16gguf_writer_file5writeERKNSt6__ndk16vectorIaNS0_9allocatorIaEEEE
0000000000081bfc W _ZN25ggml_backend_meta_context14backend_configD2Ev
00000000000811ec W _ZN25ggml_backend_meta_contextC2EP19ggml_backend_devicePKc
000000000008ae94 W _ZN25ggml_backend_meta_contextD2Ev
000000000007f12c W _ZN32ggml_backend_meta_device_contextC2ENSt6__ndk16vectorIP19ggml_backend_deviceNS0_9allocatorIS3_EEEEPF29ggml_backend_meta_split_statePK11ggml_tensorPvESB_
000000000008bd8c W _ZN32ggml_backend_meta_device_contextC2ERKS_
000000000007f394 W _ZN32ggml_backend_meta_device_contextD2Ev
0000000000082200 W _ZN37ggml_backend_meta_buffer_type_contextC2ENSt6__ndk16vectorIP24ggml_backend_buffer_typeNS0_9allocatorIS3_EEEE
00000000000d683c W _ZN7gguf_kvaSEOS_
00000000000d4748 W _ZN7gguf_kvC2ERKNSt6__ndk112basic_stringIcNS0_11char_traitsIcEENS0_9allocatorIcEEEERKNS0_6vectorIS6_NS4_IS6_EEEE
00000000000d4e60 W _ZN7gguf_kvC2ERKNSt6__ndk112basic_stringIcNS0_11char_traitsIcEENS0_9allocatorIcEEEES8_
00000000000d0c60 W _ZN7gguf_kvC2IaEERKNSt6__ndk112basic_stringIcNS1_11char_traitsIcEENS1_9allocatorIcEEEERKNS1_6vectorIT_NS5_ISB_EEEE
00000000000d0ffc W _ZN7gguf_kvC2IaEERKNSt6__ndk112basic_stringIcNS1_11char_traitsIcEENS1_9allocatorIcEEEET_
00000000000d3cf4 W _ZN7gguf_kvC2IbEERKNSt6__ndk112basic_stringIcNS1_11char_traitsIcEENS1_9allocatorIcEEEERKNS1_6vectorIT_NS5_ISB_EEEE
00000000000d4094 W _ZN7gguf_kvC2IbEERKNSt6__ndk112basic_stringIcNS1_11char_traitsIcEENS1_9allocatorIcEEEET_
00000000000d6370 W _ZN7gguf_kvC2IdEERKNSt6__ndk112basic_stringIcNS1_11char_traitsIcEENS1_9allocatorIcEEEERKNS1_6vectorIT_NS5_ISB_EEEE
00000000000d6710 W _ZN7gguf_kvC2IdEERKNSt6__ndk112basic_stringIcNS1_11char_traitsIcEENS1_9allocatorIcEEEET_
00000000000d3234 W _ZN7gguf_kvC2IfEERKNSt6__ndk112basic_stringIcNS1_11char_traitsIcEENS1_9allocatorIcEEEERKNS1_6vectorIT_NS5_ISB_EEEE
00000000000d35d4 W _ZN7gguf_kvC2IfEERKNSt6__ndk112basic_stringIcNS1_11char_traitsIcEENS1_9allocatorIcEEEET_
00000000000d038c W _ZN7gguf_kvC2IhEERKNSt6__ndk112basic_stringIcNS1_11char_traitsIcEENS1_9allocatorIcEEEERKNS1_6vectorIT_NS5_ISB_EEEE
00000000000d079c W _ZN7gguf_kvC2IhEERKNSt6__ndk112basic_stringIcNS1_11char_traitsIcEENS1_9allocatorIcEEEET_
00000000000d2a2c W _ZN7gguf_kvC2IiEERKNSt6__ndk112basic_stringIcNS1_11char_traitsIcEENS1_9allocatorIcEEEERKNS1_6vectorIT_NS5_ISB_EEEE
00000000000d2dcc W _ZN7gguf_kvC2IiEERKNSt6__ndk112basic_stringIcNS1_11char_traitsIcEENS1_9allocatorIcEEEET_
00000000000d2354 W _ZN7gguf_kvC2IjEERKNSt6__ndk112basic_stringIcNS1_11char_traitsIcEENS1_9allocatorIcEEEERKNS1_6vectorIT_NS5_ISB_EEEE
00000000000d26f4 W _ZN7gguf_kvC2IjEERKNSt6__ndk112basic_stringIcNS1_11char_traitsIcEENS1_9allocatorIcEEEET_
00000000000d5b54 W _ZN7gguf_kvC2IlEERKNSt6__ndk112basic_stringIcNS1_11char_traitsIcEENS1_9allocatorIcEEEERKNS1_6vectorIT_NS5_ISB_EEEE
00000000000d5ef4 W _ZN7gguf_kvC2IlEERKNSt6__ndk112basic_stringIcNS1_11char_traitsIcEENS1_9allocatorIcEEEET_
00000000000d547c W _ZN7gguf_kvC2ImEERKNSt6__ndk112basic_stringIcNS1_11char_traitsIcEENS1_9allocatorIcEEEERKNS1_6vectorIT_NS5_ISB_EEEE
00000000000d581c W _ZN7gguf_kvC2ImEERKNSt6__ndk112basic_stringIcNS1_11char_traitsIcEENS1_9allocatorIcEEEET_
00000000000d1c7c W _ZN7gguf_kvC2IsEERKNSt6__ndk112basic_stringIcNS1_11char_traitsIcEENS1_9allocatorIcEEEERKNS1_6vectorIT_NS5_ISB_EEEE
00000000000d201c W _ZN7gguf_kvC2IsEERKNSt6__ndk112basic_stringIcNS1_11char_traitsIcEENS1_9allocatorIcEEEET_
00000000000d146c W _ZN7gguf_kvC2ItEERKNSt6__ndk112basic_stringIcNS1_11char_traitsIcEENS1_9allocatorIcEEEERKNS1_6vectorIT_NS5_ISB_EEEE
00000000000d180c W _ZN7gguf_kvC2ItEERKNSt6__ndk112basic_stringIcNS1_11char_traitsIcEENS1_9allocatorIcEEEET_
0000000000106708 W _Znam
0000000000100754 W _ZnamRKSt9nothrow_t
00000000001067a0 W _ZnamSt11align_val_t
00000000001007e4 W _ZnamSt11align_val_tRKSt9nothrow_t
00000000000c62c0 W _ZNK11gguf_reader4readERNSt6__ndk112basic_stringIcNS0_11char_traitsIcEENS0_9allocatorIcEEEE
00000000000d08a8 W _ZNK11gguf_reader4readIaEEbRNSt6__ndk16vectorIT_NS1_9allocatorIS3_EEEEm
00000000000cffd4 W _ZNK11gguf_reader4readIhEEbRNSt6__ndk16vectorIT_NS1_9allocatorIS3_EEEEm
00000000000d41a8 W _ZNK11gguf_reader4readINSt6__ndk112basic_stringIcNS1_11char_traitsIcEENS1_9allocatorIcEEEEEEbRNS1_6vectorIT_NS5_IS9_EEEEm
00000000000c8f1c W _ZNK7gguf_kv6get_neEv
00000000000c9228 W _ZNK7gguf_kv7get_valIaEERKT_m
00000000000ca1a4 W _ZNK7gguf_kv7get_valIbEERKT_m
00000000000c9fd8 W _ZNK7gguf_kv7get_valIdEERKT_m
00000000000c9a74 W _ZNK7gguf_kv7get_valIfEERKT_m
00000000000c9060 W _ZNK7gguf_kv7get_valIhEERKT_m
00000000000c98a8 W _ZNK7gguf_kv7get_valIiEERKT_m
00000000000c96dc W _ZNK7gguf_kv7get_valIjEERKT_m
00000000000c9e0c W _ZNK7gguf_kv7get_valIlEERKT_m
00000000000c9c40 W _ZNK7gguf_kv7get_valImEERKT_m
00000000000c95c0 W _ZNK7gguf_kv7get_valIsEERKT_m
00000000000c93f4 W _ZNK7gguf_kv7get_valItEERKT_m
00000000000e8170 T _ZNKSt10bad_typeid4whatEv
00000000000e63ec T _ZNKSt11logic_error4whatEv
00000000000e62a4 T _ZNKSt13bad_exception4whatEv
00000000000e6480 T _ZNKSt13runtime_error4whatEv
00000000000e588c T _ZNKSt16nested_exception14rethrow_nestedEv
00000000000e6354 T _ZNKSt20bad_array_new_length4whatEv
00000000000e36f0 T _ZNKSt6__ndk110error_code7messageEv
00000000000e5934 T _ZNKSt6__ndk112bad_weak_ptr4whatEv
00000000000dbb08 W _ZNKSt6__ndk112basic_stringIcNS_11char_traitsIcEENS_9allocatorIcEEE12find_last_ofEPKcmm
00000000000db2d8 W _ZNKSt6__ndk112basic_stringIcNS_11char_traitsIcEENS_9allocatorIcEEE13find_first_ofEPKcmm
00000000000dac94 W _ZNKSt6__ndk112basic_stringIcNS_11char_traitsIcEENS_9allocatorIcEEE16find_last_not_ofEPKcmm
00000000000dad38 W _ZNKSt6__ndk112basic_stringIcNS_11char_traitsIcEENS_9allocatorIcEEE17find_first_not_ofEPKcmm
00000000000db178 W _ZNKSt6__ndk112basic_stringIcNS_11char_traitsIcEENS_9allocatorIcEEE2atEm
00000000000db870 W _ZNKSt6__ndk112basic_stringIcNS_11char_traitsIcEENS_9allocatorIcEEE4copyEPcmm
00000000000db9b4 W _ZNKSt6__ndk112basic_stringIcNS_11char_traitsIcEENS_9allocatorIcEEE4findEcm
00000000000dc56c W _ZNKSt6__ndk112basic_stringIcNS_11char_traitsIcEENS_9allocatorIcEEE4findEPKcmm
00000000000dbf60 W _ZNKSt6__ndk112basic_stringIcNS_11char_traitsIcEENS_9allocatorIcEEE5rfindEcm
00000000000daa80 W _ZNKSt6__ndk112basic_stringIcNS_11char_traitsIcEENS_9allocatorIcEEE5rfindEPKcmm
00000000000dc430 W _ZNKSt6__ndk112basic_stringIcNS_11char_traitsIcEENS_9allocatorIcEEE7compareEmmPKc
00000000000dc3a0 W _ZNKSt6__ndk112basic_stringIcNS_11char_traitsIcEENS_9allocatorIcEEE7compareEmmPKcm
00000000000dc638 W _ZNKSt6__ndk112basic_stringIcNS_11char_traitsIcEENS_9allocatorIcEEE7compareEmmRKS5_mm
00000000000dc314 W _ZNKSt6__ndk112basic_stringIcNS_11char_traitsIcEENS_9allocatorIcEEE7compareEPKc
00000000000de084 W _ZNKSt6__ndk112basic_stringIwNS_11char_traitsIwEENS_9allocatorIwEEE12find_last_ofEPKwmm
00000000000dd7a0 W _ZNKSt6__ndk112basic_stringIwNS_11char_traitsIwEENS_9allocatorIwEEE13find_first_ofEPKwmm
00000000000dd2b0 W _ZNKSt6__ndk112basic_stringIwNS_11char_traitsIwEENS_9allocatorIwEEE16find_last_not_ofEPKwmm
00000000000dd364 W _ZNKSt6__ndk112basic_stringIwNS_11char_traitsIwEENS_9allocatorIwEEE17find_first_not_ofEPKwmm
00000000000dd634 W _ZNKSt6__ndk112basic_stringIwNS_11char_traitsIwEENS_9allocatorIwEEE2atEm
00000000000ddd84 W _ZNKSt6__ndk112basic_stringIwNS_11char_traitsIwEENS_9allocatorIwEEE4copyEPwmm
00000000000dea30 W _ZNKSt6__ndk112basic_stringIwNS_11char_traitsIwEENS_9allocatorIwEEE4findEPKwmm
00000000000ddee0 W _ZNKSt6__ndk112basic_stringIwNS_11char_traitsIwEENS_9allocatorIwEEE4findEwm
00000000000dcfd4 W _ZNKSt6__ndk112basic_stringIwNS_11char_traitsIwEENS_9allocatorIwEEE5rfindEPKwmm
00000000000de42c W _ZNKSt6__ndk112basic_stringIwNS_11char_traitsIwEENS_9allocatorIwEEE5rfindEwm
00000000000de8e8 W _ZNKSt6__ndk112basic_stringIwNS_11char_traitsIwEENS_9allocatorIwEEE7compareEmmPKw
00000000000de858 W _ZNKSt6__ndk112basic_stringIwNS_11char_traitsIwEENS_9allocatorIwEEE7compareEmmPKwm
00000000000deb18 W _ZNKSt6__ndk112basic_stringIwNS_11char_traitsIwEENS_9allocatorIwEEE7compareEmmRKS5_mm
00000000000de7bc W _ZNKSt6__ndk112basic_stringIwNS_11char_traitsIwEENS_9allocatorIwEEE7compareEPKw
00000000000e4100 T _ZNKSt6__ndk114error_category10equivalentEiRKNS_15error_conditionE
00000000000e4144 T _ZNKSt6__ndk114error_category10equivalentERKNS_10error_codeEi
00000000000e40ec T _ZNKSt6__ndk114error_category23default_error_conditionEi
00000000000e36d4 T _ZNKSt6__ndk115error_condition7messageEv
00000000000e5b4c T _ZNKSt6__ndk119__shared_weak_count13__get_deleterERKSt9type_info
00000000000df270 T _ZNKSt6__ndk121__basic_string_commonILb1EE20__throw_length_errorEv
00000000000df288 T _ZNKSt6__ndk121__basic_string_commonILb1EE20__throw_out_of_rangeEv
00000000000e8110 T _ZNKSt8bad_cast4whatEv
00000000000e62fc T _ZNKSt9bad_alloc4whatEv
00000000000e6264 T _ZNKSt9exception4whatEv
00000000000e8120 T _ZNSt10bad_typeidC1Ev
00000000000e8120 T _ZNSt10bad_typeidC2Ev
00000000000e8140 T _ZNSt10bad_typeidD0Ev
00000000000e8138 T _ZNSt10bad_typeidD1Ev
00000000000e8138 T _ZNSt10bad_typeidD2Ev
00000000000da4e8 T _ZNSt11logic_erroraSERKS_
00000000000da428 T _ZNSt11logic_errorC1EPKc
00000000000da394 T _ZNSt11logic_errorC1ERKNSt6__ndk112basic_stringIcNS0_11char_traitsIcEENS0_9allocatorIcEEEE
00000000000da4b0 T _ZNSt11logic_errorC1ERKS_
00000000000da428 T _ZNSt11logic_errorC2EPKc
00000000000da394 T _ZNSt11logic_errorC2ERKNSt6__ndk112basic_stringIcNS0_11char_traitsIcEENS0_9allocatorIcEEEE
00000000000da4b0 T _ZNSt11logic_errorC2ERKS_
00000000000e63bc T _ZNSt11logic_errorD0Ev
00000000000e6364 T _ZNSt11logic_errorD1Ev
00000000000e6364 T _ZNSt11logic_errorD2Ev
00000000000e654c T _ZNSt11range_errorD0Ev
00000000000e63f8 T _ZNSt11range_errorD1Ev
00000000000e63f8 T _ZNSt11range_errorD2Ev
00000000000e648c T _ZNSt12domain_errorD0Ev
00000000000e6364 T _ZNSt12domain_errorD1Ev
00000000000e6364 T _ZNSt12domain_errorD2Ev
00000000000e64ec T _ZNSt12length_errorD0Ev
00000000000e6364 T _ZNSt12length_errorD1Ev
00000000000e6364 T _ZNSt12length_errorD2Ev
00000000000e651c T _ZNSt12out_of_rangeD0Ev
00000000000e6364 T _ZNSt12out_of_rangeD1Ev
00000000000e6364 T _ZNSt12out_of_rangeD2Ev
00000000000e6274 T _ZNSt13bad_exceptionD0Ev
00000000000e622c T _ZNSt13bad_exceptionD1Ev
00000000000e622c T _ZNSt13bad_exceptionD2Ev
00000000000e57d0 T _ZNSt13exception_ptr31__from_native_exception_pointerEPv
00000000000e5780 T _ZNSt13exception_ptraSERKS_
00000000000e5768 T _ZNSt13exception_ptrC1ERKS_
00000000000e5768 T _ZNSt13exception_ptrC2ERKS_
00000000000e575c T _ZNSt13exception_ptrD1Ev
00000000000e575c T _ZNSt13exception_ptrD2Ev
00000000000da698 T _ZNSt13runtime_erroraSERKS_
00000000000da5d8 T _ZNSt13runtime_errorC1EPKc
00000000000da544 T _ZNSt13runtime_errorC1ERKNSt6__ndk112basic_stringIcNS0_11char_traitsIcEENS0_9allocatorIcEEEE
00000000000da660 T _ZNSt13runtime_errorC1ERKS_
00000000000da5d8 T _ZNSt13runtime_errorC2EPKc
00000000000da544 T _ZNSt13runtime_errorC2ERKNSt6__ndk112basic_stringIcNS0_11char_traitsIcEENS0_9allocatorIcEEEE
00000000000da660 T _ZNSt13runtime_errorC2ERKS_
00000000000e6450 T _ZNSt13runtime_errorD0Ev
00000000000e63f8 T _ZNSt13runtime_errorD1Ev
00000000000e63f8 T _ZNSt13runtime_errorD2Ev
00000000000e657c T _ZNSt14overflow_errorD0Ev
00000000000e63f8 T _ZNSt14overflow_errorD1Ev
00000000000e63f8 T _ZNSt14overflow_errorD2Ev
00000000000e65ac T _ZNSt15underflow_errorD0Ev
00000000000e63f8 T _ZNSt15underflow_errorD1Ev
00000000000e63f8 T _ZNSt15underflow_errorD2Ev
00000000000e64bc T _ZNSt16invalid_argumentD0Ev
00000000000e6364 T _ZNSt16invalid_argumentD1Ev
00000000000e6364 T _ZNSt16invalid_argumentD2Ev
00000000000e57dc T _ZNSt16nested_exceptionC1Ev
00000000000e57dc T _ZNSt16nested_exceptionC2Ev
00000000000e585c T _ZNSt16nested_exceptionD0Ev
00000000000e5844 T _ZNSt16nested_exceptionD1Ev
00000000000e5844 T _ZNSt16nested_exceptionD2Ev
00000000000e630c T _ZNSt20bad_array_new_lengthC1Ev
00000000000e630c T _ZNSt20bad_array_new_lengthC2Ev
00000000000e6324 T _ZNSt20bad_array_new_lengthD0Ev
00000000000e622c T _ZNSt20bad_array_new_lengthD1Ev
00000000000e622c T _ZNSt20bad_array_new_lengthD2Ev
00000000000e25c0 T _ZNSt6__ndk110to_wstringEd
00000000000e2704 T _ZNSt6__ndk110to_wstringEe
00000000000e2478 T _ZNSt6__ndk110to_wstringEf
00000000000e1228 T _ZNSt6__ndk110to_wstringEi
00000000000e1974 T _ZNSt6__ndk110to_wstringEj
00000000000e13f4 T _ZNSt6__ndk110to_wstringEl
00000000000e1adc T _ZNSt6__ndk110to_wstringEm
00000000000e16b4 T _ZNSt6__ndk110to_wstringEx
00000000000e1d48 T _ZNSt6__ndk110to_wstringEy
00000000000e4428 T _ZNSt6__ndk111this_thread9sleep_forERKNS_6chrono8durationIxNS_5ratioILl1ELl1000000000EEEEE
00000000000e304c T _ZNSt6__ndk111timed_mutex4lockEv
00000000000e3164 T _ZNSt6__ndk111timed_mutex6unlockEv
00000000000e310c T _ZNSt6__ndk111timed_mutex8try_lockEv
00000000000e2fdc T _ZNSt6__ndk111timed_mutexC1Ev
00000000000e2fdc T _ZNSt6__ndk111timed_mutexC2Ev
00000000000e2ff8 T _ZNSt6__ndk111timed_mutexD1Ev
00000000000e2ff8 T _ZNSt6__ndk111timed_mutexD2Ev
00000000000e5904 T _ZNSt6__ndk112bad_weak_ptrD0Ev
00000000000e58fc T _ZNSt6__ndk112bad_weak_ptrD1Ev
00000000000e58fc T _ZNSt6__ndk112bad_weak_ptrD2Ev
00000000000da934 W _ZNSt6__ndk112basic_stringIcNS_11char_traitsIcEENS_9allocatorIcEEE21__grow_by_and_replaceEmmmmmmPKc
00000000000dc4e4 W _ZNSt6__ndk112basic_stringIcNS_11char_traitsIcEENS_9allocatorIcEEE2atEm
000000000003f658 V _ZNSt6__ndk112basic_stringIcNS_11char_traitsIcEENS_9allocatorIcEEE4nposE
00000000000dc100 W _ZNSt6__ndk112basic_stringIcNS_11char_traitsIcEENS_9allocatorIcEEE5eraseEmm
00000000000dbde4 W _ZNSt6__ndk112basic_stringIcNS_11char_traitsIcEENS_9allocatorIcEEE6appendEmc
00000000000dc90c W _ZNSt6__ndk112basic_stringIcNS_11char_traitsIcEENS_9allocatorIcEEE6appendEPKc
00000000000db74c W _ZNSt6__ndk112basic_stringIcNS_11char_traitsIcEENS_9allocatorIcEEE6appendEPKcm
00000000000dc20c W _ZNSt6__ndk112basic_stringIcNS_11char_traitsIcEENS_9allocatorIcEEE6appendERKS5_mm
00000000000dbfb0 W _ZNSt6__ndk112basic_stringIcNS_11char_traitsIcEENS_9allocatorIcEEE6assignEmc
00000000000dc528 W _ZNSt6__ndk112basic_stringIcNS_11char_traitsIcEENS_9allocatorIcEEE6assignEPKc
00000000000db488 W _ZNSt6__ndk112basic_stringIcNS_11char_traitsIcEENS_9allocatorIcEEE6assignEPKcm
00000000000db820 W _ZNSt6__ndk112basic_stringIcNS_11char_traitsIcEENS_9allocatorIcEEE6assignERKS5_mm
00000000000dba24 W _ZNSt6__ndk112basic_stringIcNS_11char_traitsIcEENS_9allocatorIcEEE6__initEmc
00000000000db0e0 W _ZNSt6__ndk112basic_stringIcNS_11char_traitsIcEENS_9allocatorIcEEE6__initEPKcm
00000000000dab4c W _ZNSt6__ndk112basic_stringIcNS_11char_traitsIcEENS_9allocatorIcEEE6__initEPKcmm
00000000000dadc4 W _ZNSt6__ndk112basic_stringIcNS_11char_traitsIcEENS_9allocatorIcEEE6insertEmmc
00000000000dbabc W _ZNSt6__ndk112basic_stringIcNS_11char_traitsIcEENS_9allocatorIcEEE6insertEmPKc
00000000000db1bc W _ZNSt6__ndk112basic_stringIcNS_11char_traitsIcEENS_9allocatorIcEEE6insertEmPKcm
00000000000dcc28 W _ZNSt6__ndk112basic_stringIcNS_11char_traitsIcEENS_9allocatorIcEEE6insertEmRKS5_mm
00000000000dca40 W _ZNSt6__ndk112basic_stringIcNS_11char_traitsIcEENS_9allocatorIcEEE6insertENS_11__wrap_iterIPKcEEc
00000000000dcbdc W _ZNSt6__ndk112basic_stringIcNS_11char_traitsIcEENS_9allocatorIcEEE6resizeEmc
00000000000db354 W _ZNSt6__ndk112basic_stringIcNS_11char_traitsIcEENS_9allocatorIcEEE7replaceEmmmc
00000000000dac14 W _ZNSt6__ndk112basic_stringIcNS_11char_traitsIcEENS_9allocatorIcEEE7replaceEmmPKc
00000000000da748 W _ZNSt6__ndk112basic_stringIcNS_11char_traitsIcEENS_9allocatorIcEEE7replaceEmmPKcm
00000000000dc9f0 W _ZNSt6__ndk112basic_stringIcNS_11char_traitsIcEENS_9allocatorIcEEE7replaceEmmRKS5_mm
00000000000db5d4 W _ZNSt6__ndk112basic_stringIcNS_11char_traitsIcEENS_9allocatorIcEEE7reserveEm
00000000000dbb90 W _ZNSt6__ndk112basic_stringIcNS_11char_traitsIcEENS_9allocatorIcEEE9__grow_byEmmmmmm
00000000000dbcb4 W _ZNSt6__ndk112basic_stringIcNS_11char_traitsIcEENS_9allocatorIcEEE9push_backEc
00000000000db0ac W _ZNSt6__ndk112basic_stringIcNS_11char_traitsIcEENS_9allocatorIcEEEaSEc
00000000000dc6e8 W _ZNSt6__ndk112basic_stringIcNS_11char_traitsIcEENS_9allocatorIcEEEaSERKS5_
00000000000dabe8 W _ZNSt6__ndk112basic_stringIcNS_11char_traitsIcEENS_9allocatorIcEEEC1ERKS5_
00000000000db8e0 W _ZNSt6__ndk112basic_stringIcNS_11char_traitsIcEENS_9allocatorIcEEEC1ERKS5_mmRKS4_
00000000000dac68 W _ZNSt6__ndk112basic_stringIcNS_11char_traitsIcEENS_9allocatorIcEEEC1ERKS5_RKS4_
00000000000dabe8 W _ZNSt6__ndk112basic_stringIcNS_11char_traitsIcEENS_9allocatorIcEEEC2ERKS5_
00000000000db8e0 W _ZNSt6__ndk112basic_stringIcNS_11char_traitsIcEENS_9allocatorIcEEEC2ERKS5_mmRKS4_
00000000000dac68 W _ZNSt6__ndk112basic_stringIcNS_11char_traitsIcEENS_9allocatorIcEEEC2ERKS5_RKS4_
00000000000dad14 W _ZNSt6__ndk112basic_stringIcNS_11char_traitsIcEENS_9allocatorIcEEED1Ev
00000000000dad14 W _ZNSt6__ndk112basic_stringIcNS_11char_traitsIcEENS_9allocatorIcEEED2Ev
00000000000dce68 W _ZNSt6__ndk112basic_stringIwNS_11char_traitsIwEENS_9allocatorIwEEE21__grow_by_and_replaceEmmmmmmPKw
00000000000de9a4 W _ZNSt6__ndk112basic_stringIwNS_11char_traitsIwEENS_9allocatorIwEEE2atEm
000000000003f660 V _ZNSt6__ndk112basic_stringIwNS_11char_traitsIwEENS_9allocatorIwEEE4nposE
00000000000de59c W _ZNSt6__ndk112basic_stringIwNS_11char_traitsIwEENS_9allocatorIwEEE5eraseEmm
00000000000de304 W _ZNSt6__ndk112basic_stringIwNS_11char_traitsIwEENS_9allocatorIwEEE6appendEmw
00000000000ded88 W _ZNSt6__ndk112basic_stringIwNS_11char_traitsIwEENS_9allocatorIwEEE6appendEPKw
00000000000ddc58 W _ZNSt6__ndk112basic_stringIwNS_11char_traitsIwEENS_9allocatorIwEEE6appendEPKwm
00000000000de6b0 W _ZNSt6__ndk112basic_stringIwNS_11char_traitsIwEENS_9allocatorIwEEE6appendERKS5_mm
00000000000de484 W _ZNSt6__ndk112basic_stringIwNS_11char_traitsIwEENS_9allocatorIwEEE6assignEmw
00000000000de9ec W _ZNSt6__ndk112basic_stringIwNS_11char_traitsIwEENS_9allocatorIwEEE6assignEPKw
00000000000dd9b0 W _ZNSt6__ndk112basic_stringIwNS_11char_traitsIwEENS_9allocatorIwEEE6assignEPKwm
00000000000ddd30 W _ZNSt6__ndk112basic_stringIwNS_11char_traitsIwEENS_9allocatorIwEEE6assignERKS5_mm
00000000000ddf54 W _ZNSt6__ndk112basic_stringIwNS_11char_traitsIwEENS_9allocatorIwEEE6__initEmw
00000000000dd58c W _ZNSt6__ndk112basic_stringIwNS_11char_traitsIwEENS_9allocatorIwEEE6__initEPKwm
00000000000dd0ac W _ZNSt6__ndk112basic_stringIwNS_11char_traitsIwEENS_9allocatorIwEEE6__initEPKwmm
00000000000dd400 W _ZNSt6__ndk112basic_stringIwNS_11char_traitsIwEENS_9allocatorIwEEE6insertEmmw
00000000000de038 W _ZNSt6__ndk112basic_stringIwNS_11char_traitsIwEENS_9allocatorIwEEE6insertEmPKw
00000000000dd67c W _ZNSt6__ndk112basic_stringIwNS_11char_traitsIwEENS_9allocatorIwEEE6insertEmPKwm
00000000000df120 W _ZNSt6__ndk112basic_stringIwNS_11char_traitsIwEENS_9allocatorIwEEE6insertEmRKS5_mm
00000000000deec0 W _ZNSt6__ndk112basic_stringIwNS_11char_traitsIwEENS_9allocatorIwEEE6insertENS_11__wrap_iterIPKwEEw
00000000000defc4 W _ZNSt6__ndk112basic_stringIwNS_11char_traitsIwEENS_9allocatorIwEEE6resizeEmw
00000000000dd828 W _ZNSt6__ndk112basic_stringIwNS_11char_traitsIwEENS_9allocatorIwEEE7replaceEmmmw
00000000000dd230 W _ZNSt6__ndk112basic_stringIwNS_11char_traitsIwEENS_9allocatorIwEEE7replaceEmmPKw
00000000000dcc78 W _ZNSt6__ndk112basic_stringIwNS_11char_traitsIwEENS_9allocatorIwEEE7replaceEmmPKwm
00000000000dee70 W _ZNSt6__ndk112basic_stringIwNS_11char_traitsIwEENS_9allocatorIwEEE7replaceEmmRKS5_mm
00000000000dda80 W _ZNSt6__ndk112basic_stringIwNS_11char_traitsIwEENS_9allocatorIwEEE7reserveEm
00000000000de120 W _ZNSt6__ndk112basic_stringIwNS_11char_traitsIwEENS_9allocatorIwEEE9__grow_byEmmmmmm
00000000000de25c W _ZNSt6__ndk112basic_stringIwNS_11char_traitsIwEENS_9allocatorIwEEE9push_backEw
00000000000debd0 W _ZNSt6__ndk112basic_stringIwNS_11char_traitsIwEENS_9allocatorIwEEEaSERKS5_
00000000000dd558 W _ZNSt6__ndk112basic_stringIwNS_11char_traitsIwEENS_9allocatorIwEEEaSEw
00000000000dd170 W _ZNSt6__ndk112basic_stringIwNS_11char_traitsIwEENS_9allocatorIwEEEC1ERKS5_
00000000000dddf8 W _ZNSt6__ndk112basic_stringIwNS_11char_traitsIwEENS_9allocatorIwEEEC1ERKS5_mmRKS4_
00000000000dd284 W _ZNSt6__ndk112basic_stringIwNS_11char_traitsIwEENS_9allocatorIwEEEC1ERKS5_RKS4_
00000000000dd170 W _ZNSt6__ndk112basic_stringIwNS_11char_traitsIwEENS_9allocatorIwEEEC2ERKS5_
00000000000dddf8 W _ZNSt6__ndk112basic_stringIwNS_11char_traitsIwEENS_9allocatorIwEEEC2ERKS5_mmRKS4_
00000000000dd284 W _ZNSt6__ndk112basic_stringIwNS_11char_traitsIwEENS_9allocatorIwEEEC2ERKS5_RKS4_
00000000000dd340 W _ZNSt6__ndk112basic_stringIwNS_11char_traitsIwEENS_9allocatorIwEEED1Ev
00000000000dd340 W _ZNSt6__ndk112basic_stringIwNS_11char_traitsIwEENS_9allocatorIwEEED2Ev
00000000000e4b0c T _ZNSt6__ndk112future_errorC1ENS_10error_codeE
00000000000e4b0c T _ZNSt6__ndk112future_errorC2ENS_10error_codeE
00000000000e4bb0 T _ZNSt6__ndk112future_errorD0Ev
00000000000e4ba8 T _ZNSt6__ndk112future_errorD1Ev
00000000000e4ba8 T _ZNSt6__ndk112future_errorD2Ev
00000000000e5ba0 T _ZNSt6__ndk112__get_sp_mutEPKv
00000000000e3e00 T _ZNSt6__ndk112system_errorC1EiRKNS_14error_categoryE
00000000000e3c70 T _ZNSt6__ndk112system_errorC1EiRKNS_14error_categoryEPKc
00000000000e3b44 T _ZNSt6__ndk112system_errorC1EiRKNS_14error_categoryERKNS_12basic_stringIcNS_11char_traitsIcEENS_9allocatorIcEEEE
00000000000e3a84 T _ZNSt6__ndk112system_errorC1ENS_10error_codeE
00000000000e3908 T _ZNSt6__ndk112system_errorC1ENS_10error_codeEPKc
00000000000e370c T _ZNSt6__ndk112system_errorC1ENS_10error_codeERKNS_12basic_stringIcNS_11char_traitsIcEENS_9allocatorIcEEEE
00000000000e3e00 T _ZNSt6__ndk112system_errorC2EiRKNS_14error_categoryE
00000000000e3c70 T _ZNSt6__ndk112system_errorC2EiRKNS_14error_categoryEPKc
00000000000e3b44 T _ZNSt6__ndk112system_errorC2EiRKNS_14error_categoryERKNS_12basic_stringIcNS_11char_traitsIcEENS_9allocatorIcEEEE
00000000000e3a84 T _ZNSt6__ndk112system_errorC2ENS_10error_codeE
00000000000e3908 T _ZNSt6__ndk112system_errorC2ENS_10error_codeEPKc
00000000000e370c T _ZNSt6__ndk112system_errorC2ENS_10error_codeERKNS_12basic_stringIcNS_11char_traitsIcEENS_9allocatorIcEEEE
00000000000e3ecc T _ZNSt6__ndk112system_errorD0Ev
00000000000e3ec4 T _ZNSt6__ndk112system_errorD1Ev
00000000000e3ec4 T _ZNSt6__ndk112system_errorD2Ev
00000000000e55c4 T _ZNSt6__ndk113shared_futureIvEaSERKS1_
00000000000e5570 T _ZNSt6__ndk113shared_futureIvED1Ev
00000000000e5570 T _ZNSt6__ndk113shared_futureIvED2Ev
00000000000e40c4 T _ZNSt6__ndk114error_categoryC2Ev
00000000000e40e4 T _ZNSt6__ndk114error_categoryD0Ev
00000000000e40dc T _ZNSt6__ndk114error_categoryD1Ev
00000000000e40dc T _ZNSt6__ndk114error_categoryD2Ev
00000000000e595c T _ZNSt6__ndk114__shared_count12__add_sharedEv
00000000000e5980 T _ZNSt6__ndk114__shared_count16__release_sharedEv
00000000000e594c T _ZNSt6__ndk114__shared_countD0Ev
00000000000e5944 T _ZNSt6__ndk114__shared_countD1Ev
00000000000e5944 T _ZNSt6__ndk114__shared_countD2Ev
00000000000e4abc T _ZNSt6__ndk115future_categoryEv
00000000000e2f68 T _ZNSt6__ndk115recursive_mutex4lockEv
00000000000e2f94 T _ZNSt6__ndk115recursive_mutex6unlockEv
00000000000e2fb4 T _ZNSt6__ndk115recursive_mutex8try_lockEv
00000000000e2ea4 T _ZNSt6__ndk115recursive_mutexC1Ev
00000000000e2ea4 T _ZNSt6__ndk115recursive_mutexC2Ev
00000000000e2f48 T _ZNSt6__ndk115recursive_mutexD1Ev
00000000000e2f48 T _ZNSt6__ndk115recursive_mutexD2Ev
00000000000e3684 T _ZNSt6__ndk115system_categoryEv
00000000000e489c T _ZNSt6__ndk115__thread_struct25notify_all_at_thread_exitEPNS_18condition_variableEPNS_5mutexE
00000000000e48a8 T _ZNSt6__ndk115__thread_struct27__make_ready_at_thread_exitEPNS_17__assoc_sub_stateE
00000000000e4818 T _ZNSt6__ndk115__thread_structC1Ev
00000000000e4818 T _ZNSt6__ndk115__thread_structC2Ev
00000000000e4854 T _ZNSt6__ndk115__thread_structD1Ev
00000000000e4854 T _ZNSt6__ndk115__thread_structD2Ev
00000000000e359c T _ZNSt6__ndk116generic_categoryEv
00000000000e5018 T _ZNSt6__ndk117__assoc_sub_state10__sub_waitERNS_11unique_lockINS_5mutexEEE
00000000000e4ee8 T _ZNSt6__ndk117__assoc_sub_state12__make_readyEv
00000000000e4da0 T _ZNSt6__ndk117__assoc_sub_state13set_exceptionESt13exception_ptr
00000000000e4be0 T _ZNSt6__ndk117__assoc_sub_state16__on_zero_sharedEv
00000000000e4d0c T _ZNSt6__ndk117__assoc_sub_state24set_value_at_thread_exitEv
00000000000e4e44 T _ZNSt6__ndk117__assoc_sub_state28set_exception_at_thread_exitESt13exception_ptr
00000000000e4f2c T _ZNSt6__ndk117__assoc_sub_state4copyEv
00000000000e50a8 T _ZNSt6__ndk117__assoc_sub_state4waitEv
00000000000e514c T _ZNSt6__ndk117__assoc_sub_state9__executeEv
00000000000e4bf0 T _ZNSt6__ndk117__assoc_sub_state9set_valueEv
00000000000e41a0 T _ZNSt6__ndk118condition_variable10notify_allEv
00000000000e4180 T _ZNSt6__ndk118condition_variable10notify_oneEv
00000000000e4210 T _ZNSt6__ndk118condition_variable15__do_timed_waitERNS_11unique_lockINS_5mutexEEENS_6chrono10time_pointINS5_12system_clockENS5_8durationIxNS_5ratioILl1ELl1000000000EEEEEEE
00000000000e41c0 T _ZNSt6__ndk118condition_variable4waitERNS_11unique_lockINS_5mutexEEE
00000000000e4160 T _ZNSt6__ndk118condition_variableD1Ev
00000000000e4160 T _ZNSt6__ndk118condition_variableD2Ev
00000000000e59f4 T _ZNSt6__ndk119__shared_weak_count10__add_weakEv
00000000000e59d0 T _ZNSt6__ndk119__shared_weak_count12__add_sharedEv
00000000000e5a94 T _ZNSt6__ndk119__shared_weak_count14__release_weakEv
00000000000e5a18 T _ZNSt6__ndk119__shared_weak_count16__release_sharedEv
00000000000e5aec T _ZNSt6__ndk119__shared_weak_count4lockEv
00000000000e5954 T _ZNSt6__ndk119__shared_weak_countD0Ev
00000000000e5944 T _ZNSt6__ndk119__shared_weak_countD1Ev
00000000000e5944 T _ZNSt6__ndk119__shared_weak_countD2Ev
00000000000e44a8 T _ZNSt6__ndk119__thread_local_dataEv
00000000000e3efc T _ZNSt6__ndk120__throw_system_errorEiPKc
00000000000e3228 T _ZNSt6__ndk121recursive_timed_mutex4lockEv
00000000000e338c T _ZNSt6__ndk121recursive_timed_mutex6unlockEv
00000000000e3304 T _ZNSt6__ndk121recursive_timed_mutex8try_lockEv
00000000000e31b8 T _ZNSt6__ndk121recursive_timed_mutexC1Ev
00000000000e31b8 T _ZNSt6__ndk121recursive_timed_mutexC2Ev
00000000000e31d4 T _ZNSt6__ndk121recursive_timed_mutexD1Ev
00000000000e31d4 T _ZNSt6__ndk121recursive_timed_mutexD2Ev
00000000000da6f4 T _ZNSt6__ndk121__throw_runtime_errorEPKc
00000000000901e8 W _ZNSt6__ndk124uniform_int_distributionIlEclINS_23mersenne_twister_engineImLm32ELm624ELm397ELm31ELm2567483615ELm11ELm4294967295ELm7ELm2636928640ELm15ELm4022730752ELm18ELm1812433253EEEEElRT_RKNS1_10param_typeE
00000000000e42b4 T _ZNSt6__ndk125notify_all_at_thread_exitERNS_18condition_variableENS_11unique_lockINS_5mutexEEE
00000000000dfaf8 T _ZNSt6__ndk14stodERKNS_12basic_stringIcNS_11char_traitsIcEENS_9allocatorIcEEEEPm
00000000000e05f8 T _ZNSt6__ndk14stodERKNS_12basic_stringIwNS_11char_traitsIwEENS_9allocatorIwEEEEPm
00000000000df9b0 T _ZNSt6__ndk14stofERKNS_12basic_stringIcNS_11char_traitsIcEENS_9allocatorIcEEEEPm
00000000000e04a0 T _ZNSt6__ndk14stofERKNS_12basic_stringIwNS_11char_traitsIwEENS_9allocatorIwEEEEPm
00000000000df2f4 T _ZNSt6__ndk14stoiERKNS_12basic_stringIcNS_11char_traitsIcEENS_9allocatorIcEEEEPmi
00000000000dfda4 T _ZNSt6__ndk14stoiERKNS_12basic_stringIwNS_11char_traitsIwEENS_9allocatorIwEEEEPmi
00000000000df450 T _ZNSt6__ndk14stolERKNS_12basic_stringIcNS_11char_traitsIcEENS_9allocatorIcEEEEPmi
00000000000dff08 T _ZNSt6__ndk14stolERKNS_12basic_stringIwNS_11char_traitsIwEENS_9allocatorIwEEEEPmi
00000000000e5bf4 T _ZNSt6__ndk15alignEmmRPvRm
00000000000e2e30 T _ZNSt6__ndk15mutex4lockEv
00000000000e2e84 T _ZNSt6__ndk15mutex6unlockEv
00000000000e2e5c T _ZNSt6__ndk15mutex8try_lockEv
00000000000e2e10 T _ZNSt6__ndk15mutexD1Ev
00000000000e2e10 T _ZNSt6__ndk15mutexD2Ev
00000000000dfc40 T _ZNSt6__ndk15stoldERKNS_12basic_stringIcNS_11char_traitsIcEENS_9allocatorIcEEEEPm
00000000000e0750 T _ZNSt6__ndk15stoldERKNS_12basic_stringIwNS_11char_traitsIwEENS_9allocatorIwEEEEPm
00000000000df6d4 T _ZNSt6__ndk15stollERKNS_12basic_stringIcNS_11char_traitsIcEENS_9allocatorIcEEEEPmi
00000000000e01a4 T _ZNSt6__ndk15stollERKNS_12basic_stringIwNS_11char_traitsIwEENS_9allocatorIwEEEEPmi
00000000000df568 T _ZNSt6__ndk15stoulERKNS_12basic_stringIcNS_11char_traitsIcEENS_9allocatorIcEEEEPmi
00000000000e0028 T _ZNSt6__ndk15stoulERKNS_12basic_stringIwNS_11char_traitsIwEENS_9allocatorIwEEEEPmi
00000000000e5220 T _ZNSt6__ndk16futureIvE3getEv
00000000000e5160 T _ZNSt6__ndk16futureIvEC1EPNS_17__assoc_sub_stateE
00000000000e5160 T _ZNSt6__ndk16futureIvEC2EPNS_17__assoc_sub_stateE
00000000000e51cc T _ZNSt6__ndk16futureIvED1Ev
00000000000e51cc T _ZNSt6__ndk16futureIvED2Ev
00000000000df840 T _ZNSt6__ndk16stoullERKNS_12basic_stringIcNS_11char_traitsIcEENS_9allocatorIcEEEEPmi
00000000000e0320 T _ZNSt6__ndk16stoullERKNS_12basic_stringIwNS_11char_traitsIwEENS_9allocatorIwEEEEPmi
00000000000e43fc T _ZNSt6__ndk16thread20hardware_concurrencyEv
00000000000e4368 T _ZNSt6__ndk16thread4joinEv
00000000000e43b4 T _ZNSt6__ndk16thread6detachEv
00000000000e4348 T _ZNSt6__ndk16threadD1Ev
00000000000e4348 T _ZNSt6__ndk16threadD2Ev
000000000008c2d8 W _ZNSt6__ndk16__treeINS_12__value_typeI32ggml_backend_meta_device_context19ggml_backend_deviceEENS_19__map_value_compareIS2_S4_NS_4lessIS2_EELb1EEENS_9allocatorIS4_EEE12__find_equalIS2_EERPNS_16__tree_node_baseIPvEERPNS_15__tree_end_nodeISG_EERKT_
000000000008bc40 W _ZNSt6__ndk16__treeINS_12__value_typeI32ggml_backend_meta_device_context19ggml_backend_deviceEENS_19__map_value_compareIS2_S4_NS_4lessIS2_EELb1EEENS_9allocatorIS4_EEE13__lower_boundIS2_EENS_15__tree_iteratorIS4_PNS_11__tree_nodeIS4_PvEElEERKT_SH_PNS_15__tree_end_nodeIPNS_16__tree_node_baseISF_EEEE
000000000008c178 W _ZNSt6__ndk16__treeINS_12__value_typeI32ggml_backend_meta_device_context19ggml_backend_deviceEENS_19__map_value_compareIS2_S4_NS_4lessIS2_EELb1EEENS_9allocatorIS4_EEE25__emplace_unique_key_argsIS2_JRS2_RS3_EEENS_4pairINS_15__tree_iteratorIS4_PNS_11__tree_nodeIS4_PvEElEEbEERKT_DpOT0_
00000000000cfbe4 W _ZNSt6__ndk16__treeINS_12__value_typeI9gguf_typemEENS_19__map_value_compareIS2_S3_NS_4lessIS2_EELb1EEENS_9allocatorIS3_EEE12__find_equalIS2_EERPNS_16__tree_node_baseIPvEENS_21__tree_const_iteratorIS3_PNS_11__tree_nodeIS3_SD_EElEERPNS_15__tree_end_nodeISF_EESG_RKT_
00000000000cfddc W _ZNSt6__ndk16__treeINS_12__value_typeI9gguf_typePKcEENS_19__map_value_compareIS2_S5_NS_4lessIS2_EELb1EEENS_9allocatorIS5_EEE12__find_equalIS2_EERPNS_16__tree_node_baseIPvEENS_21__tree_const_iteratorIS5_PNS_11__tree_nodeIS5_SF_EElEERPNS_15__tree_end_nodeISH_EESI_RKT_
00000000000d0dd0 W _ZNSt6__ndk16vectorI7gguf_kvNS_9allocatorIS1_EEE24__emplace_back_slow_pathIJRKNS_12basic_stringIcNS_11char_traitsIcEENS2_IcEEEERaEEEPS1_DpOT_
00000000000d3e68 W _ZNSt6__ndk16vectorI7gguf_kvNS_9allocatorIS1_EEE24__emplace_back_slow_pathIJRKNS_12basic_stringIcNS_11char_traitsIcEENS2_IcEEEERbEEEPS1_DpOT_
00000000000d64e4 W _ZNSt6__ndk16vectorI7gguf_kvNS_9allocatorIS1_EEE24__emplace_back_slow_pathIJRKNS_12basic_stringIcNS_11char_traitsIcEENS2_IcEEEERdEEEPS1_DpOT_
00000000000d33a8 W _ZNSt6__ndk16vectorI7gguf_kvNS_9allocatorIS1_EEE24__emplace_back_slow_pathIJRKNS_12basic_stringIcNS_11char_traitsIcEENS2_IcEEEERfEEEPS1_DpOT_
00000000000d0570 W _ZNSt6__ndk16vectorI7gguf_kvNS_9allocatorIS1_EEE24__emplace_back_slow_pathIJRKNS_12basic_stringIcNS_11char_traitsIcEENS2_IcEEEERhEEEPS1_DpOT_
00000000000d2ba0 W _ZNSt6__ndk16vectorI7gguf_kvNS_9allocatorIS1_EEE24__emplace_back_slow_pathIJRKNS_12basic_stringIcNS_11char_traitsIcEENS2_IcEEEERiEEEPS1_DpOT_
00000000000d24c8 W _ZNSt6__ndk16vectorI7gguf_kvNS_9allocatorIS1_EEE24__emplace_back_slow_pathIJRKNS_12basic_stringIcNS_11char_traitsIcEENS2_IcEEEERjEEEPS1_DpOT_
00000000000d5cc8 W _ZNSt6__ndk16vectorI7gguf_kvNS_9allocatorIS1_EEE24__emplace_back_slow_pathIJRKNS_12basic_stringIcNS_11char_traitsIcEENS2_IcEEEERlEEEPS1_DpOT_
00000000000d55f0 W _ZNSt6__ndk16vectorI7gguf_kvNS_9allocatorIS1_EEE24__emplace_back_slow_pathIJRKNS_12basic_stringIcNS_11char_traitsIcEENS2_IcEEEERmEEEPS1_DpOT_
00000000000d0a38 W _ZNSt6__ndk16vectorI7gguf_kvNS_9allocatorIS1_EEE24__emplace_back_slow_pathIJRKNS_12basic_stringIcNS_11char_traitsIcEENS2_IcEEEERNS0_IaNS2_IaEEEEEEEPS1_DpOT_
00000000000d3acc W _ZNSt6__ndk16vectorI7gguf_kvNS_9allocatorIS1_EEE24__emplace_back_slow_pathIJRKNS_12basic_stringIcNS_11char_traitsIcEENS2_IcEEEERNS0_IbNS2_IbEEEEEEEPS1_DpOT_
00000000000d6148 W _ZNSt6__ndk16vectorI7gguf_kvNS_9allocatorIS1_EEE24__emplace_back_slow_pathIJRKNS_12basic_stringIcNS_11char_traitsIcEENS2_IcEEEERNS0_IdNS2_IdEEEEEEEPS1_DpOT_
00000000000d300c W _ZNSt6__ndk16vectorI7gguf_kvNS_9allocatorIS1_EEE24__emplace_back_slow_pathIJRKNS_12basic_stringIcNS_11char_traitsIcEENS2_IcEEEERNS0_IfNS2_IfEEEEEEEPS1_DpOT_
00000000000d0164 W _ZNSt6__ndk16vectorI7gguf_kvNS_9allocatorIS1_EEE24__emplace_back_slow_pathIJRKNS_12basic_stringIcNS_11char_traitsIcEENS2_IcEEEERNS0_IhNS2_IhEEEEEEEPS1_DpOT_
00000000000d2804 W _ZNSt6__ndk16vectorI7gguf_kvNS_9allocatorIS1_EEE24__emplace_back_slow_pathIJRKNS_12basic_stringIcNS_11char_traitsIcEENS2_IcEEEERNS0_IiNS2_IiEEEEEEEPS1_DpOT_
00000000000d212c W _ZNSt6__ndk16vectorI7gguf_kvNS_9allocatorIS1_EEE24__emplace_back_slow_pathIJRKNS_12basic_stringIcNS_11char_traitsIcEENS2_IcEEEERNS0_IjNS2_IjEEEEEEEPS1_DpOT_
00000000000d592c W _ZNSt6__ndk16vectorI7gguf_kvNS_9allocatorIS1_EEE24__emplace_back_slow_pathIJRKNS_12basic_stringIcNS_11char_traitsIcEENS2_IcEEEERNS0_IlNS2_IlEEEEEEEPS1_DpOT_
00000000000d5254 W _ZNSt6__ndk16vectorI7gguf_kvNS_9allocatorIS1_EEE24__emplace_back_slow_pathIJRKNS_12basic_stringIcNS_11char_traitsIcEENS2_IcEEEERNS0_ImNS2_ImEEEEEEEPS1_DpOT_
00000000000d4520 W _ZNSt6__ndk16vectorI7gguf_kvNS_9allocatorIS1_EEE24__emplace_back_slow_pathIJRKNS_12basic_stringIcNS_11char_traitsIcEENS2_IcEEEERNS0_ISA_NS2_ISA_EEEEEEEPS1_DpOT_
00000000000d1a54 W _ZNSt6__ndk16vectorI7gguf_kvNS_9allocatorIS1_EEE24__emplace_back_slow_pathIJRKNS_12basic_stringIcNS_11char_traitsIcEENS2_IcEEEERNS0_IsNS2_IsEEEEEEEPS1_DpOT_
00000000000d1244 W _ZNSt6__ndk16vectorI7gguf_kvNS_9allocatorIS1_EEE24__emplace_back_slow_pathIJRKNS_12basic_stringIcNS_11char_traitsIcEENS2_IcEEEERNS0_ItNS2_ItEEEEEEEPS1_DpOT_
00000000000d4c38 W _ZNSt6__ndk16vectorI7gguf_kvNS_9allocatorIS1_EEE24__emplace_back_slow_pathIJRKNS_12basic_stringIcNS_11char_traitsIcEENS2_IcEEEERSA_EEEPS1_DpOT_
00000000000d1df0 W _ZNSt6__ndk16vectorI7gguf_kvNS_9allocatorIS1_EEE24__emplace_back_slow_pathIJRKNS_12basic_stringIcNS_11char_traitsIcEENS2_IcEEEERsEEEPS1_DpOT_
00000000000d15e0 W _ZNSt6__ndk16vectorI7gguf_kvNS_9allocatorIS1_EEE24__emplace_back_slow_pathIJRKNS_12basic_stringIcNS_11char_traitsIcEENS2_IcEEEERtEEEPS1_DpOT_
00000000000d8f30 W _ZNSt6__ndk16vectorI7gguf_kvNS_9allocatorIS1_EEE24__emplace_back_slow_pathIJRPKcNS_12basic_stringIcNS_11char_traitsIcEENS2_IcEEEEEEEPS1_DpOT_
00000000000d6cd0 W _ZNSt6__ndk16vectorI7gguf_kvNS_9allocatorIS1_EEE24__emplace_back_slow_pathIJRPKcRaEEEPS1_DpOT_
00000000000d8bc0 W _ZNSt6__ndk16vectorI7gguf_kvNS_9allocatorIS1_EEE24__emplace_back_slow_pathIJRPKcRbEEEPS1_DpOT_
00000000000d8850 W _ZNSt6__ndk16vectorI7gguf_kvNS_9allocatorIS1_EEE24__emplace_back_slow_pathIJRPKcRdEEEPS1_DpOT_
00000000000d7e00 W _ZNSt6__ndk16vectorI7gguf_kvNS_9allocatorIS1_EEE24__emplace_back_slow_pathIJRPKcRfEEEPS1_DpOT_
00000000000d6960 W _ZNSt6__ndk16vectorI7gguf_kvNS_9allocatorIS1_EEE24__emplace_back_slow_pathIJRPKcRhEEEPS1_DpOT_
00000000000d7a90 W _ZNSt6__ndk16vectorI7gguf_kvNS_9allocatorIS1_EEE24__emplace_back_slow_pathIJRPKcRiEEEPS1_DpOT_
00000000000d7720 W _ZNSt6__ndk16vectorI7gguf_kvNS_9allocatorIS1_EEE24__emplace_back_slow_pathIJRPKcRjEEEPS1_DpOT_
00000000000d84e0 W _ZNSt6__ndk16vectorI7gguf_kvNS_9allocatorIS1_EEE24__emplace_back_slow_pathIJRPKcRlEEEPS1_DpOT_
00000000000d8170 W _ZNSt6__ndk16vectorI7gguf_kvNS_9allocatorIS1_EEE24__emplace_back_slow_pathIJRPKcRmEEEPS1_DpOT_
00000000000d92a0 W _ZNSt6__ndk16vectorI7gguf_kvNS_9allocatorIS1_EEE24__emplace_back_slow_pathIJRPKcRNS0_IaNS2_IaEEEEEEEPS1_DpOT_
00000000000d96b0 W _ZNSt6__ndk16vectorI7gguf_kvNS_9allocatorIS1_EEE24__emplace_back_slow_pathIJRPKcRNS0_INS_12basic_stringIcNS_11char_traitsIcEENS2_IcEEEENS2_ISD_EEEEEEEPS1_DpOT_
00000000000d73b0 W _ZNSt6__ndk16vectorI7gguf_kvNS_9allocatorIS1_EEE24__emplace_back_slow_pathIJRPKcRsEEEPS1_DpOT_
00000000000d7040 W _ZNSt6__ndk16vectorI7gguf_kvNS_9allocatorIS1_EEE24__emplace_back_slow_pathIJRPKcRtEEEPS1_DpOT_
00000000000cf028 W _ZNSt6__ndk16vectorIaNS_9allocatorIaEEE18__insert_with_sizeB8ne200000INS_11__wrap_iterIPKaEES8_EENS5_IPaEES8_T_T0_l
0000000000090590 W _ZNSt6__ndk16vectorIiNS_9allocatorIiEEE18__insert_with_sizeB8ne200000INS_11__wrap_iterIPiEES7_EES7_NS5_IPKiEET_T0_l
0000000000081e08 W _ZNSt6__ndk16vectorIN25ggml_backend_meta_context14backend_configENS_9allocatorIS2_EEE24__emplace_back_slow_pathIJRP12ggml_backendRmEEEPS2_DpOT_
000000000008bf54 W _ZNSt6__ndk16vectorINS_10unique_ptrI32ggml_backend_meta_device_contextNS_14default_deleteIS2_EEEENS_9allocatorIS5_EEE21__push_back_slow_pathIS5_EEPS5_OT_
00000000000d4874 W _ZNSt6__ndk16vectorINS_12basic_stringIcNS_11char_traitsIcEENS_9allocatorIcEEEENS4_IS6_EEE18__assign_with_sizeB8ne200000IPS6_SA_EEvT_T0_l
00000000000d4f6c W _ZNSt6__ndk16vectorINS_12basic_stringIcNS_11char_traitsIcEENS_9allocatorIcEEEENS4_IS6_EEE21__push_back_slow_pathIRKS6_EEPS6_OT_
0000000000088908 W _ZNSt6__ndk16vectorIP11ggml_tensorNS_9allocatorIS2_EEE18__assign_with_sizeB8ne200000IPS2_S7_EEvT_T0_l
00000000000e5440 T _ZNSt6__ndk17promiseIvE10get_futureEv
00000000000e548c T _ZNSt6__ndk17promiseIvE13set_exceptionESt13exception_ptr
00000000000e54ec T _ZNSt6__ndk17promiseIvE24set_value_at_thread_exitEv
00000000000e5510 T _ZNSt6__ndk17promiseIvE28set_exception_at_thread_exitESt13exception_ptr
00000000000e5468 T _ZNSt6__ndk17promiseIvE9set_valueEv
00000000000e52ac T _ZNSt6__ndk17promiseIvEC1Ev
00000000000e52ac T _ZNSt6__ndk17promiseIvEC2Ev
00000000000e5300 T _ZNSt6__ndk17promiseIvED1Ev
00000000000e5300 T _ZNSt6__ndk17promiseIvED2Ev
00000000000e5b58 T _ZNSt6__ndk18__sp_mut4lockEv
00000000000e5b7c T _ZNSt6__ndk18__sp_mut6unlockEv
00000000000d9158 W _ZNSt6__ndk19allocatorI7gguf_kvE9constructB8ne200000IS1_JRPKcNS_12basic_stringIcNS_11char_traitsIcEENS0_IcEEEEEEEvPT_DpOT0_
00000000000d6ef8 W _ZNSt6__ndk19allocatorI7gguf_kvE9constructB8ne200000IS1_JRPKcRaEEEvPT_DpOT0_
00000000000d8de8 W _ZNSt6__ndk19allocatorI7gguf_kvE9constructB8ne200000IS1_JRPKcRbEEEvPT_DpOT0_
00000000000d8a78 W _ZNSt6__ndk19allocatorI7gguf_kvE9constructB8ne200000IS1_JRPKcRdEEEvPT_DpOT0_
00000000000d8028 W _ZNSt6__ndk19allocatorI7gguf_kvE9constructB8ne200000IS1_JRPKcRfEEEvPT_DpOT0_
00000000000d6b88 W _ZNSt6__ndk19allocatorI7gguf_kvE9constructB8ne200000IS1_JRPKcRhEEEvPT_DpOT0_
00000000000d7cb8 W _ZNSt6__ndk19allocatorI7gguf_kvE9constructB8ne200000IS1_JRPKcRiEEEvPT_DpOT0_
00000000000d7948 W _ZNSt6__ndk19allocatorI7gguf_kvE9constructB8ne200000IS1_JRPKcRjEEEvPT_DpOT0_
00000000000d8708 W _ZNSt6__ndk19allocatorI7gguf_kvE9constructB8ne200000IS1_JRPKcRlEEEvPT_DpOT0_
00000000000d8398 W _ZNSt6__ndk19allocatorI7gguf_kvE9constructB8ne200000IS1_JRPKcRmEEEvPT_DpOT0_
00000000000d94c8 W _ZNSt6__ndk19allocatorI7gguf_kvE9constructB8ne200000IS1_JRPKcRNS_6vectorIaNS0_IaEEEEEEEvPT_DpOT0_
00000000000d98d8 W _ZNSt6__ndk19allocatorI7gguf_kvE9constructB8ne200000IS1_JRPKcRNS_6vectorINS_12basic_stringIcNS_11char_traitsIcEENS0_IcEEEENS0_ISC_EEEEEEEvPT_DpOT0_
00000000000d75d8 W _ZNSt6__ndk19allocatorI7gguf_kvE9constructB8ne200000IS1_JRPKcRsEEEvPT_DpOT0_
00000000000d7268 W _ZNSt6__ndk19allocatorI7gguf_kvE9constructB8ne200000IS1_JRPKcRtEEEvPT_DpOT0_
00000000000e2150 T _ZNSt6__ndk19to_stringEd
00000000000e22e8 T _ZNSt6__ndk19to_stringEe
00000000000e1fb4 T _ZNSt6__ndk19to_stringEf
00000000000e08bc T _ZNSt6__ndk19to_stringEi
00000000000e0df8 T _ZNSt6__ndk19to_stringEj
00000000000e09d8 T _ZNSt6__ndk19to_stringEl
00000000000e0eb0 T _ZNSt6__ndk19to_stringEm
00000000000e0be8 T _ZNSt6__ndk19to_stringEx
00000000000e106c T _ZNSt6__ndk19to_stringEy
00000000000df170 W _ZNSt6__ndk1plIcNS_11char_traitsIcEENS_9allocatorIcEEEENS_12basic_stringIT_T0_T1_EEPKS6_RKS9_
00000000000e80c0 T _ZNSt8bad_castC1Ev
00000000000e80c0 T _ZNSt8bad_castC2Ev
00000000000e80e0 T _ZNSt8bad_castD0Ev
00000000000e80d8 T _ZNSt8bad_castD1Ev
00000000000e80d8 T _ZNSt8bad_castD2Ev
00000000000e62b4 T _ZNSt9bad_allocC1Ev
00000000000e62b4 T _ZNSt9bad_allocC2Ev
00000000000e62cc T _ZNSt9bad_allocD0Ev
00000000000e622c T _ZNSt9bad_allocD1Ev
00000000000e622c T _ZNSt9bad_allocD2Ev
00000000000e6234 T _ZNSt9exceptionD0Ev
00000000000e622c T _ZNSt9exceptionD1Ev
00000000000e622c T _ZNSt9exceptionD2Ev
00000000000e8090 T _ZNSt9type_infoD0Ev
00000000000e8088 T _ZNSt9type_infoD1Ev
00000000000e8088 T _ZNSt9type_infoD2Ev
000000000010669c W _Znwm
0000000000100724 W _ZnwmRKSt9nothrow_t
0000000000106710 W _ZnwmSt11align_val_t
00000000001007b4 W _ZnwmSt11align_val_tRKSt9nothrow_t
00000000000e6188 T _ZSt10unexpectedv
00000000000e61a4 T _ZSt13get_terminatev
00000000000e5da8 T _ZSt13set_terminatePFvvE
00000000000e6118 T _ZSt14get_unexpectedv
00000000000e5d74 T _ZSt14set_unexpectedPFvvE
00000000000e61e8 T _ZSt15get_new_handlerv
00000000000e5ddc T _ZSt15set_new_handlerPFvvE
00000000000e5818 T _ZSt17current_exceptionv
00000000000e58e4 T _ZSt17rethrow_exceptionSt13exception_ptr
00000000000e5730 T _ZSt18uncaught_exceptionv
00000000000e5754 T _ZSt19uncaught_exceptionsv
00000000000e612c T _ZSt9terminatev
000000000010e210 V _ZTI15gguf_writer_buf
000000000010e200 V _ZTI16gguf_writer_base
000000000010e250 V _ZTI16gguf_writer_file
000000000010ebf8 D _ZTIa
000000000010eab8 D _ZTIb
000000000010eb58 D _ZTIc
000000000010f008 D _ZTId
000000000010ef68 D _ZTIDh
000000000010f198 D _ZTIDi
000000000010ea68 D _ZTIDn
000000000010f148 D _ZTIDs
000000000010f0f8 D _ZTIDu
000000000010f058 D _ZTIe
000000000010efb8 D _ZTIf
000000000010f0a8 D _ZTIg
000000000010eba8 D _ZTIh
000000000010ece8 D _ZTIi
000000000010ed38 D _ZTIj
000000000010ed88 D _ZTIl
000000000010edd8 D _ZTIm
000000000010eec8 D _ZTIn
000000000010f2a8 D _ZTIN10__cxxabiv116__enum_type_infoE
000000000010e900 D _ZTIN10__cxxabiv116__shim_type_infoE
000000000010f220 D _ZTIN10__cxxabiv117__array_type_infoE
000000000010e918 D _ZTIN10__cxxabiv117__class_type_infoE
000000000010e930 D _ZTIN10__cxxabiv117__pbase_type_infoE
000000000010e948 D _ZTIN10__cxxabiv119__pointer_type_infoE
000000000010e960 D _ZTIN10__cxxabiv120__function_type_infoE
000000000010f360 D _ZTIN10__cxxabiv120__si_class_type_infoE
000000000010f3c8 D _ZTIN10__cxxabiv121__vmi_class_type_infoE
000000000010ea00 D _ZTIN10__cxxabiv123__fundamental_type_infoE
000000000010e978 D _ZTIN10__cxxabiv129__pointer_to_member_type_infoE
000000000010e518 D _ZTINSt6__ndk112bad_weak_ptrE
000000000010e448 D _ZTINSt6__ndk112future_errorE
000000000010e320 D _ZTINSt6__ndk112system_errorE
000000000010e3c8 D _ZTINSt6__ndk114error_categoryE
000000000010e558 D _ZTINSt6__ndk114__shared_countE
000000000010e490 D _ZTINSt6__ndk117__assoc_sub_stateE
000000000010e5a0 D _ZTINSt6__ndk119__shared_weak_countE
000000000010ef18 D _ZTIo
000000000010ec08 D _ZTIPa
000000000010eac8 D _ZTIPb
000000000010eb68 D _ZTIPc
000000000010f018 D _ZTIPd
000000000010ef78 D _ZTIPDh
000000000010f1a8 D _ZTIPDi
000000000010ea78 D _ZTIPDn
000000000010f158 D _ZTIPDs
000000000010f108 D _ZTIPDu
000000000010f068 D _ZTIPe
000000000010efc8 D _ZTIPf
000000000010f0b8 D _ZTIPg
000000000010ebb8 D _ZTIPh
000000000010ecf8 D _ZTIPi
000000000010ed48 D _ZTIPj
000000000010ec28 D _ZTIPKa
000000000010eae8 D _ZTIPKb
000000000010eb88 D _ZTIPKc
000000000010f038 D _ZTIPKd
000000000010ef98 D _ZTIPKDh
000000000010f1c8 D _ZTIPKDi
000000000010ea98 D _ZTIPKDn
000000000010f178 D _ZTIPKDs
000000000010f128 D _ZTIPKDu
000000000010f088 D _ZTIPKe
000000000010efe8 D _ZTIPKf
000000000010f0d8 D _ZTIPKg
000000000010ebd8 D _ZTIPKh
000000000010ed18 D _ZTIPKi
000000000010ed68 D _ZTIPKj
000000000010edb8 D _ZTIPKl
000000000010ee08 D _ZTIPKm
000000000010eef8 D _ZTIPKn
000000000010ef48 D _ZTIPKo
000000000010ec78 D _ZTIPKs
000000000010ecc8 D _ZTIPKt
000000000010ea48 D _ZTIPKv
000000000010eb38 D _ZTIPKw
000000000010ee58 D _ZTIPKx
000000000010eea8 D _ZTIPKy
000000000010ed98 D _ZTIPl
000000000010ede8 D _ZTIPm
000000000010eed8 D _ZTIPn
000000000010ef28 D _ZTIPo
000000000010ec58 D _ZTIPs
000000000010eca8 D _ZTIPt
000000000010ea28 D _ZTIPv
000000000010eb18 D _ZTIPw
000000000010ee38 D _ZTIPx
000000000010ee88 D _ZTIPy
000000000010ec48 D _ZTIs
000000000010f520 D _ZTISt10bad_typeid
000000000010e738 D _ZTISt11logic_error
000000000010e868 D _ZTISt11range_error
000000000010e750 D _ZTISt12domain_error
000000000010e7d0 D _ZTISt12length_error
000000000010e810 D _ZTISt12out_of_range
000000000010e678 D _ZTISt13bad_exception
000000000010e850 D _ZTISt13runtime_error
000000000010e8a8 D _ZTISt14overflow_error
000000000010e8e8 D _ZTISt15underflow_error
000000000010e790 D _ZTISt16invalid_argument
000000000010e4e0 D _ZTISt16nested_exception
000000000010e6a8 D _ZTISt20bad_array_new_length
000000000010f508 D _ZTISt8bad_cast
000000000010e690 D _ZTISt9bad_alloc
000000000010e640 D _ZTISt9exception
000000000010f4f8 D _ZTISt9type_info
000000000010ec98 D _ZTIt
000000000010ea18 D _ZTIv
000000000010eb08 D _ZTIw
000000000010ee28 D _ZTIx
000000000010ee78 D _ZTIy
000000000003f618 V _ZTS15gguf_writer_buf
000000000003f62a V _ZTS16gguf_writer_base
000000000003f63d V _ZTS16gguf_writer_file
000000000003fbd1 R _ZTSa
000000000003fbad R _ZTSb
000000000003fbbf R _ZTSc
000000000003fc49 R _ZTSd
000000000003fc34 R _ZTSDh
000000000003fc7c R _ZTSDi
000000000003fba1 R _ZTSDn
000000000003fc70 R _ZTSDs
000000000003fc64 R _ZTSDu
000000000003fc52 R _ZTSe
000000000003fc40 R _ZTSf
000000000003fc5b R _ZTSg
000000000003fbc8 R _ZTSh
000000000003fbec R _ZTSi
000000000003fbf5 R _ZTSj
000000000003fbfe R _ZTSl
000000000003fc07 R _ZTSm
000000000003fc22 R _ZTSn
000000000003fcaa R _ZTSN10__cxxabiv116__enum_type_infoE
000000000003fa76 R _ZTSN10__cxxabiv116__shim_type_infoE
000000000003fc88 R _ZTSN10__cxxabiv117__array_type_infoE
000000000003fa97 R _ZTSN10__cxxabiv117__class_type_infoE
000000000003fab9 R _ZTSN10__cxxabiv117__pbase_type_infoE
000000000003fadb R _ZTSN10__cxxabiv119__pointer_type_infoE
000000000003faff R _ZTSN10__cxxabiv120__function_type_infoE
000000000003fccb R _ZTSN10__cxxabiv120__si_class_type_infoE
000000000003fcf0 R _ZTSN10__cxxabiv121__vmi_class_type_infoE
000000000003fb70 R _ZTSN10__cxxabiv123__fundamental_type_infoE
000000000003fb24 R _ZTSN10__cxxabiv129__pointer_to_member_type_infoE
000000000003f930 R _ZTSNSt6__ndk112bad_weak_ptrE
000000000003f8bb R _ZTSNSt6__ndk112future_errorE
000000000003f81b R _ZTSNSt6__ndk112system_errorE
000000000003f89b R _ZTSNSt6__ndk114error_categoryE
000000000003f94a R _ZTSNSt6__ndk114__shared_countE
000000000003f8d5 R _ZTSNSt6__ndk117__assoc_sub_stateE
000000000003f966 R _ZTSNSt6__ndk119__shared_weak_countE
000000000003fc2b R _ZTSo
000000000003fbd3 R _ZTSPa
000000000003fbaf R _ZTSPb
000000000003fbc1 R _ZTSPc
000000000003fc4b R _ZTSPd
000000000003fc37 R _ZTSPDh
000000000003fc7f R _ZTSPDi
000000000003fba4 R _ZTSPDn
000000000003fc73 R _ZTSPDs
000000000003fc67 R _ZTSPDu
000000000003fc54 R _ZTSPe
000000000003fc42 R _ZTSPf
000000000003fc5d R _ZTSPg
000000000003fbca R _ZTSPh
000000000003fbee R _ZTSPi
000000000003fbf7 R _ZTSPj
000000000003fbd6 R _ZTSPKa
000000000003fbb2 R _ZTSPKb
000000000003fbc4 R _ZTSPKc
000000000003fc4e R _ZTSPKd
000000000003fc3b R _ZTSPKDh
000000000003fc83 R _ZTSPKDi
000000000003fba8 R _ZTSPKDn
000000000003fc77 R _ZTSPKDs
000000000003fc6b R _ZTSPKDu
000000000003fc57 R _ZTSPKe
000000000003fc45 R _ZTSPKf
000000000003fc60 R _ZTSPKg
000000000003fbcd R _ZTSPKh
000000000003fbf1 R _ZTSPKi
000000000003fbfa R _ZTSPKj
000000000003fc03 R _ZTSPKl
000000000003fc0c R _ZTSPKm
000000000003fc27 R _ZTSPKn
000000000003fc30 R _ZTSPKo
000000000003fbdf R _ZTSPKs
000000000003fbe8 R _ZTSPKt
000000000003fb9d R _ZTSPKv
000000000003fbbb R _ZTSPKw
000000000003fc15 R _ZTSPKx
000000000003fc1e R _ZTSPKy
000000000003fc00 R _ZTSPl
000000000003fc09 R _ZTSPm
000000000003fc24 R _ZTSPn
000000000003fc2d R _ZTSPo
000000000003fbdc R _ZTSPs
000000000003fbe5 R _ZTSPt
000000000003fb9a R _ZTSPv
000000000003fbb8 R _ZTSPw
000000000003fc12 R _ZTSPx
000000000003fc1b R _ZTSPy
000000000003fbda R _ZTSs
000000000003fd30 R _ZTSSt10bad_typeid
000000000003f9e4 R _ZTSSt11logic_error
000000000003fa2b R _ZTSSt11range_error
000000000003f9d3 R _ZTSSt12domain_error
000000000003fa09 R _ZTSSt12length_error
000000000003fa1a R _ZTSSt12out_of_range
000000000003f99a R _ZTSSt13bad_exception
000000000003fa3b R _ZTSSt13runtime_error
000000000003fa4d R _ZTSSt14overflow_error
000000000003fa60 R _ZTSSt15underflow_error
000000000003f9f4 R _ZTSSt16invalid_argument
000000000003f91a R _ZTSSt16nested_exception
000000000003f9ac R _ZTSSt20bad_array_new_length
000000000003fd24 R _ZTSSt8bad_cast
000000000003f9c5 R _ZTSSt9bad_alloc
000000000003f98d R _ZTSSt9exception
000000000003fd17 R _ZTSSt9type_info
000000000003fbe3 R _ZTSt
000000000003fb98 R _ZTSv
000000000003fbb6 R _ZTSw
000000000003fc10 R _ZTSx
000000000003fc19 R _ZTSy
000000000010e1d8 V _ZTV15gguf_writer_buf
000000000010e228 V _ZTV16gguf_writer_file
000000000010f270 D _ZTVN10__cxxabiv116__enum_type_infoE
000000000010e990 D _ZTVN10__cxxabiv116__shim_type_infoE
000000000010f1e8 D _ZTVN10__cxxabiv117__array_type_infoE
000000000010f2c0 D _ZTVN10__cxxabiv117__class_type_infoE
000000000010f3e0 D _ZTVN10__cxxabiv117__pbase_type_infoE
000000000010f418 D _ZTVN10__cxxabiv119__pointer_type_infoE
000000000010f238 D _ZTVN10__cxxabiv120__function_type_infoE
000000000010f310 D _ZTVN10__cxxabiv120__si_class_type_infoE
000000000010f378 D _ZTVN10__cxxabiv121__vmi_class_type_infoE
000000000010e9c8 D _ZTVN10__cxxabiv123__fundamental_type_infoE
000000000010f450 D _ZTVN10__cxxabiv129__pointer_to_member_type_infoE
000000000010e4f0 D _ZTVNSt6__ndk112bad_weak_ptrE
000000000010e420 D _ZTVNSt6__ndk112future_errorE
000000000010e2f8 D _ZTVNSt6__ndk112system_errorE
000000000010e380 D _ZTVNSt6__ndk114error_categoryE
000000000010e530 D _ZTVNSt6__ndk114__shared_countE
000000000010e460 D _ZTVNSt6__ndk117__assoc_sub_stateE
000000000010e568 D _ZTVNSt6__ndk119__shared_weak_countE
000000000010f4b0 D _ZTVSt10bad_typeid
000000000010e6c0 D _ZTVSt11logic_error
000000000010e828 D _ZTVSt11range_error
000000000010e710 D _ZTVSt12domain_error
000000000010e7a8 D _ZTVSt12length_error
000000000010e7e8 D _ZTVSt12out_of_range
000000000010e650 D _ZTVSt13bad_exception
000000000010e6e8 D _ZTVSt13runtime_error
000000000010e880 D _ZTVSt14overflow_error
000000000010e8c0 D _ZTVSt15underflow_error
000000000010e768 D _ZTVSt16invalid_argument
000000000010e4c0 D _ZTVSt16nested_exception
000000000010e5f0 D _ZTVSt20bad_array_new_length
000000000010f488 D _ZTVSt8bad_cast
000000000010e5c8 D _ZTVSt9bad_alloc
000000000010e618 D _ZTVSt9exception
000000000010f4d8 D _ZTVSt9type_info

######################################################################
## android-arm64-cpu / libggml-cpu.so
######################################################################
000000000011d498 B ggml_arm_arch_features
0000000000037a20 T ggml_backend_cpu_init
0000000000037ae4 T ggml_backend_cpu_reg
0000000000037df0 T ggml_backend_cpu_set_abort_callback
0000000000037d1c T ggml_backend_cpu_set_n_threads
0000000000037d7c T ggml_backend_cpu_set_threadpool
0000000000037e5c T ggml_backend_cpu_set_use_ref
0000000000037d04 T ggml_backend_is_cpu
0000000000032b58 T ggml_barrier
000000000006f384 T ggml_compute_forward_abs
000000000008bb80 T ggml_compute_forward_acc
0000000000089528 T ggml_compute_forward_add
000000000008a26c T ggml_compute_forward_add1
0000000000089e24 T ggml_compute_forward_add_id
0000000000066ab4 T ggml_compute_forward_add_non_quantized
00000000000b19d4 T ggml_compute_forward_add_rel_pos
00000000000a3c48 T ggml_compute_forward_arange
000000000008cdfc T ggml_compute_forward_argmax
00000000000a43d8 T ggml_compute_forward_argsort
000000000007edc0 T ggml_compute_forward_ceil
0000000000098a08 T ggml_compute_forward_clamp
000000000008e0d4 T ggml_compute_forward_concat
000000000009661c T ggml_compute_forward_cont
000000000009e12c T ggml_compute_forward_conv_2d
00000000000a06b0 T ggml_compute_forward_conv_2d_dw
000000000009eb78 T ggml_compute_forward_conv_3d
000000000009baf0 T ggml_compute_forward_conv_transpose_1d
000000000009f85c T ggml_compute_forward_conv_transpose_2d
000000000007a3a8 T ggml_compute_forward_cos
000000000008cf08 T ggml_compute_forward_count_equal
0000000000096618 T ggml_compute_forward_cpy
00000000000b7b4c T ggml_compute_forward_cross_entropy_loss
00000000000b80bc T ggml_compute_forward_cross_entropy_loss_back
000000000008c54c T ggml_compute_forward_cumsum
00000000000b7b34 T ggml_compute_forward_custom
0000000000097550 T ggml_compute_forward_diag
00000000000978e8 T ggml_compute_forward_diag_mask_inf
0000000000097b3c T ggml_compute_forward_diag_mask_zero
000000000006d168 T ggml_compute_forward_div
0000000000082b28 T ggml_compute_forward_dup
0000000000072b84 T ggml_compute_forward_elu
0000000000075e4c T ggml_compute_forward_exp
000000000007c4e0 T ggml_compute_forward_expm1
000000000008f0dc T ggml_compute_forward_fill
00000000000aae90 T ggml_compute_forward_flash_attn_back
00000000000a7450 T ggml_compute_forward_flash_attn_ext
000000000007e1b0 T ggml_compute_forward_floor
00000000000b32e8 T ggml_compute_forward_gated_delta_net
00000000000b4094 T ggml_compute_forward_gated_delta_net_tree
00000000000b1818 T ggml_compute_forward_get_rel_pos
0000000000096620 T ggml_compute_forward_get_rows
0000000000097190 T ggml_compute_forward_get_rows_back
00000000000b257c T ggml_compute_forward_gla
00000000000af548 T ggml_compute_forward_glu
00000000000923c0 T ggml_compute_forward_group_norm
00000000000751b4 T ggml_compute_forward_hardsigmoid
0000000000076ee8 T ggml_compute_forward_hardswish
000000000009c69c T ggml_compute_forward_im2col
000000000009d670 T ggml_compute_forward_im2col_3d
000000000009d104 T ggml_compute_forward_im2col_back_f32
0000000000092c8c T ggml_compute_forward_l2_norm
000000000008f44c T ggml_compute_forward_leaky_relu
000000000007b444 T ggml_compute_forward_log
00000000000b7ad8 T ggml_compute_forward_map_custom1
00000000000b7af4 T ggml_compute_forward_map_custom2
00000000000b7b14 T ggml_compute_forward_map_custom3
000000000008cb8c T ggml_compute_forward_mean
000000000006af2c T ggml_compute_forward_mul
0000000000034454 T ggml_compute_forward_mul_mat
0000000000070b7c T ggml_compute_forward_neg
000000000008fdb4 T ggml_compute_forward_norm
00000000000b8588 T ggml_compute_forward_opt_step_adamw
00000000000b8a58 T ggml_compute_forward_opt_step_sgd
0000000000093bcc T ggml_compute_forward_out_prod
00000000000a2598 T ggml_compute_forward_pad
00000000000a2ce0 T ggml_compute_forward_pad_reflect_1d
00000000000a0e64 T ggml_compute_forward_pool_1d
00000000000a1174 T ggml_compute_forward_pool_2d
00000000000a1698 T ggml_compute_forward_pool_2d_back
000000000007344c T ggml_compute_forward_relu
000000000008d2d8 T ggml_compute_forward_repeat
000000000008db14 T ggml_compute_forward_repeat_back
0000000000090d44 T ggml_compute_forward_rms_norm
0000000000091b9c T ggml_compute_forward_rms_norm_back
00000000000a38fc T ggml_compute_forward_roll
0000000000098f48 T ggml_compute_forward_rope
000000000009baac T ggml_compute_forward_rope_back
000000000007f9d0 T ggml_compute_forward_round
00000000000b1b8c T ggml_compute_forward_rwkv_wkv6
00000000000b76d0 T ggml_compute_forward_rwkv_wkv7
00000000000959dc T ggml_compute_forward_scale
0000000000095f90 T ggml_compute_forward_set
0000000000096d60 T ggml_compute_forward_set_rows
000000000006ff30 T ggml_compute_forward_sgn
0000000000074008 T ggml_compute_forward_sigmoid
000000000008f7e8 T ggml_compute_forward_silu_back
000000000007930c T ggml_compute_forward_sin
0000000000097b70 T ggml_compute_forward_soft_max
0000000000098438 T ggml_compute_forward_soft_max_ext_back
000000000007d620 T ggml_compute_forward_softplus
00000000000b2f38 T ggml_compute_forward_solve_tri
0000000000077bb4 T ggml_compute_forward_sqr
0000000000078798 T ggml_compute_forward_sqrt
00000000000ac384 T ggml_compute_forward_ssm_conv
00000000000ac6d4 T ggml_compute_forward_ssm_conv_tree
00000000000accb8 T ggml_compute_forward_ssm_scan
0000000000071760 T ggml_compute_forward_step
0000000000068cf0 T ggml_compute_forward_sub
000000000008bf8c T ggml_compute_forward_sum
000000000008c824 T ggml_compute_forward_sum_rows
000000000007231c T ggml_compute_forward_tanh
00000000000a3e10 T ggml_compute_forward_timestep_embedding
00000000000a6ba8 T ggml_compute_forward_top_k
000000000008f22c T ggml_compute_forward_tri
00000000000805e0 T ggml_compute_forward_trunc
00000000000b53a0 T ggml_compute_forward_turbo_wht
00000000000ae2e4 T ggml_compute_forward_unary
00000000000a1b38 T ggml_compute_forward_upscale
00000000000add70 T ggml_compute_forward_win_part
00000000000ae12c T ggml_compute_forward_win_unpart
00000000000811f0 T ggml_compute_forward_xielu
00000000000375ec T ggml_cpu_bf16_to_fp32
0000000000066978 T ggml_cpu_extra_compute_forward
0000000000066a0c T ggml_cpu_extra_work_size
0000000000037570 T ggml_cpu_fp16_to_fp32
0000000000032a74 T ggml_cpu_fp32_to_bf16
0000000000032858 T ggml_cpu_fp32_to_fp16
0000000000032844 T ggml_cpu_fp32_to_fp32
00000000000329fc T ggml_cpu_fp32_to_i32
00000000000376e0 T ggml_cpu_get_rvv_vlen
0000000000037748 T ggml_cpu_get_sve_cnt
00000000000376b8 T ggml_cpu_has_amx_int8
00000000000376d0 T ggml_cpu_has_arm_fma
0000000000037680 T ggml_cpu_has_avx
0000000000037690 T ggml_cpu_has_avx2
0000000000037698 T ggml_cpu_has_avx512
00000000000376b0 T ggml_cpu_has_avx512_bf16
00000000000376a0 T ggml_cpu_has_avx512_vbmi
00000000000376a8 T ggml_cpu_has_avx512_vnni
0000000000037688 T ggml_cpu_has_avx_vnni
00000000000376c0 T ggml_cpu_has_bmi2
0000000000037730 T ggml_cpu_has_dotprod
00000000000376e8 T ggml_cpu_has_f16c
00000000000376c8 T ggml_cpu_has_fma
00000000000376f0 T ggml_cpu_has_fp16_va
0000000000037700 T ggml_cpu_has_llamafile
0000000000037740 T ggml_cpu_has_matmul_int8
0000000000037728 T ggml_cpu_has_neon
00000000000376d8 T ggml_cpu_has_riscv_v
0000000000037750 T ggml_cpu_has_sme
0000000000037708 T ggml_cpu_has_sse3
0000000000037710 T ggml_cpu_has_ssse3
0000000000037738 T ggml_cpu_has_sve
0000000000037718 T ggml_cpu_has_vsx
0000000000037720 T ggml_cpu_has_vxe
00000000000376f8 T ggml_cpu_has_wasm_simd
0000000000035dc8 T ggml_cpu_init
00000000000cd5cc T ggml_gemm_iq4_nl_4x4_q8_0
00000000000469f0 T ggml_gemm_iq4_nl_4x4_q8_0_generic
0000000000046fb8 T ggml_gemm_iq4_nl_8x8_q8_0
00000000000cd5d0 T ggml_gemm_mxfp4_4x4_q8_0
0000000000047458 T ggml_gemm_mxfp4_4x4_q8_0_generic
0000000000047a6c T ggml_gemm_mxfp4_8x8_q8_0
00000000000439a4 T ggml_gemm_q2_K_8x8_q8_K
00000000000cd5c0 T ggml_gemm_q4_0_4x4_q8_0
000000000004141c T ggml_gemm_q4_0_4x4_q8_0_generic
00000000000cd5c4 T ggml_gemm_q4_0_4x8_q8_0
0000000000041a00 T ggml_gemm_q4_0_4x8_q8_0_generic
00000000000cd5c8 T ggml_gemm_q4_0_8x8_q8_0
0000000000041fbc T ggml_gemm_q4_0_8x8_q8_0_generic
00000000000cd5d4 T ggml_gemm_q4_K_8x4_q8_K
000000000004269c T ggml_gemm_q4_K_8x4_q8_K_generic
00000000000cd5dc T ggml_gemm_q4_K_8x8_q8_K
0000000000042f94 T ggml_gemm_q4_K_8x8_q8_K_generic
00000000000cd5d8 T ggml_gemm_q5_K_8x4_q8_K
0000000000044c14 T ggml_gemm_q5_K_8x4_q8_K_generic
00000000000cd5e0 T ggml_gemm_q5_K_8x8_q8_K
00000000000455b8 T ggml_gemm_q5_K_8x8_q8_K_generic
00000000000cd5e4 T ggml_gemm_q6_K_8x4_q8_K
0000000000046150 T ggml_gemm_q6_K_8x4_q8_K_generic
00000000000cd5e8 T ggml_gemm_q6_K_8x8_q8_K
0000000000046580 T ggml_gemm_q6_K_8x8_q8_K_generic
00000000000cd5ec T ggml_gemm_q8_0_4x4_q8_0
0000000000047f2c T ggml_gemm_q8_0_4x4_q8_0_generic
00000000000cd5f0 T ggml_gemm_q8_0_4x8_q8_0
0000000000048350 T ggml_gemm_q8_0_4x8_q8_0_generic
00000000000cd598 T ggml_gemv_iq4_nl_4x4_q8_0
0000000000040344 T ggml_gemv_iq4_nl_4x4_q8_0_generic
00000000000406d4 T ggml_gemv_iq4_nl_8x8_q8_0
00000000000cd59c T ggml_gemv_mxfp4_4x4_q8_0
00000000000409bc T ggml_gemv_mxfp4_4x4_q8_0_generic
0000000000040dac T ggml_gemv_mxfp4_8x8_q8_0
000000000003d73c T ggml_gemv_q2_K_8x8_q8_K
00000000000cd58c T ggml_gemv_q4_0_4x4_q8_0
000000000003be1c T ggml_gemv_q4_0_4x4_q8_0_generic
00000000000cd590 T ggml_gemv_q4_0_4x8_q8_0
000000000003c150 T ggml_gemv_q4_0_4x8_q8_0_generic
00000000000cd594 T ggml_gemv_q4_0_8x8_q8_0
000000000003c54c T ggml_gemv_q4_0_8x8_q8_0_generic
00000000000cd5a0 T ggml_gemv_q4_K_8x4_q8_K
000000000003c850 T ggml_gemv_q4_K_8x4_q8_K_generic
00000000000cd5a4 T ggml_gemv_q4_K_8x8_q8_K
000000000003cf58 T ggml_gemv_q4_K_8x8_q8_K_generic
00000000000cd5a8 T ggml_gemv_q5_K_8x4_q8_K
000000000003eb44 T ggml_gemv_q5_K_8x4_q8_K_generic
00000000000cd5ac T ggml_gemv_q5_K_8x8_q8_K
000000000003f3bc T ggml_gemv_q5_K_8x8_q8_K_generic
00000000000cd5b0 T ggml_gemv_q6_K_8x4_q8_K
000000000003fdd0 T ggml_gemv_q6_K_8x4_q8_K_generic
00000000000cd5b4 T ggml_gemv_q6_K_8x8_q8_K
0000000000040090 T ggml_gemv_q6_K_8x8_q8_K_generic
00000000000cd5b8 T ggml_gemv_q8_0_4x4_q8_0
00000000000410ac T ggml_gemv_q8_0_4x4_q8_0_generic
00000000000cd5bc T ggml_gemv_q8_0_4x8_q8_0
0000000000041278 T ggml_gemv_q8_0_4x8_q8_0_generic
0000000000033e24 T ggml_get_f32_1d
000000000003400c T ggml_get_f32_nd
00000000000335ec T ggml_get_i32_1d
00000000000338dc T ggml_get_i32_nd
0000000000032830 T ggml_get_type_traits_cpu
0000000000035bf0 T ggml_graph_compute
00000000000374f0 T ggml_graph_compute_with_ctx
00000000000351fc T ggml_graph_plan
0000000000032bd4 T ggml_is_numa
00000000000330d4 T ggml_new_f32
0000000000032bdc T ggml_new_i32
0000000000032bd0 T ggml_numa_init
00000000000cc890 T ggml_quantize_mat_q8_0_4x4
000000000003ab90 T ggml_quantize_mat_q8_0_4x4_generic
00000000000ccf18 T ggml_quantize_mat_q8_0_4x8
000000000003b1a8 T ggml_quantize_mat_q8_0_4x8_generic
000000000003b7c4 T ggml_quantize_mat_q8_K_4x4
000000000003bae0 T ggml_quantize_mat_q8_K_4x8
0000000000033138 T ggml_set_f32
00000000000340e0 T ggml_set_f32_1d
00000000000342dc T ggml_set_f32_nd
0000000000032c38 T ggml_set_i32
00000000000339b0 T ggml_set_i32_1d
0000000000033cac T ggml_set_i32_nd
000000000011d098 B ggml_table_f32_e8m0_half
00000000000dd098 B ggml_table_f32_f16
000000000011d6b8 B ggml_table_gelu_f16
000000000013d6b8 B ggml_table_gelu_quick_f16
0000000000032bb0 T ggml_threadpool_chunk_add
0000000000032ba8 T ggml_threadpool_chunk_set
00000000000351b0 T ggml_threadpool_free
00000000000359cc T ggml_threadpool_new
00000000000351f4 T ggml_threadpool_pause
00000000000351f8 T ggml_threadpool_resume
000000000008257c T ggml_vec_cvar_f32
0000000000081ce8 T ggml_vec_dot_bf16
0000000000081de4 T ggml_vec_dot_f16
0000000000081b98 T ggml_vec_dot_f32
00000000000cc098 T ggml_vec_dot_iq1_m_q8_K
0000000000065e40 T ggml_vec_dot_iq1_m_q8_K_generic
00000000000cbe6c T ggml_vec_dot_iq1_s_q8_K
0000000000065c84 T ggml_vec_dot_iq1_s_q8_K_generic
00000000000cb6cc T ggml_vec_dot_iq2_s_q8_K
0000000000064c40 T ggml_vec_dot_iq2_s_q8_K_generic
00000000000cb478 T ggml_vec_dot_iq2_xs_q8_K
0000000000064888 T ggml_vec_dot_iq2_xs_q8_K_generic
00000000000cb2b8 T ggml_vec_dot_iq2_xxs_q8_K
0000000000064504 T ggml_vec_dot_iq2_xxs_q8_K_generic
00000000000cbb54 T ggml_vec_dot_iq3_s_q8_K
0000000000065418 T ggml_vec_dot_iq3_s_q8_K_generic
00000000000cb934 T ggml_vec_dot_iq3_xxs_q8_K
0000000000064fdc T ggml_vec_dot_iq3_xxs_q8_K_generic
00000000000cc398 T ggml_vec_dot_iq4_nl_q8_0
0000000000066150 T ggml_vec_dot_iq4_nl_q8_0_generic
00000000000cc754 T ggml_vec_dot_iq4_xs_q8_K
00000000000663e8 T ggml_vec_dot_iq4_xs_q8_K_generic
00000000000c939c T ggml_vec_dot_mxfp4_q8_0
00000000000610b8 T ggml_vec_dot_mxfp4_q8_0_generic
00000000000c979c T ggml_vec_dot_nvfp4_q8_0
0000000000061368 T ggml_vec_dot_nvfp4_q8_0_generic
00000000000c8c38 T ggml_vec_dot_q1_0_q8_0
00000000000604e8 T ggml_vec_dot_q1_0_q8_0_generic
00000000000ca6d4 T ggml_vec_dot_q2_K_q8_K
00000000000625e8 T ggml_vec_dot_q2_K_q8_K_generic
00000000000ca920 T ggml_vec_dot_q3_K_q8_K
0000000000062fc8 T ggml_vec_dot_q3_K_q8_K_generic
00000000000c8ed4 T ggml_vec_dot_q4_0_q8_0
0000000000060f34 T ggml_vec_dot_q4_0_q8_0_generic
00000000000c912c T ggml_vec_dot_q4_1_q8_1
0000000000060ff4 T ggml_vec_dot_q4_1_q8_1_generic
00000000000caca0 T ggml_vec_dot_q4_K_q8_K
00000000000632d8 T ggml_vec_dot_q4_K_q8_K_generic
00000000000c9a90 T ggml_vec_dot_q5_0_q8_0
000000000006157c T ggml_vec_dot_q5_0_q8_0_generic
00000000000c9e44 T ggml_vec_dot_q5_1_q8_1
00000000000617a4 T ggml_vec_dot_q5_1_q8_1_generic
00000000000cae70 T ggml_vec_dot_q5_K_q8_K
0000000000063a4c T ggml_vec_dot_q5_K_q8_K_generic
00000000000cb068 T ggml_vec_dot_q6_K_q8_K
0000000000064268 T ggml_vec_dot_q6_K_q8_K_generic
00000000000ca1d0 T ggml_vec_dot_q8_0_q8_0
0000000000061964 T ggml_vec_dot_q8_0_q8_0_generic
00000000000ca358 T ggml_vec_dot_tq1_0_q8_K
00000000000619e8 T ggml_vec_dot_tq1_0_q8_K_generic
00000000000ca5a4 T ggml_vec_dot_tq2_0_q8_K
0000000000061ffc T ggml_vec_dot_tq2_0_q8_K_generic
00000000000829b4 T ggml_vec_log_soft_max_f32
0000000000081fe0 T ggml_vec_silu_f32
00000000000826d0 T ggml_vec_soft_max_f32
0000000000082290 T ggml_vec_swiglu_f32
00000000000b8cec T llamafile_sgemm
0000000000066954 T quantize_row_iq4_nl
0000000000066958 T quantize_row_iq4_xs
00000000000604c0 T quantize_row_mxfp4
00000000000604c4 T quantize_row_nvfp4
00000000000604a4 T quantize_row_q1_0
00000000000604c8 T quantize_row_q2_K
00000000000604cc T quantize_row_q3_K
00000000000604a8 T quantize_row_q4_0
00000000000604ac T quantize_row_q4_1
00000000000604d0 T quantize_row_q4_K
00000000000604b0 T quantize_row_q5_0
00000000000604b4 T quantize_row_q5_1
00000000000604d4 T quantize_row_q5_K
00000000000604d8 T quantize_row_q6_K
00000000000c8838 T quantize_row_q8_0
00000000000604b8 T quantize_row_q8_0_generic
00000000000c89f4 T quantize_row_q8_1
00000000000604bc T quantize_row_q8_1_generic
00000000000c8c34 T quantize_row_q8_K
00000000000604e4 T quantize_row_q8_K_generic
00000000000604dc T quantize_row_tq1_0
00000000000604e0 T quantize_row_tq2_0
000000000003be0c T _Z19ggml_quantize_mat_tILl4EL9ggml_type15EEvPKfPvll
000000000003bdfc T _Z19ggml_quantize_mat_tILl4EL9ggml_type8EEvPKfPvll
000000000003be14 T _Z19ggml_quantize_mat_tILl8EL9ggml_type15EEvPKfPvll
000000000003be04 T _Z19ggml_quantize_mat_tILl8EL9ggml_type8EEvPKfPvll
000000000004bf0c T _Z35ggml_backend_cpu_repack_buffer_typev
0000000000037758 T _Z39ggml_backend_cpu_get_extra_buffer_typesv
00000000000381b0 W _ZN31ggml_backend_cpu_device_contextC2Ev
00000000000383cc W _ZN31ggml_backend_cpu_device_contextD2Ev
0000000000066968 T _ZN4ggml3cpu13tensor_traitsD0Ev
0000000000066970 T _ZN4ggml3cpu13tensor_traitsD1Ev
0000000000066970 T _ZN4ggml3cpu13tensor_traitsD2Ev
000000000006696c T _ZN4ggml3cpu17extra_buffer_typeD0Ev
0000000000066974 T _ZN4ggml3cpu17extra_buffer_typeD1Ev
0000000000066974 T _ZN4ggml3cpu17extra_buffer_typeD2Ev
000000000004d81c W _ZN4ggml3cpu6repack13tensor_traitsI10block_q2_KLl8ELl8EL9ggml_type15EE15compute_forwardEP19ggml_compute_paramsP11ggml_tensor
0000000000058ea8 W _ZN4ggml3cpu6repack13tensor_traitsI10block_q2_KLl8ELl8EL9ggml_type15EE15forward_mul_matEP19ggml_compute_paramsP11ggml_tensor
0000000000059a9c W _ZN4ggml3cpu6repack13tensor_traitsI10block_q2_KLl8ELl8EL9ggml_type15EE18forward_mul_mat_idEP19ggml_compute_paramsP11ggml_tensor
000000000005a100 W _ZN4ggml3cpu6repack13tensor_traitsI10block_q2_KLl8ELl8EL9ggml_type15EE25forward_mul_mat_one_chunkEP19ggml_compute_paramsP11ggml_tensorllll
000000000004d864 W _ZN4ggml3cpu6repack13tensor_traitsI10block_q2_KLl8ELl8EL9ggml_type15EE6repackEP11ggml_tensorPKvm
000000000004d770 W _ZN4ggml3cpu6repack13tensor_traitsI10block_q2_KLl8ELl8EL9ggml_type15EE9work_sizeEiPK11ggml_tensorRm
000000000004d748 W _ZN4ggml3cpu6repack13tensor_traitsI10block_q2_KLl8ELl8EL9ggml_type15EED0Ev
000000000004ca58 W _ZN4ggml3cpu6repack13tensor_traitsI10block_q4_0Ll4ELl4EL9ggml_type8EE15compute_forwardEP19ggml_compute_paramsP11ggml_tensor
000000000004e1ec W _ZN4ggml3cpu6repack13tensor_traitsI10block_q4_0Ll4ELl4EL9ggml_type8EE15forward_mul_matEP19ggml_compute_paramsP11ggml_tensor
000000000004e8ec W _ZN4ggml3cpu6repack13tensor_traitsI10block_q4_0Ll4ELl4EL9ggml_type8EE18forward_mul_mat_idEP19ggml_compute_paramsP11ggml_tensor
000000000004ef48 W _ZN4ggml3cpu6repack13tensor_traitsI10block_q4_0Ll4ELl4EL9ggml_type8EE25forward_mul_mat_one_chunkEP19ggml_compute_paramsP11ggml_tensorllll
000000000004caa0 W _ZN4ggml3cpu6repack13tensor_traitsI10block_q4_0Ll4ELl4EL9ggml_type8EE6repackEP11ggml_tensorPKvm
000000000004c9ac W _ZN4ggml3cpu6repack13tensor_traitsI10block_q4_0Ll4ELl4EL9ggml_type8EE9work_sizeEiPK11ggml_tensorRm
000000000004c984 W _ZN4ggml3cpu6repack13tensor_traitsI10block_q4_0Ll4ELl4EL9ggml_type8EED0Ev
000000000004cbe0 W _ZN4ggml3cpu6repack13tensor_traitsI10block_q4_0Ll8ELl4EL9ggml_type8EE15compute_forwardEP19ggml_compute_paramsP11ggml_tensor
000000000004f1d0 W _ZN4ggml3cpu6repack13tensor_traitsI10block_q4_0Ll8ELl4EL9ggml_type8EE15forward_mul_matEP19ggml_compute_paramsP11ggml_tensor
000000000004f8d0 W _ZN4ggml3cpu6repack13tensor_traitsI10block_q4_0Ll8ELl4EL9ggml_type8EE18forward_mul_mat_idEP19ggml_compute_paramsP11ggml_tensor
000000000004ff2c W _ZN4ggml3cpu6repack13tensor_traitsI10block_q4_0Ll8ELl4EL9ggml_type8EE25forward_mul_mat_one_chunkEP19ggml_compute_paramsP11ggml_tensorllll
000000000004cc28 W _ZN4ggml3cpu6repack13tensor_traitsI10block_q4_0Ll8ELl4EL9ggml_type8EE6repackEP11ggml_tensorPKvm
000000000004cb34 W _ZN4ggml3cpu6repack13tensor_traitsI10block_q4_0Ll8ELl4EL9ggml_type8EE9work_sizeEiPK11ggml_tensorRm
000000000004cb0c W _ZN4ggml3cpu6repack13tensor_traitsI10block_q4_0Ll8ELl4EL9ggml_type8EED0Ev
000000000004cd68 W _ZN4ggml3cpu6repack13tensor_traitsI10block_q4_0Ll8ELl8EL9ggml_type8EE15compute_forwardEP19ggml_compute_paramsP11ggml_tensor
00000000000501b4 W _ZN4ggml3cpu6repack13tensor_traitsI10block_q4_0Ll8ELl8EL9ggml_type8EE15forward_mul_matEP19ggml_compute_paramsP11ggml_tensor
00000000000508b4 W _ZN4ggml3cpu6repack13tensor_traitsI10block_q4_0Ll8ELl8EL9ggml_type8EE18forward_mul_mat_idEP19ggml_compute_paramsP11ggml_tensor
0000000000050f10 W _ZN4ggml3cpu6repack13tensor_traitsI10block_q4_0Ll8ELl8EL9ggml_type8EE25forward_mul_mat_one_chunkEP19ggml_compute_paramsP11ggml_tensorllll
000000000004cdb0 W _ZN4ggml3cpu6repack13tensor_traitsI10block_q4_0Ll8ELl8EL9ggml_type8EE6repackEP11ggml_tensorPKvm
000000000004ccbc W _ZN4ggml3cpu6repack13tensor_traitsI10block_q4_0Ll8ELl8EL9ggml_type8EE9work_sizeEiPK11ggml_tensorRm
000000000004cc94 W _ZN4ggml3cpu6repack13tensor_traitsI10block_q4_0Ll8ELl8EL9ggml_type8EED0Ev
000000000004ceec W _ZN4ggml3cpu6repack13tensor_traitsI10block_q4_KLl4ELl8EL9ggml_type15EE15compute_forwardEP19ggml_compute_paramsP11ggml_tensor
0000000000051198 W _ZN4ggml3cpu6repack13tensor_traitsI10block_q4_KLl4ELl8EL9ggml_type15EE15forward_mul_matEP19ggml_compute_paramsP11ggml_tensor
0000000000051d8c W _ZN4ggml3cpu6repack13tensor_traitsI10block_q4_KLl4ELl8EL9ggml_type15EE18forward_mul_mat_idEP19ggml_compute_paramsP11ggml_tensor
00000000000523e8 W _ZN4ggml3cpu6repack13tensor_traitsI10block_q4_KLl4ELl8EL9ggml_type15EE25forward_mul_mat_one_chunkEP19ggml_compute_paramsP11ggml_tensorllll
000000000004cf34 W _ZN4ggml3cpu6repack13tensor_traitsI10block_q4_KLl4ELl8EL9ggml_type15EE6repackEP11ggml_tensorPKvm
000000000004ce40 W _ZN4ggml3cpu6repack13tensor_traitsI10block_q4_KLl4ELl8EL9ggml_type15EE9work_sizeEiPK11ggml_tensorRm
000000000004ce18 W _ZN4ggml3cpu6repack13tensor_traitsI10block_q4_KLl4ELl8EL9ggml_type15EED0Ev
000000000004d074 W _ZN4ggml3cpu6repack13tensor_traitsI10block_q4_KLl8ELl8EL9ggml_type15EE15compute_forwardEP19ggml_compute_paramsP11ggml_tensor
0000000000052670 W _ZN4ggml3cpu6repack13tensor_traitsI10block_q4_KLl8ELl8EL9ggml_type15EE15forward_mul_matEP19ggml_compute_paramsP11ggml_tensor
0000000000053264 W _ZN4ggml3cpu6repack13tensor_traitsI10block_q4_KLl8ELl8EL9ggml_type15EE18forward_mul_mat_idEP19ggml_compute_paramsP11ggml_tensor
00000000000538c0 W _ZN4ggml3cpu6repack13tensor_traitsI10block_q4_KLl8ELl8EL9ggml_type15EE25forward_mul_mat_one_chunkEP19ggml_compute_paramsP11ggml_tensorllll
000000000004d0bc W _ZN4ggml3cpu6repack13tensor_traitsI10block_q4_KLl8ELl8EL9ggml_type15EE6repackEP11ggml_tensorPKvm
000000000004cfc8 W _ZN4ggml3cpu6repack13tensor_traitsI10block_q4_KLl8ELl8EL9ggml_type15EE9work_sizeEiPK11ggml_tensorRm
000000000004cfa0 W _ZN4ggml3cpu6repack13tensor_traitsI10block_q4_KLl8ELl8EL9ggml_type15EED0Ev
000000000004d1fc W _ZN4ggml3cpu6repack13tensor_traitsI10block_q5_KLl4ELl8EL9ggml_type15EE15compute_forwardEP19ggml_compute_paramsP11ggml_tensor
0000000000053b48 W _ZN4ggml3cpu6repack13tensor_traitsI10block_q5_KLl4ELl8EL9ggml_type15EE15forward_mul_matEP19ggml_compute_paramsP11ggml_tensor
000000000005473c W _ZN4ggml3cpu6repack13tensor_traitsI10block_q5_KLl4ELl8EL9ggml_type15EE18forward_mul_mat_idEP19ggml_compute_paramsP11ggml_tensor
0000000000054d98 W _ZN4ggml3cpu6repack13tensor_traitsI10block_q5_KLl4ELl8EL9ggml_type15EE25forward_mul_mat_one_chunkEP19ggml_compute_paramsP11ggml_tensorllll
000000000004d244 W _ZN4ggml3cpu6repack13tensor_traitsI10block_q5_KLl4ELl8EL9ggml_type15EE6repackEP11ggml_tensorPKvm
000000000004d150 W _ZN4ggml3cpu6repack13tensor_traitsI10block_q5_KLl4ELl8EL9ggml_type15EE9work_sizeEiPK11ggml_tensorRm
000000000004d128 W _ZN4ggml3cpu6repack13tensor_traitsI10block_q5_KLl4ELl8EL9ggml_type15EED0Ev
000000000004d384 W _ZN4ggml3cpu6repack13tensor_traitsI10block_q5_KLl8ELl8EL9ggml_type15EE15compute_forwardEP19ggml_compute_paramsP11ggml_tensor
0000000000055020 W _ZN4ggml3cpu6repack13tensor_traitsI10block_q5_KLl8ELl8EL9ggml_type15EE15forward_mul_matEP19ggml_compute_paramsP11ggml_tensor
0000000000055c14 W _ZN4ggml3cpu6repack13tensor_traitsI10block_q5_KLl8ELl8EL9ggml_type15EE18forward_mul_mat_idEP19ggml_compute_paramsP11ggml_tensor
0000000000056270 W _ZN4ggml3cpu6repack13tensor_traitsI10block_q5_KLl8ELl8EL9ggml_type15EE25forward_mul_mat_one_chunkEP19ggml_compute_paramsP11ggml_tensorllll
000000000004d3cc W _ZN4ggml3cpu6repack13tensor_traitsI10block_q5_KLl8ELl8EL9ggml_type15EE6repackEP11ggml_tensorPKvm
000000000004d2d8 W _ZN4ggml3cpu6repack13tensor_traitsI10block_q5_KLl8ELl8EL9ggml_type15EE9work_sizeEiPK11ggml_tensorRm
000000000004d2b0 W _ZN4ggml3cpu6repack13tensor_traitsI10block_q5_KLl8ELl8EL9ggml_type15EED0Ev
000000000004d50c W _ZN4ggml3cpu6repack13tensor_traitsI10block_q6_KLl4ELl8EL9ggml_type15EE15compute_forwardEP19ggml_compute_paramsP11ggml_tensor
00000000000564f8 W _ZN4ggml3cpu6repack13tensor_traitsI10block_q6_KLl4ELl8EL9ggml_type15EE15forward_mul_matEP19ggml_compute_paramsP11ggml_tensor
00000000000570ec W _ZN4ggml3cpu6repack13tensor_traitsI10block_q6_KLl4ELl8EL9ggml_type15EE18forward_mul_mat_idEP19ggml_compute_paramsP11ggml_tensor
0000000000057748 W _ZN4ggml3cpu6repack13tensor_traitsI10block_q6_KLl4ELl8EL9ggml_type15EE25forward_mul_mat_one_chunkEP19ggml_compute_paramsP11ggml_tensorllll
000000000004d554 W _ZN4ggml3cpu6repack13tensor_traitsI10block_q6_KLl4ELl8EL9ggml_type15EE6repackEP11ggml_tensorPKvm
000000000004d460 W _ZN4ggml3cpu6repack13tensor_traitsI10block_q6_KLl4ELl8EL9ggml_type15EE9work_sizeEiPK11ggml_tensorRm
000000000004d438 W _ZN4ggml3cpu6repack13tensor_traitsI10block_q6_KLl4ELl8EL9ggml_type15EED0Ev
000000000004d694 W _ZN4ggml3cpu6repack13tensor_traitsI10block_q6_KLl8ELl8EL9ggml_type15EE15compute_forwardEP19ggml_compute_paramsP11ggml_tensor
00000000000579d0 W _ZN4ggml3cpu6repack13tensor_traitsI10block_q6_KLl8ELl8EL9ggml_type15EE15forward_mul_matEP19ggml_compute_paramsP11ggml_tensor
00000000000585c4 W _ZN4ggml3cpu6repack13tensor_traitsI10block_q6_KLl8ELl8EL9ggml_type15EE18forward_mul_mat_idEP19ggml_compute_paramsP11ggml_tensor
0000000000058c20 W _ZN4ggml3cpu6repack13tensor_traitsI10block_q6_KLl8ELl8EL9ggml_type15EE25forward_mul_mat_one_chunkEP19ggml_compute_paramsP11ggml_tensorllll
000000000004d6dc W _ZN4ggml3cpu6repack13tensor_traitsI10block_q6_KLl8ELl8EL9ggml_type15EE6repackEP11ggml_tensorPKvm
000000000004d5e8 W _ZN4ggml3cpu6repack13tensor_traitsI10block_q6_KLl8ELl8EL9ggml_type15EE9work_sizeEiPK11ggml_tensorRm
000000000004d5c0 W _ZN4ggml3cpu6repack13tensor_traitsI10block_q6_KLl8ELl8EL9ggml_type15EED0Ev
000000000004dfb0 W _ZN4ggml3cpu6repack13tensor_traitsI10block_q8_0Ll4ELl4EL9ggml_type8EE15compute_forwardEP19ggml_compute_paramsP11ggml_tensor
000000000005e31c W _ZN4ggml3cpu6repack13tensor_traitsI10block_q8_0Ll4ELl4EL9ggml_type8EE15forward_mul_matEP19ggml_compute_paramsP11ggml_tensor
000000000005ea1c W _ZN4ggml3cpu6repack13tensor_traitsI10block_q8_0Ll4ELl4EL9ggml_type8EE18forward_mul_mat_idEP19ggml_compute_paramsP11ggml_tensor
000000000005f078 W _ZN4ggml3cpu6repack13tensor_traitsI10block_q8_0Ll4ELl4EL9ggml_type8EE25forward_mul_mat_one_chunkEP19ggml_compute_paramsP11ggml_tensorllll
000000000004dff8 W _ZN4ggml3cpu6repack13tensor_traitsI10block_q8_0Ll4ELl4EL9ggml_type8EE6repackEP11ggml_tensorPKvm
000000000004df04 W _ZN4ggml3cpu6repack13tensor_traitsI10block_q8_0Ll4ELl4EL9ggml_type8EE9work_sizeEiPK11ggml_tensorRm
000000000004dedc W _ZN4ggml3cpu6repack13tensor_traitsI10block_q8_0Ll4ELl4EL9ggml_type8EED0Ev
000000000004e138 W _ZN4ggml3cpu6repack13tensor_traitsI10block_q8_0Ll8ELl4EL9ggml_type8EE15compute_forwardEP19ggml_compute_paramsP11ggml_tensor
000000000005f300 W _ZN4ggml3cpu6repack13tensor_traitsI10block_q8_0Ll8ELl4EL9ggml_type8EE15forward_mul_matEP19ggml_compute_paramsP11ggml_tensor
000000000005fa00 W _ZN4ggml3cpu6repack13tensor_traitsI10block_q8_0Ll8ELl4EL9ggml_type8EE18forward_mul_mat_idEP19ggml_compute_paramsP11ggml_tensor
000000000006005c W _ZN4ggml3cpu6repack13tensor_traitsI10block_q8_0Ll8ELl4EL9ggml_type8EE25forward_mul_mat_one_chunkEP19ggml_compute_paramsP11ggml_tensorllll
000000000004e180 W _ZN4ggml3cpu6repack13tensor_traitsI10block_q8_0Ll8ELl4EL9ggml_type8EE6repackEP11ggml_tensorPKvm
000000000004e08c W _ZN4ggml3cpu6repack13tensor_traitsI10block_q8_0Ll8ELl4EL9ggml_type8EE9work_sizeEiPK11ggml_tensorRm
000000000004e064 W _ZN4ggml3cpu6repack13tensor_traitsI10block_q8_0Ll8ELl4EL9ggml_type8EED0Ev
000000000004dca8 W _ZN4ggml3cpu6repack13tensor_traitsI11block_mxfp4Ll4ELl4EL9ggml_type8EE15compute_forwardEP19ggml_compute_paramsP11ggml_tensor
000000000005c350 W _ZN4ggml3cpu6repack13tensor_traitsI11block_mxfp4Ll4ELl4EL9ggml_type8EE15forward_mul_matEP19ggml_compute_paramsP11ggml_tensor
000000000005ca50 W _ZN4ggml3cpu6repack13tensor_traitsI11block_mxfp4Ll4ELl4EL9ggml_type8EE18forward_mul_mat_idEP19ggml_compute_paramsP11ggml_tensor
000000000005d0ac W _ZN4ggml3cpu6repack13tensor_traitsI11block_mxfp4Ll4ELl4EL9ggml_type8EE25forward_mul_mat_one_chunkEP19ggml_compute_paramsP11ggml_tensorllll
000000000004dcf0 W _ZN4ggml3cpu6repack13tensor_traitsI11block_mxfp4Ll4ELl4EL9ggml_type8EE6repackEP11ggml_tensorPKvm
000000000004dbfc W _ZN4ggml3cpu6repack13tensor_traitsI11block_mxfp4Ll4ELl4EL9ggml_type8EE9work_sizeEiPK11ggml_tensorRm
000000000004dbd4 W _ZN4ggml3cpu6repack13tensor_traitsI11block_mxfp4Ll4ELl4EL9ggml_type8EED0Ev
000000000004de2c W _ZN4ggml3cpu6repack13tensor_traitsI11block_mxfp4Ll8ELl8EL9ggml_type8EE15compute_forwardEP19ggml_compute_paramsP11ggml_tensor
000000000005d334 W _ZN4ggml3cpu6repack13tensor_traitsI11block_mxfp4Ll8ELl8EL9ggml_type8EE15forward_mul_matEP19ggml_compute_paramsP11ggml_tensor
000000000005da34 W _ZN4ggml3cpu6repack13tensor_traitsI11block_mxfp4Ll8ELl8EL9ggml_type8EE18forward_mul_mat_idEP19ggml_compute_paramsP11ggml_tensor
000000000005e098 W _ZN4ggml3cpu6repack13tensor_traitsI11block_mxfp4Ll8ELl8EL9ggml_type8EE25forward_mul_mat_one_chunkEP19ggml_compute_paramsP11ggml_tensorllll
000000000004de74 W _ZN4ggml3cpu6repack13tensor_traitsI11block_mxfp4Ll8ELl8EL9ggml_type8EE6repackEP11ggml_tensorPKvm
000000000004dd80 W _ZN4ggml3cpu6repack13tensor_traitsI11block_mxfp4Ll8ELl8EL9ggml_type8EE9work_sizeEiPK11ggml_tensorRm
000000000004dd58 W _ZN4ggml3cpu6repack13tensor_traitsI11block_mxfp4Ll8ELl8EL9ggml_type8EED0Ev
000000000004d9a0 W _ZN4ggml3cpu6repack13tensor_traitsI12block_iq4_nlLl4ELl4EL9ggml_type8EE15compute_forwardEP19ggml_compute_paramsP11ggml_tensor
000000000005a384 W _ZN4ggml3cpu6repack13tensor_traitsI12block_iq4_nlLl4ELl4EL9ggml_type8EE15forward_mul_matEP19ggml_compute_paramsP11ggml_tensor
000000000005aa84 W _ZN4ggml3cpu6repack13tensor_traitsI12block_iq4_nlLl4ELl4EL9ggml_type8EE18forward_mul_mat_idEP19ggml_compute_paramsP11ggml_tensor
000000000005b0e0 W _ZN4ggml3cpu6repack13tensor_traitsI12block_iq4_nlLl4ELl4EL9ggml_type8EE25forward_mul_mat_one_chunkEP19ggml_compute_paramsP11ggml_tensorllll
000000000004d9e8 W _ZN4ggml3cpu6repack13tensor_traitsI12block_iq4_nlLl4ELl4EL9ggml_type8EE6repackEP11ggml_tensorPKvm
000000000004d8f4 W _ZN4ggml3cpu6repack13tensor_traitsI12block_iq4_nlLl4ELl4EL9ggml_type8EE9work_sizeEiPK11ggml_tensorRm
000000000004d8cc W _ZN4ggml3cpu6repack13tensor_traitsI12block_iq4_nlLl4ELl4EL9ggml_type8EED0Ev
000000000004db24 W _ZN4ggml3cpu6repack13tensor_traitsI12block_iq4_nlLl8ELl8EL9ggml_type8EE15compute_forwardEP19ggml_compute_paramsP11ggml_tensor
000000000005b368 W _ZN4ggml3cpu6repack13tensor_traitsI12block_iq4_nlLl8ELl8EL9ggml_type8EE15forward_mul_matEP19ggml_compute_paramsP11ggml_tensor
000000000005ba68 W _ZN4ggml3cpu6repack13tensor_traitsI12block_iq4_nlLl8ELl8EL9ggml_type8EE18forward_mul_mat_idEP19ggml_compute_paramsP11ggml_tensor
000000000005c0cc W _ZN4ggml3cpu6repack13tensor_traitsI12block_iq4_nlLl8ELl8EL9ggml_type8EE25forward_mul_mat_one_chunkEP19ggml_compute_paramsP11ggml_tensorllll
000000000004db6c W _ZN4ggml3cpu6repack13tensor_traitsI12block_iq4_nlLl8ELl8EL9ggml_type8EE6repackEP11ggml_tensorPKvm
000000000004da78 W _ZN4ggml3cpu6repack13tensor_traitsI12block_iq4_nlLl8ELl8EL9ggml_type8EE9work_sizeEiPK11ggml_tensorRm
000000000004da50 W _ZN4ggml3cpu6repack13tensor_traitsI12block_iq4_nlLl8ELl8EL9ggml_type8EED0Ev
000000000006030c W _ZN4ggml3cpu6repack17extra_buffer_type11supports_opEP19ggml_backend_devicePK11ggml_tensor
0000000000060434 W _ZN4ggml3cpu6repack17extra_buffer_type17get_tensor_traitsEPK11ggml_tensor
00000000000602e4 W _ZN4ggml3cpu6repack17extra_buffer_typeD0Ev
000000000004bed8 T _ZN4ggml3cpu6repack4gemmI10block_q2_KLl8ELl8EL9ggml_type15EEEviPfmPKvS7_ii
000000000004becc T _ZN4ggml3cpu6repack4gemmI10block_q4_0Ll4ELl4EL9ggml_type8EEEviPfmPKvS7_ii
000000000004bed0 T _ZN4ggml3cpu6repack4gemmI10block_q4_0Ll8ELl4EL9ggml_type8EEEviPfmPKvS7_ii
000000000004bed4 T _ZN4ggml3cpu6repack4gemmI10block_q4_0Ll8ELl8EL9ggml_type8EEEviPfmPKvS7_ii
000000000004bedc T _ZN4ggml3cpu6repack4gemmI10block_q4_KLl4ELl8EL9ggml_type15EEEviPfmPKvS7_ii
000000000004bee0 T _ZN4ggml3cpu6repack4gemmI10block_q4_KLl8ELl8EL9ggml_type15EEEviPfmPKvS7_ii
000000000004bee4 T _ZN4ggml3cpu6repack4gemmI10block_q5_KLl4ELl8EL9ggml_type15EEEviPfmPKvS7_ii
000000000004bee8 T _ZN4ggml3cpu6repack4gemmI10block_q5_KLl8ELl8EL9ggml_type15EEEviPfmPKvS7_ii
000000000004beec T _ZN4ggml3cpu6repack4gemmI10block_q6_KLl4ELl8EL9ggml_type15EEEviPfmPKvS7_ii
000000000004bef0 T _ZN4ggml3cpu6repack4gemmI10block_q6_KLl8ELl8EL9ggml_type15EEEviPfmPKvS7_ii
000000000004bf04 T _ZN4ggml3cpu6repack4gemmI10block_q8_0Ll4ELl4EL9ggml_type8EEEviPfmPKvS7_ii
000000000004bf08 T _ZN4ggml3cpu6repack4gemmI10block_q8_0Ll8ELl4EL9ggml_type8EEEviPfmPKvS7_ii
000000000004befc T _ZN4ggml3cpu6repack4gemmI11block_mxfp4Ll4ELl4EL9ggml_type8EEEviPfmPKvS7_ii
000000000004bf00 T _ZN4ggml3cpu6repack4gemmI11block_mxfp4Ll8ELl8EL9ggml_type8EEEviPfmPKvS7_ii
000000000004bef4 T _ZN4ggml3cpu6repack4gemmI12block_iq4_nlLl4ELl4EL9ggml_type8EEEviPfmPKvS7_ii
000000000004bef8 T _ZN4ggml3cpu6repack4gemmI12block_iq4_nlLl8ELl8EL9ggml_type8EEEviPfmPKvS7_ii
000000000004be98 T _ZN4ggml3cpu6repack4gemvI10block_q2_KLl8ELl8EL9ggml_type15EEEviPfmPKvS7_ii
000000000004be8c T _ZN4ggml3cpu6repack4gemvI10block_q4_0Ll4ELl4EL9ggml_type8EEEviPfmPKvS7_ii
000000000004be90 T _ZN4ggml3cpu6repack4gemvI10block_q4_0Ll8ELl4EL9ggml_type8EEEviPfmPKvS7_ii
000000000004be94 T _ZN4ggml3cpu6repack4gemvI10block_q4_0Ll8ELl8EL9ggml_type8EEEviPfmPKvS7_ii
000000000004be9c T _ZN4ggml3cpu6repack4gemvI10block_q4_KLl4ELl8EL9ggml_type15EEEviPfmPKvS7_ii
000000000004bea0 T _ZN4ggml3cpu6repack4gemvI10block_q4_KLl8ELl8EL9ggml_type15EEEviPfmPKvS7_ii
000000000004bea4 T _ZN4ggml3cpu6repack4gemvI10block_q5_KLl4ELl8EL9ggml_type15EEEviPfmPKvS7_ii
000000000004bea8 T _ZN4ggml3cpu6repack4gemvI10block_q5_KLl8ELl8EL9ggml_type15EEEviPfmPKvS7_ii
000000000004beac T _ZN4ggml3cpu6repack4gemvI10block_q6_KLl4ELl8EL9ggml_type15EEEviPfmPKvS7_ii
000000000004beb0 T _ZN4ggml3cpu6repack4gemvI10block_q6_KLl8ELl8EL9ggml_type15EEEviPfmPKvS7_ii
000000000004bec4 T _ZN4ggml3cpu6repack4gemvI10block_q8_0Ll4ELl4EL9ggml_type8EEEviPfmPKvS7_ii
000000000004bec8 T _ZN4ggml3cpu6repack4gemvI10block_q8_0Ll8ELl4EL9ggml_type8EEEviPfmPKvS7_ii
000000000004bebc T _ZN4ggml3cpu6repack4gemvI11block_mxfp4Ll4ELl4EL9ggml_type8EEEviPfmPKvS7_ii
000000000004bec0 T _ZN4ggml3cpu6repack4gemvI11block_mxfp4Ll8ELl8EL9ggml_type8EEEviPfmPKvS7_ii
000000000004beb4 T _ZN4ggml3cpu6repack4gemvI12block_iq4_nlLl4ELl4EL9ggml_type8EEEviPfmPKvS7_ii
000000000004beb8 T _ZN4ggml3cpu6repack4gemvI12block_iq4_nlLl8ELl8EL9ggml_type8EEEviPfmPKvS7_ii
000000000004997c T _ZN4ggml3cpu6repack6repackI10block_q2_KLl8ELl8EEEiP11ggml_tensorPKvm
00000000000488bc T _ZN4ggml3cpu6repack6repackI10block_q4_0Ll4ELl4EEEiP11ggml_tensorPKvm
0000000000048bfc T _ZN4ggml3cpu6repack6repackI10block_q4_0Ll8ELl4EEEiP11ggml_tensorPKvm
0000000000048c0c T _ZN4ggml3cpu6repack6repackI10block_q4_0Ll8ELl8EEEiP11ggml_tensorPKvm
000000000004996c T _ZN4ggml3cpu6repack6repackI10block_q4_KLl4ELl8EEEiP11ggml_tensorPKvm
0000000000048ea0 T _ZN4ggml3cpu6repack6repackI10block_q4_KLl8ELl8EEEiP11ggml_tensorPKvm
0000000000049dc8 T _ZN4ggml3cpu6repack6repackI10block_q5_KLl4ELl8EEEiP11ggml_tensorPKvm
000000000004a950 T _ZN4ggml3cpu6repack6repackI10block_q5_KLl8ELl8EEEiP11ggml_tensorPKvm
000000000004a960 T _ZN4ggml3cpu6repack6repackI10block_q6_KLl4ELl8EEEiP11ggml_tensorPKvm
000000000004b364 T _ZN4ggml3cpu6repack6repackI10block_q6_KLl8ELl8EEEiP11ggml_tensorPKvm
000000000004bb30 T _ZN4ggml3cpu6repack6repackI10block_q8_0Ll4ELl4EEEiP11ggml_tensorPKvm
000000000004be7c T _ZN4ggml3cpu6repack6repackI10block_q8_0Ll8ELl4EEEiP11ggml_tensorPKvm
000000000004b760 T _ZN4ggml3cpu6repack6repackI11block_mxfp4Ll4ELl4EEEiP11ggml_tensorPKvm
000000000004b8f8 T _ZN4ggml3cpu6repack6repackI11block_mxfp4Ll8ELl8EEEiP11ggml_tensorPKvm
000000000004b374 T _ZN4ggml3cpu6repack6repackI12block_iq4_nlLl4ELl4EEEiP11ggml_tensorPKvm
000000000004b518 T _ZN4ggml3cpu6repack6repackI12block_iq4_nlLl8ELl8EEEiP11ggml_tensorPKvm
00000000000a4828 W _ZNSt6__ndk111__introsortINS_17_ClassicAlgPolicyER11cmp_argsortIL15ggml_sort_order0EEPiLb0EEEvT1_S7_T0_NS_15iterator_traitsIS7_E15difference_typeEb
00000000000a59e8 W _ZNSt6__ndk111__introsortINS_17_ClassicAlgPolicyER11cmp_argsortIL15ggml_sort_order1EEPiLb0EEEvT1_S7_T0_NS_15iterator_traitsIS7_E15difference_typeEb
00000000000d7ee0 D _ZTIN4ggml3cpu13tensor_traitsE
00000000000d7f20 D _ZTIN4ggml3cpu17extra_buffer_typeE
00000000000d7db0 V _ZTIN4ggml3cpu6repack13tensor_traitsI10block_q2_KLl8ELl8EL9ggml_type15EEE
00000000000d7cd8 V _ZTIN4ggml3cpu6repack13tensor_traitsI10block_q4_0Ll4ELl4EL9ggml_type8EEE
00000000000d7cf0 V _ZTIN4ggml3cpu6repack13tensor_traitsI10block_q4_0Ll8ELl4EL9ggml_type8EEE
00000000000d7d08 V _ZTIN4ggml3cpu6repack13tensor_traitsI10block_q4_0Ll8ELl8EL9ggml_type8EEE
00000000000d7d20 V _ZTIN4ggml3cpu6repack13tensor_traitsI10block_q4_KLl4ELl8EL9ggml_type15EEE
00000000000d7d38 V _ZTIN4ggml3cpu6repack13tensor_traitsI10block_q4_KLl8ELl8EL9ggml_type15EEE
00000000000d7d50 V _ZTIN4ggml3cpu6repack13tensor_traitsI10block_q5_KLl4ELl8EL9ggml_type15EEE
00000000000d7d68 V _ZTIN4ggml3cpu6repack13tensor_traitsI10block_q5_KLl8ELl8EL9ggml_type15EEE
00000000000d7d80 V _ZTIN4ggml3cpu6repack13tensor_traitsI10block_q6_KLl4ELl8EL9ggml_type15EEE
00000000000d7d98 V _ZTIN4ggml3cpu6repack13tensor_traitsI10block_q6_KLl8ELl8EL9ggml_type15EEE
00000000000d7e28 V _ZTIN4ggml3cpu6repack13tensor_traitsI10block_q8_0Ll4ELl4EL9ggml_type8EEE
00000000000d7e40 V _ZTIN4ggml3cpu6repack13tensor_traitsI10block_q8_0Ll8ELl4EL9ggml_type8EEE
00000000000d7df8 V _ZTIN4ggml3cpu6repack13tensor_traitsI11block_mxfp4Ll4ELl4EL9ggml_type8EEE
00000000000d7e10 V _ZTIN4ggml3cpu6repack13tensor_traitsI11block_mxfp4Ll8ELl8EL9ggml_type8EEE
00000000000d7dc8 V _ZTIN4ggml3cpu6repack13tensor_traitsI12block_iq4_nlLl4ELl4EL9ggml_type8EEE
00000000000d7de0 V _ZTIN4ggml3cpu6repack13tensor_traitsI12block_iq4_nlLl8ELl8EL9ggml_type8EEE
00000000000d7e88 V _ZTIN4ggml3cpu6repack17extra_buffer_typeE
00000000000d7cc0 V _ZTIN4ggml3cpu6repack18tensor_traits_baseE
000000000001dc50 R _ZTSN4ggml3cpu13tensor_traitsE
000000000001dc6b R _ZTSN4ggml3cpu17extra_buffer_typeE
00000000000155be V _ZTSN4ggml3cpu6repack13tensor_traitsI10block_q2_KLl8ELl8EL9ggml_type15EEE
0000000000015324 V _ZTSN4ggml3cpu6repack13tensor_traitsI10block_q4_0Ll4ELl4EL9ggml_type8EEE
0000000000015390 V _ZTSN4ggml3cpu6repack13tensor_traitsI10block_q4_0Ll8ELl4EL9ggml_type8EEE
00000000000153d5 V _ZTSN4ggml3cpu6repack13tensor_traitsI10block_q4_0Ll8ELl8EL9ggml_type8EEE
000000000001541a V _ZTSN4ggml3cpu6repack13tensor_traitsI10block_q4_KLl4ELl8EL9ggml_type15EEE
0000000000015460 V _ZTSN4ggml3cpu6repack13tensor_traitsI10block_q4_KLl8ELl8EL9ggml_type15EEE
00000000000154a6 V _ZTSN4ggml3cpu6repack13tensor_traitsI10block_q5_KLl4ELl8EL9ggml_type15EEE
00000000000154ec V _ZTSN4ggml3cpu6repack13tensor_traitsI10block_q5_KLl8ELl8EL9ggml_type15EEE
0000000000015532 V _ZTSN4ggml3cpu6repack13tensor_traitsI10block_q6_KLl4ELl8EL9ggml_type15EEE
0000000000015578 V _ZTSN4ggml3cpu6repack13tensor_traitsI10block_q6_KLl8ELl8EL9ggml_type15EEE
000000000001571e V _ZTSN4ggml3cpu6repack13tensor_traitsI10block_q8_0Ll4ELl4EL9ggml_type8EEE
0000000000015763 V _ZTSN4ggml3cpu6repack13tensor_traitsI10block_q8_0Ll8ELl4EL9ggml_type8EEE
0000000000015692 V _ZTSN4ggml3cpu6repack13tensor_traitsI11block_mxfp4Ll4ELl4EL9ggml_type8EEE
00000000000156d8 V _ZTSN4ggml3cpu6repack13tensor_traitsI11block_mxfp4Ll8ELl8EL9ggml_type8EEE
0000000000015604 V _ZTSN4ggml3cpu6repack13tensor_traitsI12block_iq4_nlLl4ELl4EL9ggml_type8EEE
000000000001564b V _ZTSN4ggml3cpu6repack13tensor_traitsI12block_iq4_nlLl8ELl8EL9ggml_type8EEE
00000000000157a8 V _ZTSN4ggml3cpu6repack17extra_buffer_typeE
0000000000015369 V _ZTSN4ggml3cpu6repack18tensor_traits_baseE
00000000000d7eb0 D _ZTVN4ggml3cpu13tensor_traitsE
00000000000d7ef0 D _ZTVN4ggml3cpu17extra_buffer_typeE
00000000000d7b38 V _ZTVN4ggml3cpu6repack13tensor_traitsI10block_q2_KLl8ELl8EL9ggml_type15EEE
00000000000d7940 V _ZTVN4ggml3cpu6repack13tensor_traitsI10block_q4_0Ll4ELl4EL9ggml_type8EEE
00000000000d7978 V _ZTVN4ggml3cpu6repack13tensor_traitsI10block_q4_0Ll8ELl4EL9ggml_type8EEE
00000000000d79b0 V _ZTVN4ggml3cpu6repack13tensor_traitsI10block_q4_0Ll8ELl8EL9ggml_type8EEE
00000000000d79e8 V _ZTVN4ggml3cpu6repack13tensor_traitsI10block_q4_KLl4ELl8EL9ggml_type15EEE
00000000000d7a20 V _ZTVN4ggml3cpu6repack13tensor_traitsI10block_q4_KLl8ELl8EL9ggml_type15EEE
00000000000d7a58 V _ZTVN4ggml3cpu6repack13tensor_traitsI10block_q5_KLl4ELl8EL9ggml_type15EEE
00000000000d7a90 V _ZTVN4ggml3cpu6repack13tensor_traitsI10block_q5_KLl8ELl8EL9ggml_type15EEE
00000000000d7ac8 V _ZTVN4ggml3cpu6repack13tensor_traitsI10block_q6_KLl4ELl8EL9ggml_type15EEE
00000000000d7b00 V _ZTVN4ggml3cpu6repack13tensor_traitsI10block_q6_KLl8ELl8EL9ggml_type15EEE
00000000000d7c50 V _ZTVN4ggml3cpu6repack13tensor_traitsI10block_q8_0Ll4ELl4EL9ggml_type8EEE
00000000000d7c88 V _ZTVN4ggml3cpu6repack13tensor_traitsI10block_q8_0Ll8ELl4EL9ggml_type8EEE
00000000000d7be0 V _ZTVN4ggml3cpu6repack13tensor_traitsI11block_mxfp4Ll4ELl4EL9ggml_type8EEE
00000000000d7c18 V _ZTVN4ggml3cpu6repack13tensor_traitsI11block_mxfp4Ll8ELl8EL9ggml_type8EEE
00000000000d7b70 V _ZTVN4ggml3cpu6repack13tensor_traitsI12block_iq4_nlLl4ELl4EL9ggml_type8EEE
00000000000d7ba8 V _ZTVN4ggml3cpu6repack13tensor_traitsI12block_iq4_nlLl8ELl8EL9ggml_type8EEE
00000000000d7e58 V _ZTVN4ggml3cpu6repack17extra_buffer_typeE

######################################################################
## android-arm64-cpu / libggml.so
######################################################################
000000000000b908 T ggml_backend_dev_by_name
000000000000ba48 T ggml_backend_dev_by_type
000000000000b738 T ggml_backend_dev_count
000000000000b7d0 T ggml_backend_dev_get
000000000000b278 T ggml_backend_device_register
000000000000bb98 T ggml_backend_init_best
000000000000bb30 T ggml_backend_init_by_name
000000000000bb64 T ggml_backend_init_by_type
000000000000bbd4 T ggml_backend_load
000000000000c400 T ggml_backend_load_all
000000000000c408 T ggml_backend_load_all_from_path
000000000000b600 T ggml_backend_reg_by_name
000000000000b42c T ggml_backend_reg_count
000000000000b4c4 T ggml_backend_reg_get
000000000000b024 T ggml_backend_register
000000000000c19c T ggml_backend_unload
0000000000006eb2 V __llvm_fs_discriminator__
000000000000aedc T _Z10dl_get_symPvPKc
000000000000ae00 T _Z15dl_load_libraryRKNSt6__ndk14__fs10filesystem4pathE
000000000000aee0 T _Z8dl_errorv
000000000000bd18 W _ZN21ggml_backend_registry12load_backendERKNSt6__ndk14__fs10filesystem4pathEb
000000000000c234 W _ZN21ggml_backend_registry14unload_backendEP16ggml_backend_regb
000000000000b320 W _ZN21ggml_backend_registry15register_deviceEP19ggml_backend_device
000000000000b128 W _ZN21ggml_backend_registry16register_backendEP16ggml_backend_regNSt6__ndk110unique_ptrIv17dl_handle_deleterEE
000000000000dcd0 W _ZN21ggml_backend_registryC2Ev
000000000000dda0 W _ZN21ggml_backend_registryD2Ev
000000000000def4 W _ZN22ggml_backend_reg_entryD2Ev
0000000000011350 T _ZNKSt6__ndk14__fs10filesystem18directory_iterator13__dereferenceEv
0000000000011a9c T _ZNKSt6__ndk14__fs10filesystem28recursive_directory_iterator13__dereferenceEv
0000000000011a88 T _ZNKSt6__ndk14__fs10filesystem28recursive_directory_iterator5depthEv
0000000000011a78 T _ZNKSt6__ndk14__fs10filesystem28recursive_directory_iterator7optionsEv
000000000000ed84 T _ZNKSt6__ndk14__fs10filesystem4path10__filenameEv
000000000000ef5c T _ZNKSt6__ndk14__fs10filesystem4path11__extensionEv
000000000000e99c T _ZNKSt6__ndk14__fs10filesystem4path11__root_nameEv
000000000000ec48 T _ZNKSt6__ndk14__fs10filesystem4path13__parent_pathEv
000000000000eb90 T _ZNKSt6__ndk14__fs10filesystem4path15__relative_pathEv
000000000000eaa0 T _ZNKSt6__ndk14__fs10filesystem4path15__root_path_rawEv
000000000000f018 T _ZNKSt6__ndk14__fs10filesystem4path16lexically_normalEv
000000000000ea00 T _ZNKSt6__ndk14__fs10filesystem4path16__root_directoryEv
000000000000f5a8 T _ZNKSt6__ndk14__fs10filesystem4path18lexically_relativeERKS2_
000000000001006c T _ZNKSt6__ndk14__fs10filesystem4path3endEv
000000000000fef8 T _ZNKSt6__ndk14__fs10filesystem4path5beginEv
000000000000eec0 T _ZNKSt6__ndk14__fs10filesystem4path6__stemEv
000000000000faf0 T _ZNKSt6__ndk14__fs10filesystem4path9__compareENS_17basic_string_viewIcNS_11char_traitsIcEEEE
000000000001406c T _ZNSt6__ndk14__fs10filesystem10__absoluteERKNS1_4pathEPNS_10error_codeE
000000000000fde8 T _ZNSt6__ndk14__fs10filesystem10hash_valueERKNS1_4pathE
0000000000014230 T _ZNSt6__ndk14__fs10filesystem11__canonicalERKNS1_4pathEPNS_10error_codeE
0000000000014ec4 T _ZNSt6__ndk14__fs10filesystem11__copy_fileERKNS1_4pathES4_NS1_12copy_optionsEPNS_10error_codeE
0000000000016338 T _ZNSt6__ndk14__fs10filesystem11__file_sizeERKNS1_4pathEPNS_10error_codeE
000000000001613c T _ZNSt6__ndk14__fs10filesystem12__equivalentERKNS1_4pathES4_PNS_10error_codeE
0000000000016c68 T _ZNSt6__ndk14__fs10filesystem12__remove_allERKNS1_4pathEPNS_10error_codeE
00000000000165a4 T _ZNSt6__ndk14__fs10filesystem13__fs_is_emptyERKNS1_4pathEPNS_10error_codeE
0000000000016aa4 T _ZNSt6__ndk14__fs10filesystem13__permissionsERKNS1_4pathENS1_5permsENS1_12perm_optionsEPNS_10error_codeE
000000000001711c T _ZNSt6__ndk14__fs10filesystem13__resize_fileERKNS1_4pathEmPNS_10error_codeE
0000000000014ce8 T _ZNSt6__ndk14__fs10filesystem14__copy_symlinkERKNS1_4pathES4_PNS_10error_codeE
0000000000015ebc T _ZNSt6__ndk14__fs10filesystem14__current_pathEPNS_10error_codeE
00000000000160b4 T _ZNSt6__ndk14__fs10filesystem14__current_pathERKNS1_4pathEPNS_10error_codeE
0000000000015880 T _ZNSt6__ndk14__fs10filesystem14__read_symlinkERKNS1_4pathEPNS_10error_codeE
0000000000014d7c T _ZNSt6__ndk14__fs10filesystem16__create_symlinkERKNS1_4pathES4_PNS_10error_codeE
0000000000013e88 T _ZNSt6__ndk14__fs10filesystem16filesystem_error13__create_whatEi
0000000000013e58 T _ZNSt6__ndk14__fs10filesystem16filesystem_errorD0Ev
0000000000013df0 T _ZNSt6__ndk14__fs10filesystem16filesystem_errorD1Ev
0000000000013df0 T _ZNSt6__ndk14__fs10filesystem16filesystem_errorD2Ev
0000000000017314 T _ZNSt6__ndk14__fs10filesystem16__symlink_statusERKNS1_4pathEPNS_10error_codeE
0000000000016514 T _ZNSt6__ndk14__fs10filesystem17__hard_link_countERKNS1_4pathEPNS_10error_codeE
0000000000016910 T _ZNSt6__ndk14__fs10filesystem17__last_write_timeERKNS1_4pathENS_6chrono10time_pointINS1_16_FilesystemClockENS5_8durationInNS_5ratioILl1ELl1000000000EEEEEEEPNS_10error_codeE
00000000000166f0 T _ZNSt6__ndk14__fs10filesystem17__last_write_timeERKNS1_4pathEPNS_10error_codeE
0000000000015c70 T _ZNSt6__ndk14__fs10filesystem18__create_directoryERKNS1_4pathEPNS_10error_codeE
0000000000015294 T _ZNSt6__ndk14__fs10filesystem18__create_directoryERKNS1_4pathES4_PNS_10error_codeE
0000000000014e20 T _ZNSt6__ndk14__fs10filesystem18__create_hard_linkERKNS1_4pathES4_PNS_10error_codeE
0000000000010f38 T _ZNSt6__ndk14__fs10filesystem18directory_iterator11__incrementEPNS_10error_codeE
0000000000010c7c T _ZNSt6__ndk14__fs10filesystem18directory_iteratorC1ERKNS1_4pathEPNS_10error_codeENS1_17directory_optionsE
0000000000010c7c T _ZNSt6__ndk14__fs10filesystem18directory_iteratorC2ERKNS1_4pathEPNS_10error_codeENS1_17directory_optionsE
00000000000175c8 T _ZNSt6__ndk14__fs10filesystem18__weakly_canonicalERKNS1_4pathEPNS_10error_codeE
00000000000159a0 T _ZNSt6__ndk14__fs10filesystem20__create_directoriesERKNS1_4pathEPNS_10error_codeE
0000000000017340 T _ZNSt6__ndk14__fs10filesystem21__temp_directory_pathEPNS_10error_codeE
0000000000015e18 T _ZNSt6__ndk14__fs10filesystem26__create_directory_symlinkERKNS1_4pathES4_PNS_10error_codeE
0000000000011aec T _ZNSt6__ndk14__fs10filesystem28recursive_directory_iterator11__incrementEPNS_10error_codeE
0000000000011b64 T _ZNSt6__ndk14__fs10filesystem28recursive_directory_iterator15__try_recursionEPNS_10error_codeE
0000000000011788 T _ZNSt6__ndk14__fs10filesystem28recursive_directory_iterator5__popEPNS_10error_codeE
000000000001182c T _ZNSt6__ndk14__fs10filesystem28recursive_directory_iterator9__advanceEPNS_10error_codeE
0000000000011360 T _ZNSt6__ndk14__fs10filesystem28recursive_directory_iteratorC1ERKNS1_4pathENS1_17directory_optionsEPNS_10error_codeE
0000000000011360 T _ZNSt6__ndk14__fs10filesystem28recursive_directory_iteratorC2ERKNS1_4pathENS1_17directory_optionsEPNS_10error_codeE
000000000000e694 T _ZNSt6__ndk14__fs10filesystem4path17replace_extensionERKS2_
0000000000006eb1 V _ZNSt6__ndk14__fs10filesystem4path19preferred_separatorE
00000000000101fc T _ZNSt6__ndk14__fs10filesystem4path8iterator11__decrementEv
000000000001008c T _ZNSt6__ndk14__fs10filesystem4path8iterator11__incrementEv
00000000000144ec T _ZNSt6__ndk14__fs10filesystem6__copyERKNS1_4pathES4_NS1_12copy_optionsEPNS_10error_codeE
00000000000171b4 T _ZNSt6__ndk14__fs10filesystem7__spaceERKNS1_4pathEPNS_10error_codeE
0000000000016bcc T _ZNSt6__ndk14__fs10filesystem8__removeERKNS1_4pathEPNS_10error_codeE
0000000000017078 T _ZNSt6__ndk14__fs10filesystem8__renameERKNS1_4pathES4_PNS_10error_codeE
00000000000172e8 T _ZNSt6__ndk14__fs10filesystem8__statusERKNS1_4pathEPNS_10error_codeE
000000000000df1c W _ZNSt6__ndk16vectorI22ggml_backend_reg_entryNS_9allocatorIS1_EEE21__push_back_slow_pathIS1_EEPS1_OT_
000000000000e500 W _ZNSt6__ndk16vectorINS_4__fs10filesystem4pathENS_9allocatorIS3_EEE21__push_back_slow_pathIS3_EEPS3_OT_
0000000000021080 D _ZTINSt6__ndk14__fs10filesystem16filesystem_errorE
0000000000007008 R _ZTSNSt6__ndk14__fs10filesystem16filesystem_errorE
0000000000021058 D _ZTVNSt6__ndk14__fs10filesystem16filesystem_errorE

######################################################################
## android-arm64-cpu / libllama-common.so
######################################################################
0000000000438580 D common_log_verbosity_thold
00000000004102c8 T __cxa_thread_atexit
0000000000450980 B g_jinja_debug
0000000000438658 D LICENSES
0000000000438678 D LLAMA_BUILD_NUMBER
0000000000438690 D LLAMA_BUILD_TARGET
0000000000438680 D LLAMA_COMMIT
0000000000438688 D LLAMA_COMPILER
0000000000129a9d V __llvm_fs_discriminator__
000000000027c960 T _Z10glob_matchRKNSt6__ndk112basic_stringIcNS_11char_traitsIcEENS_9allocatorIcEEEES7_
0000000000279cd4 T _Z11common_initv
000000000027b38c T _Z11string_fromb
000000000027bc8c T _Z11string_fromPK13llama_contextRK11llama_batch
000000000027b810 T _Z11string_fromPK13llama_contextRKNSt6__ndk16vectorIiNS2_9allocatorIiEEEE
000000000027b448 T _Z11string_fromRKNSt6__ndk16vectorIiNS_9allocatorIiEEEE
000000000027aa04 T _Z11string_joinRKNSt6__ndk16vectorINS_12basic_stringIcNS_11char_traitsIcEENS_9allocatorIcEEEENS4_IS6_EEEERKS6_
000000000039f8bc T _Z12llama_commitv
000000000027a900 T _Z12regex_escapeRKNSt6__ndk112basic_stringIcNS_11char_traitsIcEENS_9allocatorIcEEEE
000000000027abdc T _Z12string_splitRKNSt6__ndk112basic_stringIcNS_11char_traitsIcEENS_9allocatorIcEEEES7_
000000000027a164 T _Z12string_stripRKNSt6__ndk112basic_stringIcNS_11char_traitsIcEENS_9allocatorIcEEEE
00000000002d59e8 T _Z13build_grammarRKNSt6__ndk18functionIFvRK22common_grammar_builderEEERK22common_grammar_options
0000000000279f5c T _Z13string_formatPKcz
000000000027b24c T _Z13string_repeatRKNSt6__ndk112basic_stringIcNS_11char_traitsIcEENS_9allocatorIcEEEEm
00000000002ed7f8 T _Z14common_log_addP10common_log14ggml_log_levelPKcz
000000000039f8cc T _Z14llama_compilerv
0000000000279b34 T _Z14parse_cpu_maskRKNSt6__ndk112basic_stringIcNS_11char_traitsIcEENS_9allocatorIcEEEERA512_b
00000000002ed694 T _Z15common_log_freeP10common_log
00000000002ed47c T _Z15common_log_initv
00000000002ed4c4 T _Z15common_log_mainv
0000000000281588 T _Z15common_tokenizePK11llama_vocabRKNSt6__ndk112basic_stringIcNS2_11char_traitsIcEENS2_9allocatorIcEEEEbb
0000000000281540 T _Z15common_tokenizePK13llama_contextRKNSt6__ndk112basic_stringIcNS2_11char_traitsIcEENS2_9allocatorIcEEEEbb
000000000027cfe4 T _Z15fs_is_directoryRKNSt6__ndk112basic_stringIcNS_11char_traitsIcEENS_9allocatorIcEEEE
000000000027981c T _Z15parse_cpu_rangeRKNSt6__ndk112basic_stringIcNS_11char_traitsIcEENS_9allocatorIcEEEERA512_b
00000000002064f0 T _Z15trim_whitespaceRKNSt6__ndk112basic_stringIcNS_11char_traitsIcEENS_9allocatorIcEEEE
00000000002ffa00 T _Z16build_peg_parserRKNSt6__ndk18functionIF17common_peg_parserR25common_peg_parser_builderEEE
0000000000281490 T _Z16common_batch_addR11llama_batchiiRKNSt6__ndk16vectorIiNS1_9allocatorIiEEEEb
00000000002a1a98 T _Z16common_fit_printPKcP18llama_model_paramsP20llama_context_params
00000000002ee24c T _Z16common_log_flushP10common_log
00000000002ed544 T _Z16common_log_pauseP10common_log
000000000039f8ec T _Z16llama_build_infov
000000000025b4b8 T _Z17common_chat_parseRKNSt6__ndk112basic_stringIcNS_11char_traitsIcEENS_9allocatorIcEEEEbRK25common_chat_parser_params
0000000000281814 T _Z17common_detokenizePK11llama_vocabRKNSt6__ndk16vectorIiNS2_9allocatorIiEEEEb
00000000002817d4 T _Z17common_detokenizePK13llama_contextRKNSt6__ndk16vectorIiNS2_9allocatorIiEEEEb
000000000029c1c0 T _Z17common_fit_paramsPKcP18llama_model_paramsP20llama_context_paramsPfP32llama_model_tensor_buft_overridePmj14ggml_log_level
00000000002cacf0 T _Z17common_json_parseRKNSt6__ndk112basic_stringIcNS_11char_traitsIcEENS_9allocatorIcEEEES7_R11common_json
00000000002cad6c T _Z17common_json_parseRNSt6__ndk111__wrap_iterIPKcEERKS3_RKNS_12basic_stringIcNS_11char_traitsIcEENS_9allocatorIcEEEER11common_json
00000000002ed5d4 T _Z17common_log_resumeP10common_log
000000000032c948 T _Z17common_perf_printPK13llama_contextPK14common_sampler
000000000027d748 T _Z17fs_get_cache_fileRKNSt6__ndk112basic_stringIcNS_11char_traitsIcEENS_9allocatorIcEEEE
0000000000281488 T _Z18common_batch_clearR11llama_batch
0000000000281fec T _Z18common_opt_lr_parsPv
000000000032cc60 T _Z18common_sampler_getPK14common_sampler
000000000039f8ac T _Z18llama_build_numberv
000000000039f8dc T _Z18llama_build_targetv
0000000000207f88 T _Z18segmentize_markersRKNSt6__ndk112basic_stringIcNS_11char_traitsIcEENS_9allocatorIcEEEE
000000000027a6a4 T _Z18string_replace_allRNSt6__ndk112basic_stringIcNS_11char_traitsIcEENS_9allocatorIcEEEERKS5_S8_
000000000027e280 T _Z18tty_can_use_colorsv
0000000000208b60 T _Z19after_common_suffixRKNSt6__ndk112basic_stringIcNS_11char_traitsIcEENS_9allocatorIcEEEES7_S7_
00000000002ede24 T _Z19common_log_set_fileP10common_logPKc
00000000001b63cc T _Z19common_params_parseiPPcR13common_params13llama_examplePFviS0_E
000000000032c574 T _Z19common_sampler_freeP14common_sampler
000000000032a41c T _Z19common_sampler_initPK11llama_modelR22common_params_sampling
000000000032daa8 T _Z19common_sampler_lastPK14common_sampler
00000000002d4f64 T _Z19gbnf_format_literalRKNSt6__ndk112basic_stringIcNS_11char_traitsIcEENS_9allocatorIcEEEE
0000000000208778 T _Z19until_common_prefixRKNSt6__ndk112basic_stringIcNS_11char_traitsIcEENS_9allocatorIcEEEES7_S7_
0000000000206a44 T _Z20calculate_diff_splitRKNSt6__ndk112basic_stringIcNS_11char_traitsIcEENS_9allocatorIcEEEES7_
0000000000287c34 T _Z20common_debug_cb_evalP11ggml_tensorbPv
0000000000185e58 T _Z20common_params_to_mapiPPc13llama_exampleRNSt6__ndk13mapI10common_argNS2_12basic_stringIcNS2_11char_traitsIcEENS2_9allocatorIcEEEENS2_4lessIS4_EENS8_INS2_4pairIKS4_SA_EEEEEE
000000000032c774 T _Z20common_sampler_cloneP14common_sampler
000000000032db2c T _Z20common_sampler_printPK14common_sampler
000000000032c758 T _Z20common_sampler_resetP14common_sampler
000000000027cbcc T _Z20fs_validate_filenameRKNSt6__ndk112basic_stringIcNS_11char_traitsIcEENS_9allocatorIcEEEEb
0000000000279348 T _Z20set_process_priority19ggml_sched_priority
000000000025b4cc T _Z21common_chat_peg_parseRK16common_peg_arenaRKNSt6__ndk112basic_stringIcNS2_11char_traitsIcEENS2_9allocatorIcEEEEbRK25common_chat_parser_params
0000000000291808 T _Z21common_download_modelRK19common_params_modelRK20common_download_optsb
000000000028196c T _Z21common_embd_normalizePKfPfii
00000000002edfa4 T _Z21common_log_set_colorsP10common_log10log_colors
00000000002ee1f4 T _Z21common_log_set_prefixP10common_logb
000000000032c5f0 T _Z21common_sampler_acceptP14common_samplerib
000000000032cc6c T _Z21common_sampler_sampleP14common_samplerP13llama_contextib
000000000027f8fc T _Z21common_token_to_piecePK11llama_vocabib
000000000027bc4c T _Z21common_token_to_piecePK13llama_contextib
00000000002f34e4 T _Z22common_ngram_map_beginR16common_ngram_mapRKNSt6__ndk16vectorIiNS1_9allocatorIiEEEE
00000000002f3928 T _Z22common_ngram_map_draftR16common_ngram_mapRKNSt6__ndk16vectorIiNS1_9allocatorIiEEEEiRS5_
000000000027d0e4 T _Z22fs_get_cache_directoryv
00000000002d5914 T _Z22json_schema_to_grammarRKN8nlohmann16json_abi_v3_12_010basic_jsonINS0_11ordered_mapENSt6__ndk16vectorENS3_12basic_stringIcNS3_11char_traitsIcEENS3_9allocatorIcEEEEblmdS8_NS0_14adl_serializerENS4_IhNS8_IhEEEEvEEb
000000000039fb4c T _Z22llama_print_build_infov
00000000002ed428 T _Z22llama_sampler_init_llgPK11llama_vocabPKcS3_
0000000000279464 T _Z22postprocess_cpu_paramsR17common_cpu_paramsPKS_
000000000027c31c T _Z22string_process_escapesRNSt6__ndk112basic_stringIcNS_11char_traitsIcEENS_9allocatorIcEEEE
000000000020696c T _Z22trim_trailing_newlinesRKNSt6__ndk112basic_stringIcNS_11char_traitsIcEENS_9allocatorIcEEEE
0000000000232808 T _Z23build_tagged_peg_parserRKNSt6__ndk18functionIF17common_peg_parserR25common_peg_parser_builderEEE
000000000024ef00 T _Z23common_chat_format_name18common_chat_format
0000000000279344 T _Z23common_cpu_get_num_mathv
000000000027fb20 T _Z23common_init_from_paramsR13common_params
00000000002f056c T _Z23common_ngram_cache_loadRKNSt6__ndk112basic_stringIcNS_11char_traitsIcEENS_9allocatorIcEEEE
00000000002f0134 T _Z23common_ngram_cache_saveRNSt6__ndk113unordered_mapI12common_ngramNS0_IiiNS_4hashIiEENS_8equal_toIiEENS_9allocatorINS_4pairIKiiEEEEEE26common_ngram_hash_functionNS4_IS1_EENS6_INS7_IKS1_SB_EEEEEERKNS_12basic_stringIcNS_11char_traitsIcEENS6_IcEEEE
00000000002f4c18 T _Z23common_ngram_map_acceptR16common_ngram_mapt
0000000000281efc T _Z23common_opt_dataset_initP13llama_contextRKNSt6__ndk16vectorIiNS1_9allocatorIiEEEEl
000000000032d9ac T _Z23common_sampler_get_seedPK14common_sampler
000000000032ddec T _Z23common_sampler_prev_strP14common_samplerP13llama_contexti
0000000000280dac T _Z23common_set_adapter_loraP13llama_contextRNSt6__ndk16vectorI24common_adapter_lora_infoNS1_9allocatorIS3_EEEE
000000000033420c T _Z23common_speculative_freeP18common_speculative
0000000000332298 T _Z23common_speculative_initR25common_params_speculativeP13llama_contextS2_
000000000034c0ec T _Z23common_utf8_is_completeRKNSt6__ndk112basic_stringIcNS_11char_traitsIcEENS_9allocatorIcEEEE
00000000002066a8 T _Z23trim_leading_whitespaceRKNSt6__ndk112basic_stringIcNS_11char_traitsIcEENS_9allocatorIcEEEE
00000000002ef764 T _Z24common_ngram_cache_draftRNSt6__ndk16vectorIiNS_9allocatorIiEEEES4_iiiRNS_13unordered_mapI12common_ngramNS5_IiiNS_4hashIiEENS_8equal_toIiEENS1_INS_4pairIKiiEEEEEE26common_ngram_hash_functionNS9_IS6_EENS1_INSB_IKS6_SF_EEEEEESM_SM_
00000000002f0a60 T _Z24common_ngram_cache_mergeRNSt6__ndk113unordered_mapI12common_ngramNS0_IiiNS_4hashIiEENS_8equal_toIiEENS_9allocatorINS_4pairIKiiEEEEEE26common_ngram_hash_functionNS4_IS1_EENS6_INS7_IKS1_SB_EEEEEESI_
0000000000282134 T _Z24common_opt_get_optimizerPKc
00000000002821fc T _Z24common_replay_last_tokenP13llama_contextii
0000000000334294 T _Z24common_speculative_beginP18common_speculativeRKNSt6__ndk16vectorIiNS1_9allocatorIiEEEE
00000000003343bc T _Z24common_speculative_draftP18common_speculativeRK25common_params_speculativeRKNSt6__ndk16vectorIiNS4_9allocatorIiEEEEiPNS5_IfNS6_IfEEEE
0000000000335984 T _Z24common_speculative_n_maxPK18common_speculativeRK25common_params_speculative
00000000003359fc T _Z24common_speculative_n_minPK18common_speculativeRK25common_params_speculative
000000000027c5fc T _Z24string_parse_kv_overridePKcRNSt6__ndk16vectorI23llama_model_kv_overrideNS1_9allocatorIS3_EEEE
00000000002067e0 T _Z24trim_trailing_whitespaceRKNSt6__ndk112basic_stringIcNS_11char_traitsIcEENS_9allocatorIcEEEE
000000000024e024 T _Z25common_chat_format_singlePK21common_chat_templatesRKNSt6__ndk16vectorI15common_chat_msgNS2_9allocatorIS4_EEEERKS4_bb
0000000000281270 T _Z25common_context_can_seq_rmP13llama_context
0000000000281134 T _Z25common_get_model_endpointv
0000000000296334 T _Z25common_list_cached_modelsv
00000000002ee220 T _Z25common_log_set_timestampsP10common_logb
00000000002ef1dc T _Z25common_ngram_cache_updateRNSt6__ndk113unordered_mapI12common_ngramNS0_IiiNS_4hashIiEENS_8equal_toIiEENS_9allocatorINS_4pairIKiiEEEEEE26common_ngram_hash_functionNS4_IS1_EENS6_INS7_IKS1_SB_EEEEEEiiRNS_6vectorIiNS6_IiEEEEib
00000000002f2ed4 T _Z25common_ngram_simple_draftRK26common_ngram_simple_configRKNSt6__ndk16vectorIiNS2_9allocatorIiEEEEi
0000000000188470 T _Z25common_params_parser_initR13common_params13llama_examplePFviPPcE
000000000028d190 T _Z25common_remote_get_contentRKNSt6__ndk112basic_stringIcNS_11char_traitsIcEENS_9allocatorIcEEEERK20common_remote_params
0000000000335664 T _Z25common_speculative_acceptP18common_speculativet
0000000000208fd0 T _Z25prune_whitespace_segmentsRKNSt6__ndk16vectorI7segmentNS_9allocatorIS1_EEEE
000000000024e498 T _Z26common_chat_format_examplePK21common_chat_templatesbRKNSt6__ndk13mapINS2_12basic_stringIcNS2_11char_traitsIcEENS2_9allocatorIcEEEES9_NS2_4lessIS9_EENS7_INS2_4pairIKS9_S9_EEEEEE
000000000024e848 T _Z26common_chat_get_asr_promptPK21common_chat_templates
000000000024e7d4 T _Z26common_chat_templates_freeP21common_chat_templates
000000000024d318 T _Z26common_chat_templates_initPK11llama_modelRKNSt6__ndk112basic_stringIcNS2_11char_traitsIcEENS2_9allocatorIcEEEESA_SA_
0000000000280344 T _Z26common_control_vector_loadRKNSt6__ndk16vectorI31common_control_vector_load_infoNS_9allocatorIS1_EEEE
0000000000281d34 T _Z26common_embd_similarity_cosPKfS0_i
00000000002822bc T _Z26common_prompt_batch_decodeP13llama_contextRKNSt6__ndk16vectorIiNS1_9allocatorIiEEEERiiNS1_17basic_string_viewIcNS1_11char_traitsIcEEEEb
000000000032e040 T _Z26common_sampler_type_to_chr19common_sampler_type
000000000032e064 T _Z26common_sampler_type_to_str19common_sampler_type
000000000034c328 T _Z26common_unicode_cpt_to_utf8j
0000000000246fcc T _Z27common_chat_templates_applyPK21common_chat_templatesRK28common_chat_templates_inputs
000000000024ce5c T _Z27common_chat_verify_templateRKNSt6__ndk112basic_stringIcNS_11char_traitsIcEENS_9allocatorIcEEEEb
0000000000293f34 T _Z27common_docker_resolve_modelRKNSt6__ndk112basic_stringIcNS_11char_traitsIcEENS_9allocatorIcEEEE
000000000028ebcc T _Z27common_download_file_singleRKNSt6__ndk112basic_stringIcNS_11char_traitsIcEENS_9allocatorIcEEEES7_RK20common_download_optsb
00000000002ee394 T _Z27common_log_default_callback14ggml_log_levelPKcPv
000000000034bf9c T _Z27common_parse_utf8_codepointNSt6__ndk117basic_string_viewIcNS_11char_traitsIcEEEEm
000000000034c1dc T _Z27common_unicode_cpts_to_utf8RKNSt6__ndk16vectorIjNS_9allocatorIjEEEE
000000000034bf88 T _Z27common_utf8_sequence_lengthh
000000000024eabc T _Z28common_chat_templates_sourcePK21common_chat_templatesRKNSt6__ndk112basic_stringIcNS2_11char_traitsIcEENS2_9allocatorIcEEEE
000000000027f6e4 T _Z28common_model_params_to_llamaR13common_params
0000000000329acc T _Z28common_reasoning_budget_initPK11llama_vocabRKNSt6__ndk16vectorIiNS2_9allocatorIiEEEES8_S8_i29common_reasoning_budget_state
000000000024ef74 T _Z28common_reasoning_format_name23common_reasoning_format
000000000029fb38 T _Z29common_memory_breakdown_printPK13llama_context
0000000000279d6c T _Z29common_params_get_system_infoRK13common_params
000000000032d9b4 T _Z29common_sampler_get_candidatesP14common_samplerb
00000000003353f8 T _Z29common_speculative_draft_treeP18common_speculativeRK25common_params_speculativeRKNSt6__ndk16vectorIiNS4_9allocatorIiEEEEii
000000000033436c T _Z29common_speculative_set_seq_idP18common_speculativei
000000000027a2c0 T _Z29string_get_sortable_timestampv
000000000025c21c T _Z30common_chat_templates_get_capsPK21common_chat_templates
000000000027f810 T _Z30common_context_params_to_llamaRK13common_params
000000000028c884 T _Z30common_download_split_repo_tagRKNSt6__ndk112basic_stringIcNS_11char_traitsIcEENS_9allocatorIcEEEE
00000000002ed45c T _Z30common_log_get_verbosity_tholdv
00000000002ed46c T _Z30common_log_set_verbosity_tholdi
0000000000334798 T _Z30common_speculative_draft_batchRNSt6__ndk16vectorIP18common_speculativeNS_9allocatorIS2_EEEEP13llama_contextRK25common_params_speculativeRKNS0_IiNS3_IiEEEERNS0_ISD_NS3_ISD_EEEE
0000000000335a74 T _Z30common_speculative_print_statsPK18common_speculative
0000000000331d7c T _Z30common_speculative_type_to_str23common_speculative_type
000000000032f0d8 T _Z31common_sampler_types_from_charsRKNSt6__ndk112basic_stringIcNS_11char_traitsIcEENS_9allocatorIcEEEE
000000000032e264 T _Z31common_sampler_types_from_namesRKNSt6__ndk16vectorINS_12basic_stringIcNS_11char_traitsIcEENS_9allocatorIcEEEENS4_IS6_EEEEb
0000000000326d78 T _Z31regex_to_reversed_partial_regexRKNSt6__ndk112basic_stringIcNS_11char_traitsIcEENS_9allocatorIcEEEE
0000000000247be0 T _Z32common_chat_msgs_parse_oaicompatRKN8nlohmann16json_abi_v3_12_010basic_jsonINS0_11ordered_mapENSt6__ndk16vectorENS3_12basic_stringIcNS3_11char_traitsIcEENS3_9allocatorIcEEEEblmdS8_NS0_14adl_serializerENS4_IhNS8_IhEEEEvEE
00000000001bf128 T _Z32common_params_add_preset_optionsRNSt6__ndk16vectorI10common_argNS_9allocatorIS1_EEEE
00000000003357d4 T _Z32common_speculative_flush_prefillP18common_speculative
0000000000331bb0 T _Z32common_speculative_type_name_strv
000000000033576c T _Z32common_speculative_update_logitsP18common_speculativeP13llama_contextRKNSt6__ndk16vectorIiNS3_9allocatorIiEEEEi
000000000027ce08 T _Z32fs_create_directory_with_parentsRKNSt6__ndk112basic_stringIcNS_11char_traitsIcEENS_9allocatorIcEEEE
000000000024f2ac T _Z33common_chat_template_direct_applyRK20common_chat_templateRKN10autoparser17generation_paramsE
000000000024be54 T _Z33common_chat_tools_parse_oaicompatRKN8nlohmann16json_abi_v3_12_010basic_jsonINS0_11ordered_mapENSt6__ndk16vectorENS3_12basic_stringIcNS3_11char_traitsIcEENS3_9allocatorIcEEEEblmdS8_NS0_14adl_serializerENS4_IhNS8_IhEEEEvEE
0000000000278edc T _Z33common_cpu_get_num_physical_coresv
00000000002f4ed4 T _Z33common_peg_parse_result_type_name28common_peg_parse_result_type
0000000000329d00 T _Z33common_reasoning_budget_get_statePK13llama_sampler
000000000024efe8 T _Z33common_reasoning_format_from_nameRKNSt6__ndk112basic_stringIcNS_11char_traitsIcEENS_9allocatorIcEEEE
000000000033204c T _Z33common_speculative_create_ctx_dftRK25common_params_speculativei
0000000000332000 T _Z33common_speculative_type_from_nameRKNSt6__ndk112basic_stringIcNS_11char_traitsIcEENS_9allocatorIcEEEE
000000000024b16c T _Z34common_chat_msgs_to_json_oaicompatRKNSt6__ndk16vectorI15common_chat_msgNS_9allocatorIS1_EEEEb
000000000024e840 T _Z34common_chat_templates_was_explicitPK21common_chat_templates
000000000032d7a0 T _Z34common_sampler_sample_and_accept_nP14common_samplerP13llama_contextRKNSt6__ndk16vectorIiNS3_9allocatorIiEEEEb
000000000032d48c T _Z34common_sampler_sample_and_accept_nP14common_samplerP13llama_contextRKNSt6__ndk16vectorIiNS3_9allocatorIiEEEES9_b
0000000000335914 T _Z34common_speculative_ring_state_loadP18common_speculativePKhm
0000000000335880 T _Z34common_speculative_ring_state_savePK18common_speculativePhm
0000000000335814 T _Z34common_speculative_ring_state_sizePK18common_speculative
000000000024b764 T _Z35common_chat_tools_to_json_oaicompatRKNSt6__ndk16vectorI16common_chat_toolNS_9allocatorIS1_EEEE
0000000000250290 T _Z36common_chat_try_specialized_templateRK20common_chat_templateRKNSt6__ndk112basic_stringIcNS2_11char_traitsIcEENS2_9allocatorIcEEEERN10autoparser17generation_paramsE
0000000000281428 T _Z38ggml_threadpool_params_from_cpu_paramsRK17common_cpu_params
0000000000246724 T _Z39common_chat_tool_choice_parse_oaicompatRKNSt6__ndk112basic_stringIcNS_11char_traitsIcEENS_9allocatorIcEEEE
0000000000246984 T _Z45common_chat_templates_support_enable_thinkingPK21common_chat_templates
000000000027d9d8 T _Z7fs_listRKNSt6__ndk112basic_stringIcNS_11char_traitsIcEENS_9allocatorIcEEEEb
0000000000438d18 V _ZGVN11ProgressBar5linesE
0000000000438cf8 V _ZGVN11ProgressBar5mutexE
0000000000450680 V _ZGVZN23common_schema_converter12_resolve_refERKNSt6__ndk112basic_stringIcNS0_11char_traitsIcEENS0_9allocatorIcEEEEE21nonalphanumeric_regex
0000000000450978 V _ZGVZNK5jinja6parser4peekEmE9end_token
00000000002f73b4 T _ZlsPKcRK17common_peg_parser
00000000002f750c T _ZlsRKNSt6__ndk112basic_stringIcNS_11char_traitsIcEENS_9allocatorIcEEEERK17common_peg_parser
000000000020a94c T _ZN10autoparser10autoparser16analyze_templateERK20common_chat_template
000000000020bc3c T _ZN10autoparser10autoparser24collect_preserved_tokensEv
00000000001fae60 W _ZN10autoparser10autoparserD2Ev
00000000002149f4 T _ZN10autoparser13analyze_tools17analyze_argumentsEv
00000000002115e0 T _ZN10autoparser13analyze_tools18analyze_tool_callsERKNS_17analyze_reasoningEb
0000000000215418 T _ZN10autoparser13analyze_tools20extract_args_markersEv
0000000000211f28 T _ZN10autoparser13analyze_tools22check_per_call_markersEv
0000000000216b28 T _ZN10autoparser13analyze_tools23extract_call_id_markersEv
00000000002185b4 T _ZN10autoparser13analyze_tools24analyze_tool_call_formatERKNSt6__ndk112basic_stringIcNS1_11char_traitsIcEENS1_9allocatorIcEEEES9_S9_RKNS_17analyze_reasoningEb
0000000000212b04 T _ZN10autoparser13analyze_tools24extract_function_markersEv
0000000000214a18 T _ZN10autoparser13analyze_tools26extract_argument_separatorEv
000000000021d4dc T _ZN10autoparser13analyze_tools29extract_argument_name_markersEv
000000000021eda0 T _ZN10autoparser13analyze_tools30extract_argument_value_markersEv
000000000021b4b4 T _ZN10autoparser13analyze_tools33analyze_tool_call_format_non_jsonERKNSt6__ndk112basic_stringIcNS1_11char_traitsIcEENS1_9allocatorIcEEEES9_
000000000021a9c8 T _ZN10autoparser13analyze_tools34analyze_json_native_parallel_callsEv
0000000000218f50 T _ZN10autoparser13analyze_tools36analyze_tool_call_format_json_nativeERKNSt6__ndk112basic_stringIcNS1_11char_traitsIcEENS1_9allocatorIcEEEES9_S9_
000000000020baf8 W _ZN10autoparser13analyze_toolsaSEOS0_
0000000000211454 T _ZN10autoparser13analyze_toolsC1ERK20common_chat_templateRKN5jinja4capsERKNS_17analyze_reasoningE
0000000000211454 T _ZN10autoparser13analyze_toolsC2ERK20common_chat_templateRKN5jinja4capsERKNS_17analyze_reasoningE
00000000001feef0 W _ZN10autoparser13analyze_toolsD0Ev
00000000001fee08 W _ZN10autoparser13analyze_toolsD2Ev
00000000001fa894 T _ZN10autoparser13peg_generator15generate_parserERK20common_chat_templateRKNS_17generation_paramsE
00000000001faa08 T _ZN10autoparser13peg_generator15generate_parserERK20common_chat_templateRKNS_17generation_paramsERKNS_10autoparserE
0000000000209108 T _ZN10autoparser14apply_templateERK20common_chat_templateRK15template_params
000000000020fa18 T _ZN10autoparser15analyze_contentC1ERK20common_chat_templateRKNS_17analyze_reasoningE
000000000020fa18 T _ZN10autoparser15analyze_contentC2ERK20common_chat_templateRKNS_17analyze_reasoningE
00000000001fed88 W _ZN10autoparser15analyze_contentD0Ev
00000000001fed24 W _ZN10autoparser15analyze_contentD2Ev
000000000020957c T _ZN10autoparser16compare_variantsERK20common_chat_templateRK15template_paramsRKNSt6__ndk18functionIFvRS3_EEE
00000000002184e4 W _ZN10autoparser16tool_id_analysisD2Ev
000000000020e19c T _ZN10autoparser17analyze_reasoning23compare_reasoning_scopeEv
000000000020d3d4 T _ZN10autoparser17analyze_reasoning24compare_thinking_enabledEv
000000000020bfd4 T _ZN10autoparser17analyze_reasoning26compare_reasoning_presenceEv
000000000020bedc T _ZN10autoparser17analyze_reasoningC1ERK20common_chat_templateb
000000000020bedc T _ZN10autoparser17analyze_reasoningC2ERK20common_chat_templateb
00000000001feca4 W _ZN10autoparser17analyze_reasoningD0Ev
00000000001fec40 W _ZN10autoparser17analyze_reasoningD2Ev
0000000000272b18 W _ZN10autoparser17generation_paramsC2ERKS0_
00000000002094f0 W _ZN10autoparser17generation_paramsD2Ev
00000000001fa778 T _ZN10autoparser20parser_build_contextC1ER23common_chat_peg_builderRKNS_17generation_paramsE
00000000001fa778 T _ZN10autoparser20parser_build_contextC2ER23common_chat_peg_builderRKNS_17generation_paramsE
0000000000220950 W _ZN10autoparser20tool_format_analysisaSEOS0_
00000000001ff2d4 W _ZN10autoparser20tool_format_analysisC2Ev
00000000002011b0 W _ZN10autoparser20tool_format_analysisD2Ev
0000000000218538 W _ZN10autoparser22tool_function_analysisD2Ev
0000000000220bc8 W _ZN10autoparser23tool_arguments_analysisaSEOS0_
00000000002010b4 W _ZN10autoparser23tool_arguments_analysisD2Ev
0000000000183930 T _ZN10common_arg10in_exampleE13llama_example
000000000018397c T _ZN10common_arg10is_excludeE13llama_example
0000000000183620 T _ZN10common_arg12set_examplesESt16initializer_listI13llama_exampleE
0000000000183648 T _ZN10common_arg12set_excludesESt16initializer_listI13llama_exampleE
000000000018390c T _ZN10common_arg12set_samplingEv
0000000000183924 T _ZN10common_arg15set_preset_onlyEv
0000000000183674 T _ZN10common_arg7set_envEPKc
0000000000183918 T _ZN10common_arg8set_specEv
00000000001b57a0 W _ZN10common_argC2ERKS_
00000000001be1d4 W _ZN10common_argC2ERKSt16initializer_listIPKcERKNSt6__ndk112basic_stringIcNS6_11char_traitsIcEENS6_9allocatorIcEEEEPFvR13common_paramsE
00000000001be938 W _ZN10common_argC2ERKSt16initializer_listIPKcES2_RKNSt6__ndk112basic_stringIcNS6_11char_traitsIcEENS6_9allocatorIcEEEEPFvR13common_paramsiE
00000000001be704 W _ZN10common_argC2ERKSt16initializer_listIPKcES2_RKNSt6__ndk112basic_stringIcNS6_11char_traitsIcEENS6_9allocatorIcEEEEPFvR13common_paramsSE_E
00000000001becf4 W _ZN10common_argC2ERKSt16initializer_listIPKcES2_S2_RKNSt6__ndk112basic_stringIcNS6_11char_traitsIcEENS6_9allocatorIcEEEEPFvR13common_paramsSE_SE_E
00000000001be404 W _ZN10common_argC2ERKSt16initializer_listIPKcES5_RKNSt6__ndk112basic_stringIcNS6_11char_traitsIcEENS6_9allocatorIcEEEEPFvR13common_paramsbE
00000000001b59bc W _ZN10common_argD2Ev
00000000002ee028 W _ZN10common_log10set_colorsEb
00000000002ed88c W _ZN10common_log3addE14ggml_log_levelPKcSt9__va_list
00000000002ede28 W _ZN10common_log8set_fileEPKc
00000000002ee47c W _ZN10common_logC2Em
00000000002ed6c4 W _ZN10common_logD2Ev
000000000021d2c0 W _ZN10diff_splitC2ERKS_
00000000002086dc W _ZN10diff_splitD2Ev
0000000000345b5c T _ZN10SuffixTree14_match_contextEPKim
0000000000346a50 T _ZN10SuffixTree15check_integrityEv
0000000000346650 T _ZN10SuffixTree15_speculate_pathEP10SuffixNodeiif
0000000000345c44 T _ZN10SuffixTree15_speculate_treeEP10SuffixNodeiif
0000000000347788 T _ZN10SuffixTree21_check_node_integrityEP10SuffixNode
0000000000342e04 T _ZN10SuffixTree6appendEii
0000000000344624 T _ZN10SuffixTree6extendEiPKim
0000000000344670 T _ZN10SuffixTree6removeEi
000000000034571c T _ZN10SuffixTree9speculateEPKimifffb
000000000033ff70 W _ZN10SuffixTreeaSEOS_
0000000000342d98 T _ZN10SuffixTreeC1Ei
0000000000342d98 T _ZN10SuffixTreeC2Ei
000000000033fb2c W _ZN10SuffixTreeD2Ev
000000000026d720 W _ZN10workaround25gemma4_model_turn_builder11has_contentERKN8nlohmann16json_abi_v3_12_010basic_jsonINS2_11ordered_mapENSt6__ndk16vectorENS5_12basic_stringIcNS5_11char_traitsIcEENS5_9allocatorIcEEEEblmdSA_NS2_14adl_serializerENS6_IhNSA_IhEEEEvEE
000000000026ce10 W _ZN10workaround25gemma4_model_turn_builder14collect_resultERKN8nlohmann16json_abi_v3_12_010basic_jsonINS2_11ordered_mapENSt6__ndk16vectorENS5_12basic_stringIcNS5_11char_traitsIcEENS5_9allocatorIcEEEEblmdSA_NS2_14adl_serializerENS6_IhNSA_IhEEEEvEE
000000000026d5bc W _ZN10workaround25gemma4_model_turn_builder14has_tool_callsERKN8nlohmann16json_abi_v3_12_010basic_jsonINS2_11ordered_mapENSt6__ndk16vectorENS5_12basic_stringIcNS5_11char_traitsIcEENS5_9allocatorIcEEEEblmdSA_NS2_14adl_serializerENS6_IhNSA_IhEEEEvEE
000000000026c2ec W _ZN10workaround25gemma4_model_turn_builder5buildEv
000000000026c880 W _ZN10workaround25gemma4_model_turn_builder7collectEv
000000000026c6b0 W _ZN10workaround25gemma4_model_turn_builderD2Ev
00000000002d4d74 W _ZN11BuiltinRuleD2Ev
00000000003262b0 W _ZN11local_modelC2ERKS_
0000000000322678 W _ZN11local_modelD2Ev
0000000000438d00 V _ZN11ProgressBar5linesE
0000000000438cd0 V _ZN11ProgressBar5mutexE
0000000000298010 W _ZN11ProgressBar7on_doneERK24common_download_progressb
0000000000438d20 V _ZN11ProgressBar8max_lineE
00000000002977dc W _ZN11ProgressBar8on_startERK24common_download_progress
0000000000297acc W _ZN11ProgressBar9on_updateERK24common_download_progress
000000000029778c W _ZN11ProgressBarD0Ev
0000000000291770 W _ZN11ProgressBarD2Ev
00000000003400f8 W _ZN11SuffixDraftD2Ev
0000000000326c58 T _ZN12common_regexC1ERKNSt6__ndk112basic_stringIcNS0_11char_traitsIcEENS0_9allocatorIcEEEE
0000000000326c58 T _ZN12common_regexC2ERKNSt6__ndk112basic_stringIcNS0_11char_traitsIcEENS0_9allocatorIcEEEE
00000000001ba264 W _ZN13common_paramsaSERKS_
00000000001b6854 W _ZN13common_paramsC2ERKS_
0000000000186b3c W _ZN13common_paramsC2Ev
00000000001b5b2c W _ZN13common_paramsD2Ev
000000000031d42c T _ZN13common_preset10set_optionERK21common_preset_contextRKNSt6__ndk112basic_stringIcNS3_11char_traitsIcEENS3_9allocatorIcEEEESB_
000000000031d78c T _ZN13common_preset12unset_optionERKNSt6__ndk112basic_stringIcNS0_11char_traitsIcEENS0_9allocatorIcEEEE
000000000031d9f4 T _ZN13common_preset5mergeERKS_
00000000001c6694 W _ZN13common_presetD2Ev
0000000000293d98 W _ZN13download_taskD2Ev
000000000032d01c W _ZN14common_sampler10set_logitsEP13llama_contexti
0000000000246b18 W _ZN15common_chat_msgC2ERKS_
0000000000246e24 W _ZN15common_chat_msgD2Ev
00000000002974ac W _ZN15common_http_urlD2Ev
0000000000297334 W _ZN15gguf_split_infoD2Ev
0000000000302dcc W _ZN15parser_executor21handle_unicode_escapeER24common_peg_parse_contextmRm
0000000000302ce8 W _ZN15parser_executor22handle_escape_sequenceER24common_peg_parse_contextmRmc
00000000003026e4 W _ZN15parser_executorclERK21common_peg_and_parser
00000000003027fc W _ZN15parser_executorclERK21common_peg_not_parser
0000000000304160 W _ZN15parser_executorclERK21common_peg_tag_parser
00000000003037f4 W _ZN15parser_executorclERK22common_peg_rule_parser
0000000000301210 W _ZN15parser_executorclERK24common_peg_choice_parser
0000000000302b38 W _ZN15parser_executorclERK24common_peg_string_parser
00000000003001a0 W _ZN15parser_executorclERK26common_peg_sequence_parser
0000000000301a00 W _ZN15parser_executorclERK28common_peg_repetition_parser
0000000000209ab8 W _ZN15template_paramsD2Ev
00000000001bdef8 T _ZN16common_arg_utils8is_autoyERKNSt6__ndk112basic_stringIcNS0_11char_traitsIcEENS0_9allocatorIcEEEE
00000000001bdd50 T _ZN16common_arg_utils9is_falseyERKNSt6__ndk112basic_stringIcNS0_11char_traitsIcEENS0_9allocatorIcEEEE
00000000001bdba8 T _ZN16common_arg_utils9is_truthyERKNSt6__ndk112basic_stringIcNS0_11char_traitsIcEENS0_9allocatorIcEEEE
000000000024cd90 W _ZN16common_chat_toolD2Ev
000000000027e178 W _ZN16common_file_infoD2Ev
0000000000333f30 W _ZN16common_ngram_mapD2Ev
00000000002f4dd0 T _ZN16common_ngram_mod3addEPKi
00000000002f4d34 T _ZN16common_ngram_mod5resetEv
00000000002f4c98 T _ZN16common_ngram_modC1Etm
00000000002f4c98 T _ZN16common_ngram_modC2Etm
00000000002f5344 T _ZN16common_peg_arena10add_parserENSt6__ndk17variantIJ25common_peg_epsilon_parser23common_peg_start_parser21common_peg_end_parser25common_peg_literal_parser26common_peg_sequence_parser24common_peg_choice_parser28common_peg_repetition_parser21common_peg_and_parser21common_peg_not_parser21common_peg_any_parser23common_peg_space_parser23common_peg_chars_parser24common_peg_string_parser23common_peg_until_parser24common_peg_schema_parser22common_peg_rule_parser21common_peg_ref_parser24common_peg_atomic_parser21common_peg_tag_parser22common_peg_gbnf_parserEEE
00000000002f5794 T _ZN16common_peg_arena11resolve_refEm
00000000002f5ae8 T _ZN16common_peg_arena12resolve_refsEv
00000000002ff5a0 T _ZN16common_peg_arena4loadERKNSt6__ndk112basic_stringIcNS0_11char_traitsIcEENS0_9allocatorIcEEEE
00000000002f5410 T _ZN16common_peg_arena8add_ruleERKNSt6__ndk112basic_stringIcNS0_11char_traitsIcEENS0_9allocatorIcEEEEm
00000000002fc594 T _ZN16common_peg_arena9from_jsonERKN8nlohmann16json_abi_v3_12_010basic_jsonINSt6__ndk13mapENS3_6vectorENS3_12basic_stringIcNS3_11char_traitsIcEENS3_9allocatorIcEEEEblmdS9_NS1_14adl_serializerENS5_IhNS9_IhEEEEvEE
00000000001fb138 W _ZN16common_peg_arenaD2Ev
0000000000278e5c T _ZN16common_time_measC1ERlb
0000000000278e5c T _ZN16common_time_measC2ERlb
0000000000278e9c T _ZN16common_time_measD1Ev
0000000000278e9c T _ZN16common_time_measD2Ev
00000000002f5f10 T _ZN17common_peg_parseraSERKS_
00000000002f63f8 T _ZN17common_peg_parseroRERKS_
00000000002f5f1c T _ZN17common_peg_parserpLERKS_
0000000000272c68 W _ZN18common_chat_paramsC2ERKS_
00000000001fb25c W _ZN18common_chat_paramsD2Ev
000000000027fab4 T _ZN18common_init_result14reset_samplersEv
0000000000283464 W _ZN18common_init_result4implD2Ev
000000000027fb14 T _ZN18common_init_result4loraEv
000000000027fa70 T _ZN18common_init_result5modelEv
000000000027fa7c T _ZN18common_init_result7contextEv
000000000027fa88 T _ZN18common_init_result7samplerEi
000000000027e31c T _ZN18common_init_resultC1ER13common_params
000000000027e31c T _ZN18common_init_resultC2ER13common_params
00000000002810f4 T _ZN18common_init_resultD1Ev
00000000002810f4 T _ZN18common_init_resultD2Ev
00000000002d54e0 T _ZN18common_schema_info12resolve_refsERN8nlohmann16json_abi_v3_12_010basic_jsonINS1_11ordered_mapENSt6__ndk16vectorENS4_12basic_stringIcNS4_11char_traitsIcEENS4_9allocatorIcEEEEblmdS9_NS1_14adl_serializerENS5_IhNS9_IhEEEEvEE
00000000002d57c4 T _ZN18common_schema_info18resolves_to_stringERKN8nlohmann16json_abi_v3_12_010basic_jsonINS1_11ordered_mapENSt6__ndk16vectorENS4_12basic_stringIcNS4_11char_traitsIcEENS4_9allocatorIcEEEEblmdS9_NS1_14adl_serializerENS5_IhNS9_IhEEEEvEE
00000000002d5498 T _ZN18common_schema_infoaSEOS_
00000000002d5488 T _ZN18common_schema_infoC1EOS_
00000000002d5350 T _ZN18common_schema_infoC1Ev
00000000002d5488 T _ZN18common_schema_infoC2EOS_
00000000002d5350 T _ZN18common_schema_infoC2Ev
00000000002d5448 T _ZN18common_schema_infoD1Ev
00000000002d5448 T _ZN18common_schema_infoD2Ev
00000000001c52d4 W _ZN19common_params_modelaSEOS_
00000000001c1e84 W _ZN19common_params_modelC2ERKS_
00000000001c0258 W _ZN19common_params_modelC2Ev
00000000001c0648 W _ZN19common_params_modelD2Ev
0000000000303d38 W _ZN19common_peg_ast_nodeD2Ev
000000000020f884 W _ZN19tagged_parse_resultD2Ev
000000000024523c T _ZN20common_chat_msg_diff13compute_diffsERK15common_chat_msgS2_
0000000000274b88 W _ZN20common_chat_msg_diffD2Ev
0000000000276c4c W _ZN20common_chat_templateC2ERKNSt6__ndk112basic_stringIcNS0_11char_traitsIcEENS0_9allocatorIcEEEES8_S8_
0000000000276928 W _ZN20common_chat_templateD2Ev
000000000028ef48 W _ZN20common_download_optsC2ERKS_
00000000001c676c W _ZN20common_download_optsD2Ev
00000000002f57f0 T _ZN20common_peg_ast_arena4dumpEv
0000000000303ab4 W _ZN20common_peg_ast_arena8add_nodeERKNSt6__ndk112basic_stringIcNS0_11char_traitsIcEENS0_9allocatorIcEEEES8_mmNS0_17basic_string_viewIcS3_EENS0_6vectorImNS4_ImEEEEb
0000000000296280 W _ZN20common_remote_paramsD2Ev
000000000023209c T _ZN20tag_based_peg_mapper8from_astERK20common_peg_ast_arenaRK23common_peg_parse_result
000000000023f084 W _ZN21common_chat_tool_callC2ERKS_
0000000000234714 W _ZN21common_chat_tool_callD2Ev
00000000001b5ab8 W _ZN21common_params_contextD2Ev
00000000001c07ac W _ZN21common_params_vocoderD2Ev
000000000031dcd8 T _ZN21common_preset_contextC1E13llama_exampleb
000000000031dcd8 T _ZN21common_preset_contextC2E13llama_exampleb
00000000001c66dc W _ZN21common_preset_contextD2Ev
0000000000232b40 T _ZN22common_chat_peg_mapper11args_targetEv
0000000000232b70 T _ZN22common_chat_peg_mapper25normalize_container_valueERKNSt6__ndk112basic_stringIcNS0_11char_traitsIcEENS0_9allocatorIcEEEE
0000000000233058 T _ZN22common_chat_peg_mapper3mapERK19common_peg_ast_node
0000000000232d8c T _ZN22common_chat_peg_mapper8from_astERK20common_peg_ast_arenaRK23common_peg_parse_result
000000000023e814 W _ZN22common_chat_peg_mapperD0Ev
000000000023e83c W _ZN22common_chat_peg_mapperD2Ev
00000000002d6320 W _ZN22common_grammar_builderD2Ev
00000000001c77ec W _ZN22common_params_samplingaSERKS_
00000000001c1850 W _ZN22common_params_samplingC2ERKS_
00000000001bfbc8 W _ZN22common_params_samplingC2Ev
00000000001c0890 W _ZN22common_params_samplingD2Ev
00000000001fe5f8 W _ZN23common_chat_peg_builder10tool_closeERK17common_peg_parser
00000000002057c4 W _ZN23common_chat_peg_builder13tool_arg_nameERK17common_peg_parser
0000000000205660 W _ZN23common_chat_peg_builder13tool_arg_openERK17common_peg_parser
0000000000205be0 W _ZN23common_chat_peg_builder14tool_arg_closeERK17common_peg_parser
000000000023d208 T _ZN23common_chat_peg_builder19standard_json_toolsERKNSt6__ndk112basic_stringIcNS0_11char_traitsIcEENS0_9allocatorIcEEEES8_RKN8nlohmann16json_abi_v3_12_010basic_jsonINSA_11ordered_mapENS0_6vectorES6_blmdS4_NSA_14adl_serializerENSD_IhNS4_IhEEEEvEEbbS8_S8_bbS8_S8_RKNSD_IS6_NS4_IS6_EEEE
0000000000205a7c W _ZN23common_chat_peg_builder19tool_arg_json_valueERK17common_peg_parser
00000000002328dc T _ZN23common_chat_peg_builder21tag_with_safe_contentERKNSt6__ndk112basic_stringIcNS0_11char_traitsIcEENS0_9allocatorIcEEEES8_RK17common_peg_parser
0000000000205928 W _ZN23common_chat_peg_builder21tool_arg_string_valueERK17common_peg_parser
00000000002364a0 T _ZN23common_chat_peg_builder23python_style_tool_callsERKN8nlohmann16json_abi_v3_12_010basic_jsonINS1_11ordered_mapENSt6__ndk16vectorENS4_12basic_stringIcNS4_11char_traitsIcEENS4_9allocatorIcEEEEblmdS9_NS1_14adl_serializerENS5_IhNS9_IhEEEEvEEb
000000000023b678 T _ZN23common_chat_peg_builder26build_json_tools_flat_keysERKN8nlohmann16json_abi_v3_12_010basic_jsonINS1_11ordered_mapENSt6__ndk16vectorENS4_12basic_stringIcNS4_11char_traitsIcEENS4_9allocatorIcEEEEblmdS9_NS1_14adl_serializerENS5_IhNS9_IhEEEEvEERKSB_SJ_SJ_SJ_RKNS5_ISB_NS9_ISB_EEEE
00000000002349bc T _ZN23common_chat_peg_builder26standard_constructed_toolsERKNSt6__ndk13mapINS0_12basic_stringIcNS0_11char_traitsIcEENS0_9allocatorIcEEEES7_NS0_4lessIS7_EENS5_INS0_4pairIKS7_S7_EEEEEERKN8nlohmann16json_abi_v3_12_010basic_jsonINSI_11ordered_mapENS0_6vectorES7_blmdS5_NSI_14adl_serializerENSL_IhNS5_IhEEEEvEEbb
00000000002397c4 T _ZN23common_chat_peg_builder28build_json_tools_nested_keysERKN8nlohmann16json_abi_v3_12_010basic_jsonINS1_11ordered_mapENSt6__ndk16vectorENS4_12basic_stringIcNS4_11char_traitsIcEENS4_9allocatorIcEEEEblmdS9_NS1_14adl_serializerENS5_IhNS9_IhEEEEvEERKSB_SJ_SJ_SJ_
0000000000237a50 T _ZN23common_chat_peg_builder32build_json_tools_function_is_keyERKN8nlohmann16json_abi_v3_12_010basic_jsonINS1_11ordered_mapENSt6__ndk16vectorENS4_12basic_stringIcNS4_11char_traitsIcEENS4_9allocatorIcEEEEblmdS9_NS1_14adl_serializerENS5_IhNS9_IhEEEEvEERKSB_SJ_SJ_SJ_
000000000026484c W _ZN23common_chat_peg_builder4toolERK17common_peg_parser
000000000023cf9c T _ZN23common_chat_peg_builder6prefixERKNSt6__ndk112basic_stringIcNS0_11char_traitsIcEENS0_9allocatorIcEEEES8_
00000000001fbc94 W _ZN23common_chat_peg_builder7contentERK17common_peg_parser
00000000002033a8 W _ZN23common_chat_peg_builder7tool_idERK17common_peg_parser
000000000020550c W _ZN23common_chat_peg_builder8tool_argERK17common_peg_parser
00000000001fb604 W _ZN23common_chat_peg_builder9reasoningERK17common_peg_parser
000000000020350c W _ZN23common_chat_peg_builder9tool_argsERK17common_peg_parser
00000000001fe1fc W _ZN23common_chat_peg_builder9tool_nameERK17common_peg_parser
00000000001fe098 W _ZN23common_chat_peg_builder9tool_openERK17common_peg_parser
00000000002615c8 W _ZN23common_peg_chars_parserC2ERKS_
00000000002f8a60 W _ZN23common_peg_chars_parserD2Ev
00000000001ff1d4 W _ZN23common_peg_until_parserD2Ev
00000000002d5e58 W _ZN23common_schema_converter12check_errorsEv
00000000002e55f4 W _ZN23common_schema_converter12_not_stringsERKNSt6__ndk16vectorINS0_12basic_stringIcNS0_11char_traitsIcEENS0_9allocatorIcEEEENS5_IS7_EEEE
00000000002df67c W _ZN23common_schema_converter12_resolve_refERKNSt6__ndk112basic_stringIcNS0_11char_traitsIcEENS0_9allocatorIcEEEE
00000000002d56cc W _ZN23common_schema_converter12resolve_refsERN8nlohmann16json_abi_v3_12_010basic_jsonINS1_11ordered_mapENSt6__ndk16vectorENS4_12basic_stringIcNS4_11char_traitsIcEENS4_9allocatorIcEEEEblmdS9_NS1_14adl_serializerENS5_IhNS9_IhEEEEvEERKSB_
00000000002e3918 W _ZN23common_schema_converter14_add_primitiveERKNSt6__ndk112basic_stringIcNS0_11char_traitsIcEENS0_9allocatorIcEEEERK11BuiltinRule
00000000002d6148 W _ZN23common_schema_converter14format_grammarEv
00000000002e3110 W _ZN23common_schema_converter14_visit_patternERKNSt6__ndk112basic_stringIcNS0_11char_traitsIcEENS0_9allocatorIcEEEES8_
00000000002e0450 W _ZN23common_schema_converter18_build_object_ruleERKNSt6__ndk16vectorINS0_4pairINS0_12basic_stringIcNS0_11char_traitsIcEENS0_9allocatorIcEEEEN8nlohmann16json_abi_v3_12_010basic_jsonINSA_11ordered_mapES1_S8_blmdS6_NSA_14adl_serializerENS1_IhNS6_IhEEEEvEEEENS6_ISH_EEEERKNS0_13unordered_setIS8_NS0_4hashIS8_EENS0_8equal_toIS8_EENS6_IS8_EEEERKS8_RKSG_
00000000002dfad0 W _ZN23common_schema_converter20_generate_union_ruleERKNSt6__ndk112basic_stringIcNS0_11char_traitsIcEENS0_9allocatorIcEEEERKNS0_6vectorIN8nlohmann16json_abi_v3_12_010basic_jsonINSB_11ordered_mapES9_S6_blmdS4_NSB_14adl_serializerENS9_IhNS4_IhEEEEvEENS4_ISH_EEEE
00000000002dc268 W _ZN23common_schema_converter5visitERKN8nlohmann16json_abi_v3_12_010basic_jsonINS1_11ordered_mapENSt6__ndk16vectorENS4_12basic_stringIcNS4_11char_traitsIcEENS4_9allocatorIcEEEEblmdS9_NS1_14adl_serializerENS5_IhNS9_IhEEEEvEERKSB_
00000000002db96c W _ZN23common_schema_converter9_add_ruleERKNSt6__ndk112basic_stringIcNS0_11char_traitsIcEENS0_9allocatorIcEEEES8_
00000000002d5bf0 W _ZN23common_schema_converterC2ERKNSt6__ndk18functionIFN8nlohmann16json_abi_v3_12_010basic_jsonINS3_11ordered_mapENS0_6vectorENS0_12basic_stringIcNS0_11char_traitsIcEENS0_9allocatorIcEEEEblmdSA_NS3_14adl_serializerENS6_IhNSA_IhEEEEvEERKSC_EEEb
00000000002d63d4 W _ZN23common_schema_converterD2Ev
000000000033555c W _ZN23common_speculative_treeD2Ev
00000000002099dc W _ZN23compare_variants_resultD2Ev
00000000001c34d0 W _ZN24common_adapter_lora_infoC2ERKS_
00000000001c11a8 W _ZN24common_adapter_lora_infoD2Ev
00000000002972e0 W _ZN24common_cached_model_infoD2Ev
00000000002323f4 W _ZN24common_peg_parse_contextD2Ev
00000000002f8d48 W _ZN24common_peg_schema_parserD2Ev
0000000000336cc8 W _ZN24common_speculative_state10draft_treeERK25common_params_speculativeRKNSt6__ndk16vectorIiNS3_9allocatorIiEEEEiiR23common_speculative_tree
0000000000337194 W _ZN24common_speculative_state10set_seq_idEi
000000000033717c W _ZN24common_speculative_state13flush_prefillEv
0000000000337178 W _ZN24common_speculative_state13update_logitsEP13llama_contextRKNSt6__ndk16vectorIiNS2_9allocatorIiEEEEi
000000000033718c W _ZN24common_speculative_state15ring_state_loadEPKhm
0000000000337198 W _ZN24common_speculative_state19prepare_batch_draftEP13llama_context
0000000000337170 W _ZN24common_speculative_state6extendERK25common_params_speculativeRKNSt6__ndk16vectorIiNS3_9allocatorIiEEEEiRS7_
000000000033ea2c W _ZN24common_speculative_stateD2Ev
000000000024ea68 W _ZN25common_chat_prompt_presetD2Ev
0000000000287918 T _ZN25common_debug_cb_user_dataC1ER13common_paramsRKNSt6__ndk16vectorINS2_12basic_stringIcNS2_11char_traitsIcEENS2_9allocatorIcEEEENS7_IS9_EEEEb
00000000002878cc T _ZN25common_debug_cb_user_dataC1Ev
0000000000287918 T _ZN25common_debug_cb_user_dataC2ER13common_paramsRKNSt6__ndk16vectorINS2_12basic_stringIcNS2_11char_traitsIcEENS2_9allocatorIcEEEENS7_IS9_EEEEb
00000000002878cc T _ZN25common_debug_cb_user_dataC2Ev
0000000000287904 T _ZN25common_debug_cb_user_dataD1Ev
0000000000287904 T _ZN25common_debug_cb_user_dataD2Ev
00000000001c796c W _ZN25common_params_speculativeaSERKS_
00000000001c1ce8 W _ZN25common_params_speculativeC2ERKS_
00000000001c00ec W _ZN25common_params_speculativeC2Ev
00000000001c07e8 W _ZN25common_params_speculativeD2Ev
00000000002fa264 T _ZN25common_peg_parser_builder10json_arrayEv
00000000002fb050 T _ZN25common_peg_parser_builder11json_memberERKNSt6__ndk112basic_stringIcNS0_11char_traitsIcEENS0_9allocatorIcEEEERK17common_peg_parser
00000000002f9c20 T _ZN25common_peg_parser_builder11json_numberEv
00000000002fa120 T _ZN25common_peg_parser_builder11json_objectEv
00000000002f9d64 T _ZN25common_peg_parser_builder11json_stringEv
00000000002fa628 T _ZN25common_peg_parser_builder11python_boolEv
00000000002fa8b0 T _ZN25common_peg_parser_builder11python_dictEv
00000000002fa76c T _ZN25common_peg_parser_builder11python_nullEv
00000000002fa9f4 T _ZN25common_peg_parser_builder12python_arrayEv
00000000002fab38 T _ZN25common_peg_parser_builder12python_valueEv
00000000001ff85c W _ZN25common_peg_parser_builder12until_one_ofERKNSt6__ndk16vectorINS0_12basic_stringIcNS0_11char_traitsIcEENS0_9allocatorIcEEEENS5_IS7_EEEE
00000000002fa624 T _ZN25common_peg_parser_builder13python_numberEv
00000000002fa4e4 T _ZN25common_peg_parser_builder13python_stringEv
00000000002f9ae0 T _ZN25common_peg_parser_builder13quoted_stringEv
00000000002f9734 T _ZN25common_peg_parser_builder14string_contentEc
00000000002f9858 T _ZN25common_peg_parser_builder20double_quoted_stringEv
00000000002f999c T _ZN25common_peg_parser_builder20single_quoted_stringEv
00000000003073b4 W _ZN25common_peg_parser_builder3addERKNSt6__ndk17variantIJ25common_peg_epsilon_parser23common_peg_start_parser21common_peg_end_parser25common_peg_literal_parser26common_peg_sequence_parser24common_peg_choice_parser28common_peg_repetition_parser21common_peg_and_parser21common_peg_not_parser21common_peg_any_parser23common_peg_space_parser23common_peg_chars_parser24common_peg_string_parser23common_peg_until_parser24common_peg_schema_parser22common_peg_rule_parser21common_peg_ref_parser24common_peg_atomic_parser21common_peg_tag_parser22common_peg_gbnf_parserEEE
000000000022173c W _ZN25common_peg_parser_builder3anyEv
00000000001fbde8 W _ZN25common_peg_parser_builder3endEv
00000000001fa7ac W _ZN25common_peg_parser_builder3epsEv
0000000000263ed4 W _ZN25common_peg_parser_builder3refERKNSt6__ndk112basic_stringIcNS0_11char_traitsIcEENS0_9allocatorIcEEEE
00000000001ff69c W _ZN25common_peg_parser_builder3tagERKNSt6__ndk112basic_stringIcNS0_11char_traitsIcEENS0_9allocatorIcEEEERK17common_peg_parser
0000000000270d34 W _ZN25common_peg_parser_builder4gbnfERK17common_peg_parserRKNSt6__ndk112basic_stringIcNS3_11char_traitsIcEENS3_9allocatorIcEEEE
00000000002fa3a4 T _ZN25common_peg_parser_builder4jsonEv
00000000001fe75c W _ZN25common_peg_parser_builder4peekERK17common_peg_parser
00000000002f8dbc T _ZN25common_peg_parser_builder4ruleERKNSt6__ndk112basic_stringIcNS0_11char_traitsIcEENS0_9allocatorIcEEEERK17common_peg_parserb
00000000002f912c T _ZN25common_peg_parser_builder4ruleERKNSt6__ndk112basic_stringIcNS0_11char_traitsIcEENS0_9allocatorIcEEEERKNS0_8functionIF17common_peg_parservEEEb
00000000002f958c T _ZN25common_peg_parser_builder5buildEv
00000000002f80ec T _ZN25common_peg_parser_builder5charsERKNSt6__ndk112basic_stringIcNS0_11char_traitsIcEENS0_9allocatorIcEEEEii
00000000001fb970 W _ZN25common_peg_parser_builder5spaceEv
00000000001fb758 W _ZN25common_peg_parser_builder5untilERKNSt6__ndk112basic_stringIcNS0_11char_traitsIcEENS0_9allocatorIcEEEE
00000000001fe504 W _ZN25common_peg_parser_builder6atomicERK17common_peg_parser
00000000002f7bf0 T _ZN25common_peg_parser_builder6choiceERKNSt6__ndk16vectorI17common_peg_parserNS0_9allocatorIS2_EEEE
00000000002f64c0 T _ZN25common_peg_parser_builder6choiceERKNSt6__ndk16vectorImNS0_9allocatorImEEEE
00000000002f7e84 T _ZN25common_peg_parser_builder6choiceESt16initializer_listI17common_peg_parserE
00000000001fe850 W _ZN25common_peg_parser_builder6choiceEv
00000000002fac7c T _ZN25common_peg_parser_builder6markerEv
0000000000221648 W _ZN25common_peg_parser_builder6negateERK17common_peg_parser
00000000001ff5a0 W _ZN25common_peg_parser_builder6repeatERK17common_peg_parserii
00000000002f8ab4 T _ZN25common_peg_parser_builder6schemaERK17common_peg_parserRKNSt6__ndk112basic_stringIcNS3_11char_traitsIcEENS3_9allocatorIcEEEERKN8nlohmann16json_abi_v3_12_010basic_jsonINSD_11ordered_mapENS3_6vectorES9_blmdS7_NSD_14adl_serializerENSG_IhNS7_IhEEEEvEEb
00000000001fe360 W _ZN25common_peg_parser_builder7literalERKNSt6__ndk112basic_stringIcNS0_11char_traitsIcEENS0_9allocatorIcEEEE
00000000002f76f4 T _ZN25common_peg_parser_builder8sequenceERKNSt6__ndk16vectorI17common_peg_parserNS0_9allocatorIS2_EEEE
00000000002f5fe4 T _ZN25common_peg_parser_builder8sequenceERKNSt6__ndk16vectorImNS0_9allocatorImEEEE
00000000002f7988 T _ZN25common_peg_parser_builder8sequenceESt16initializer_listI17common_peg_parserE
00000000002f9580 T _ZN25common_peg_parser_builder8set_rootERK17common_peg_parser
00000000002f9ea8 T _ZN25common_peg_parser_builder9json_boolEv
00000000002f9fe4 T _ZN25common_peg_parser_builder9json_nullEv
00000000002f76d0 T _ZN25common_peg_parser_builderC1Ev
00000000002f76d0 T _ZN25common_peg_parser_builderC2Ev
0000000000333e88 W _ZN25common_speculative_configD2Ev
00000000002a23dc W _ZN27common_params_fit_exceptionCI2St13runtime_errorEPKc
00000000002a3488 W _ZN27common_params_fit_exceptionD0Ev
000000000024a6d8 W _ZN28common_chat_msg_content_partD2Ev
0000000000247af4 W _ZN28common_chat_templates_inputsD2Ev
00000000001c70b0 W _ZN28common_download_model_resultD2Ev
000000000023d97c T _ZN29common_chat_peg_gemma4_mapper5visitERK20common_peg_ast_arenam
000000000023d930 T _ZN29common_chat_peg_gemma4_mapper8from_astERK20common_peg_ast_arenaRK23common_peg_parse_result
000000000023e8ec W _ZN29common_chat_peg_gemma4_mapperD0Ev
000000000033e3d8 W _ZN30common_speculative_state_draft17create_checkpointEi
000000000033e320 W _ZN30common_speculative_state_draft18restore_checkpointEv
000000000033c930 W _ZN30common_speculative_state_draft5beginERKNSt6__ndk16vectorIiNS0_9allocatorIiEEEE
000000000033c934 W _ZN30common_speculative_state_draft5draftERK25common_params_speculativeRKNSt6__ndk16vectorIiNS3_9allocatorIiEEEEiRS7_PNS4_IfNS5_IfEEEE
000000000033de44 W _ZN30common_speculative_state_draft6acceptEt
000000000033c114 W _ZN30common_speculative_state_draftC2E23common_speculative_typeP13llama_contextS2_RKNSt6__ndk16vectorINS3_4pairINS3_12basic_stringIcNS3_11char_traitsIcEENS3_9allocatorIcEEEESB_EENS9_ISC_EEEEb
000000000033c908 W _ZN30common_speculative_state_draftD0Ev
000000000033c840 W _ZN30common_speculative_state_draftD2Ev
00000000001c86c8 W _ZN31common_params_speculative_draftaSERKS_
00000000001c262c W _ZN31common_params_speculative_draftC2ERKS_
00000000001c0e48 W _ZN31common_params_speculative_draftD2Ev
0000000000339a20 W _ZN31common_speculative_state_dflash10draft_treeERK25common_params_speculativeRKNSt6__ndk16vectorIiNS3_9allocatorIiEEEEiiR23common_speculative_tree
000000000033b800 W _ZN31common_speculative_state_dflash10ring_writeEii
000000000033b628 W _ZN31common_speculative_state_dflash10set_seq_idEi
000000000033b1b0 W _ZN31common_speculative_state_dflash13flush_prefillEv
000000000033b154 W _ZN31common_speculative_state_dflash13update_logitsEP13llama_contextRKNSt6__ndk16vectorIiNS2_9allocatorIiEEEEi
000000000033b328 W _ZN31common_speculative_state_dflash15ring_state_loadEPKhm
000000000033b9c4 W _ZN31common_speculative_state_dflash16build_cross_dataEP13llama_context
000000000033b630 W _ZN31common_speculative_state_dflash19prepare_batch_draftEP13llama_context
0000000000339014 W _ZN31common_speculative_state_dflash5beginERKNSt6__ndk16vectorIiNS0_9allocatorIiEEEE
00000000003390a0 W _ZN31common_speculative_state_dflash5draftERK25common_params_speculativeRKNSt6__ndk16vectorIiNS3_9allocatorIiEEEEiRS7_PNS4_IfNS5_IfEEEE
000000000033b060 W _ZN31common_speculative_state_dflash6acceptEt
0000000000338ab0 W _ZN31common_speculative_state_dflashC2EP13llama_contextS1_P11llama_modelb
0000000000338fec W _ZN31common_speculative_state_dflashD0Ev
0000000000338ed8 W _ZN31common_speculative_state_dflashD2Ev
000000000033e874 W _ZN31common_speculative_state_eagle35beginERKNSt6__ndk16vectorIiNS0_9allocatorIiEEEE
000000000033e878 W _ZN31common_speculative_state_eagle35draftERK25common_params_speculativeRKNSt6__ndk16vectorIiNS3_9allocatorIiEEEEiRS7_PNS4_IfNS5_IfEEEE
000000000033e87c W _ZN31common_speculative_state_eagle36acceptEt
000000000033e86c W _ZN31common_speculative_state_eagle3D0Ev
000000000033f4fc W _ZN31common_speculative_state_suffix5beginERKNSt6__ndk16vectorIiNS0_9allocatorIiEEEE
000000000033f5a4 W _ZN31common_speculative_state_suffix5draftERK25common_params_speculativeRKNSt6__ndk16vectorIiNS3_9allocatorIiEEEEiRS7_PNS4_IfNS5_IfEEEE
000000000033fb18 W _ZN31common_speculative_state_suffix6acceptEt
000000000033f4c4 W _ZN31common_speculative_state_suffixD0Ev
000000000033f4b0 W _ZN31common_speculative_state_suffixD2Ev
0000000000341ac0 W _ZN32common_speculative_state_recycle10add_bigramEii
0000000000341a00 W _ZN32common_speculative_state_recycle13update_logitsEP13llama_contextRKNSt6__ndk16vectorIiNS2_9allocatorIiEEEEi
0000000000342294 W _ZN32common_speculative_state_recycle14set_successorsEiPKfi
0000000000341674 W _ZN32common_speculative_state_recycle5beginERKNSt6__ndk16vectorIiNS0_9allocatorIiEEEE
0000000000341754 W _ZN32common_speculative_state_recycle5draftERK25common_params_speculativeRKNSt6__ndk16vectorIiNS3_9allocatorIiEEEEiRS7_PNS4_IfNS5_IfEEEE
00000000003419fc W _ZN32common_speculative_state_recycle6acceptEt
00000000003415e4 W _ZN32common_speculative_state_recycleD0Ev
0000000000341550 W _ZN32common_speculative_state_recycleD2Ev
0000000000340d9c W _ZN33common_speculative_state_copyspec13update_logitsEP13llama_contextRKNSt6__ndk16vectorIiNS2_9allocatorIiEEEEi
0000000000340264 W _ZN33common_speculative_state_copyspec5beginERKNSt6__ndk16vectorIiNS0_9allocatorIiEEEE
00000000003403d8 W _ZN33common_speculative_state_copyspec5draftERK25common_params_speculativeRKNSt6__ndk16vectorIiNS3_9allocatorIiEEEEiRS7_PNS4_IfNS5_IfEEEE
0000000000340d98 W _ZN33common_speculative_state_copyspec6acceptEt
00000000003408b0 W _ZN33common_speculative_state_copyspec6extendERK25common_params_speculativeRKNSt6__ndk16vectorIiNS3_9allocatorIiEEEEiRS7_
00000000003401e4 W _ZN33common_speculative_state_copyspecD0Ev
0000000000340164 W _ZN33common_speculative_state_copyspecD2Ev
000000000033ea38 W _ZN34common_speculative_state_ngram_mod5beginERKNSt6__ndk16vectorIiNS0_9allocatorIiEEEE
000000000033eba4 W _ZN34common_speculative_state_ngram_mod5draftERK25common_params_speculativeRKNSt6__ndk16vectorIiNS3_9allocatorIiEEEEiRS7_PNS4_IfNS5_IfEEEE
000000000033ee98 W _ZN34common_speculative_state_ngram_mod6acceptEt
000000000033ea30 W _ZN34common_speculative_state_ngram_modD0Ev
00000000001c0df8 W _ZN35common_params_speculative_ngram_modD2Ev
0000000000336604 W _ZN36common_speculative_state_ngram_cache5beginERKNSt6__ndk16vectorIiNS0_9allocatorIiEEEE
0000000000336608 W _ZN36common_speculative_state_ngram_cache5draftERK25common_params_speculativeRKNSt6__ndk16vectorIiNS3_9allocatorIiEEEEiRS7_PNS4_IfNS5_IfEEEE
0000000000337174 W _ZN36common_speculative_state_ngram_cache6acceptEt
00000000003362c4 W _ZN36common_speculative_state_ngram_cacheC2E23common_speculative_typeRKNSt6__ndk112basic_stringIcNS1_11char_traitsIcEENS1_9allocatorIcEEEES9_tbb
00000000003365dc W _ZN36common_speculative_state_ngram_cacheD0Ev
0000000000333f84 W _ZN36common_speculative_state_ngram_cacheD2Ev
000000000033e9f8 W _ZN36common_speculative_state_ngram_map_k5beginERKNSt6__ndk16vectorIiNS0_9allocatorIiEEEE
000000000033ea00 W _ZN36common_speculative_state_ngram_map_k5draftERK25common_params_speculativeRKNSt6__ndk16vectorIiNS3_9allocatorIiEEEEiRS7_PNS4_IfNS5_IfEEEE
000000000033ea14 W _ZN36common_speculative_state_ngram_map_k6acceptEt
000000000033e994 W _ZN36common_speculative_state_ngram_map_kD0Ev
000000000033e930 W _ZN36common_speculative_state_ngram_map_kD2Ev
00000000001c0da4 W _ZN37common_params_speculative_ngram_cacheD2Ev
000000000033e898 W _ZN37common_speculative_state_ngram_simple5beginERKNSt6__ndk16vectorIiNS0_9allocatorIiEEEE
000000000033e89c W _ZN37common_speculative_state_ngram_simple5draftERK25common_params_speculativeRKNSt6__ndk16vectorIiNS3_9allocatorIiEEEEiRS7_PNS4_IfNS5_IfEEEE
000000000033e91c W _ZN37common_speculative_state_ngram_simple6acceptEt
000000000033e890 W _ZN37common_speculative_state_ngram_simpleD0Ev
000000000031843c W _ZN4trie15prefix_and_nextD2Ev
0000000000317e4c W _ZN4trie23collect_prefix_and_nextEmRNSt6__ndk16vectorIjNS0_9allocatorIjEEEERNS1_INS_15prefix_and_nextENS2_IS6_EEEE
000000000030337c W _ZN4trie6insertERKNSt6__ndk112basic_stringIcNS0_11char_traitsIcEENS0_9allocatorIcEEEE
0000000000303304 W _ZN4trieD2Ev
000000000035b5e0 T _ZN5jinja10identifier12execute_implERNS_7contextE
0000000000367580 W _ZN5jinja10identifierD0Ev
